                                        ; Entry Point
                                        ; --- START PROC 0D000h ---
D000: C3 64 D1                   0D000h:        JP      0D164h

D003: 14                         0D003h:        DB      14h
D004: 54 4F 50 20 46 49 4C 45           DB      "TOP FILE     B"
D00C: 20 20 20 20 20 42
D012: D3                                DB      0D3h
D013: 07                                DB      07h
D014: 47 45 4E 45 52 41 54 45           DB      "GENERATE FILE"
D01C: 20 46 49 4C 45
D021: E6                                DB      0E6h
D022: D1                                DB      0D1h
D023: 05                                DB      05h
D024: 45 58 54 45 4E 44 20 46           DB      "EXTEND FILE  ("
D02C: 49 4C 45 20 20 28
D032: D2                                DB      0D2h
D033: 0E                                DB      0Eh
D034: 4E 45 58 54 20 52 45 43           DB      "NEXT RECORDS r"
D03C: 4F 52 44 53 20 72
D042: D2                                DB      0D2h
D043: 10                                DB      10h
D044: 50 52 45 56 49 4F 55 53           DB      "PREVIOUS REC.!"
D04C: 20 52 45 43 2E 21
D052: D3                                DB      0D3h
D053: 04                                DB      04h
D054: 44 45 4C 45 54 45 20 52           DB      "DELETE RECORDT"
D05C: 45 43 4F 52 44 54
D062: D4                                DB      0D4h
D063: 09                                DB      09h
D064: 49 4E 53 45 52 54 20 52           DB      "INSERT REC.  "
D06C: 45 43 2E 20 20
D071: DF                                DB      0DFh
D072: D3                                DB      0D3h
D073: 06                                DB      06h
D074: 46 49 4E 44 20 52 45 43           DB      "FIND RECORD  "
D07C: 4F 52 44 20 20
D081: 85                                DB      85h
D082: D3                                DB      0D3h
D083: 12                                DB      12h
D084: 52 45 50 4C 41 43 45 20           DB      "REPLACE REC. "
D08C: 52 45 43 2E 20
D091: F5                                DB      0F5h
D092: D4                                DB      0D4h
D093: 03                                DB      03h
D094: 43 48 41 4E 47 45 20 53           DB      "CHANGE STRING"
D09C: 54 52 49 4E 47
D0A1: 8F                                DB      8Fh
D0A2: D4                                DB      0D4h
D0A3: 01                                DB      01h
D0A4: 41 50 50 45 4E 44 20 53           DB      "APPEND STRING"
D0AC: 54 52 49 4E 47
D0B1: 0B                                DB      0Bh
D0B2: D4                                DB      0D4h
D0B3: 18                                DB      18h
D0B4: 45 44 49 54 4F 52 20 45           DB      "EDITOR EXIT  $"
D0BC: 58 49 54 20 20 24
D0C2: D7                                DB      0D7h
D0C3: 02                                DB      02h
D0C4: 42 4F 54 54 4F 4D 20 46           DB      "BOTTOM FILE  "
D0CC: 49 4C 45 20 20
D0D1: 17                                DB      17h
D0D2: D3                                DB      0D3h
D0D3: 11                                DB      11h
D0D4: 51 55 45 52 59 20 46 49           DB      "QUERY FILE   "
D0DC: 4C 45 20 20 20
D0E1: 92                                DB      92h
D0E2: D5                                DB      0D5h
D0E3: 15                                DB      15h
D0E4: 55 4E 4C 4F 41 44 20 46           DB      "UNLOAD FILE  c"
D0EC: 49 4C 45 20 20 63
D0F2: D7                                DB      0D7h
D0F3: 0C                                DB      0Ch
D0F4: 4C 4F 41 44 20 46 49 4C           DB      "LOAD FILE    "
D0FC: 45 20 20 20 20
D101: E0                                DB      0E0h
D102: D7                                DB      0D7h
D103: 13                                DB      13h
D104: 46 49 4C 45 20 53 49 5A           DB      "FILE SIZE IS M"
D10C: 45 20 49 53 20 4D
D112: D8                                DB      0D8h
D113: 44 45 4C 45 54 45 20 4F           DB      "DELETE OLD FILE ? (Y/N)NO RECORD POINTEDEND OF FILENO MORE SPACECERCANDO "
D11B: 4C 44 20 46 49 4C 45 20
D123: 3F 20 28 59 2F 4E 29 4E
D12B: 4F 20 52 45 43 4F 52 44
D133: 20 50 4F 49 4E 54 45 44
D13B: 45 4E 44 20 4F 46 20 46
D143: 49 4C 45 4E 4F 20 4D 4F
D14B: 52 45 20 53 50 41 43 45
D153: 43 45 52 43 41 4E 44 4F
D15B: 20
D15C: 80                                DB      80h
D15D: 44 41 4D 4D 49 20                 DB      "DAMMI "
D163: 80                                DB      80h


                                        ; Referenced from 0D000h
D164: 21 06 02                   0D164h:        LD      HL,0206h    ; address or value?
D167: 01 5B 00                          LD      BC,005Bh        ; address or value?
D16A: 11 07 02                          LD      DE,0207h        ; address or value?
D16D: 36 00                             LD      (HL),00h
D16F: ED B0                             LDIR
D171: 3E 44                             LD      A,44h   ; 'D'
D173: 32 58 02                          LD      (0258h),A
D176: 3E C2                             LD      A,0C2h
D178: 32 5E 02                          LD      (025Eh),A
D17B: 21 62 02                          LD      HL,0262h        ; address or value?
D17E: 22 00 02                          LD      (0200h),HL
D181: 22 02 02                          LD      (0202h),HL
D184: 2A 31 01                          LD      HL,(0131h)
D187: 01 00 01                          LD      BC,0100h        ; address or value?
D18A: ED 42                             SBC     HL,BC
D18C: 22 04 02                          LD      (0204h),HL
D18F: CD 8A EC                          CALL    0EC8Ah

                                        ; Referenced from 0D208h, 0D22Dh, 0D26Fh, 0D3E7h, 0D871h, 0D1C5h, 0D2F5h, 0D2EDh
                                        ; --- START PROC 0D192h ---
D192: CD 40 EC                   0D192h:        CALL    0EC40h
D195: 11 C5 AB                          LD      DE,0ABC5h       ; address or value?
D198: CD 5B E3                          CALL    0E35Bh
D19B: 3A B6 00                          LD      A,(00B6h)
D19E: FE 00                             CP      00h
D1A0: 28 35                             JR      Z,0D1D7h

                                        ; Referenced from 0D7DDh, 0D4F2h, 0D67Eh
                                        ; --- START PROC 0D1A2h ---
D1A2: 21 0A 02                   0D1A2h:        LD      HL,020Ah    ; address or value?
D1A5: 36 00                             LD      (HL),00h
D1A7: 11 10 00                          LD      DE,0010h        ; address or value?
D1AA: 21 03 D0                          LD      HL,0D003h       ; address or value?
D1AD: 06 11                             LD      B,11h

                                        ; Referenced from 0D1B5h
D1AF: BE                         0D1AFh:        CP      (HL)
D1B0: 28 15                             JR      Z,0D1C7h
D1B2: A7                                AND     A
D1B3: ED 5A                             ADC     HL,DE
D1B5: 10 F8                             DJNZ    0D1AFh

                                        ; Referenced from 0D58Fh, 0D59Ch, 0D5ACh, 0D5CEh, 0D1E4h
                                        ; --- START PROC 0D1B7h ---
D1B7: CD 4B EC                   0D1B7h:        CALL    0EC4Bh
D1BA: 21 D9 E0                          LD      HL,0E0D9h       ; address or value?
D1BD: 01 06 00                          LD      BC,0006h        ; address or value?
D1C0: 11 C5 AB                          LD      DE,0ABC5h       ; address or value?
D1C3: ED B0                             LDIR
D1C5: 18 CB                             JR      0D192h

                                        ; Referenced from 0D1B0h
                                        ; --- START PROC 0D1C7h ---
D1C7: 23                         0D1C7h:        INC     HL
D1C8: 11 C5 AB                          LD      DE,0ABC5h       ; address or value?
D1CB: 01 0D 00                          LD      BC,000Dh        ; address or value?
D1CE: ED B0                             LDIR
D1D0: EB                                EX      DE,HL
D1D1: 1A                                LD      A,(DE)
D1D2: 6F                                LD      L,A
D1D3: 13                                INC     DE
D1D4: 1A                                LD      A,(DE)
D1D5: 67                                LD      H,A
D1D6: E9                                JP      (HL)

                                        ; Referenced from 0D1A0h
                                        ; --- START PROC 0D1D7h ---
D1D7: 3A 0A 02                   0D1D7h:        LD      A,(020Ah)
D1DA: FE 05                             CP      05h
D1DC: CA 30 D2                          JP      Z,0D230h
D1DF: FE 09                             CP      09h
D1E1: CA 9D D3                          JP      Z,0D39Dh
D1E4: 18 D1                             JR      0D1B7h

                                        ; Entry Point
                                        ; --- START PROC 0D1E6h ---
D1E6: 2A 00 02                   0D1E6h:        LD      HL,(0200h)
D1E9: ED 5B 02 02                       LD      DE,(0202h)
D1ED: A7                                AND     A
D1EE: ED 52                             SBC     HL,DE
D1F0: 28 36                             JR      Z,0D228h
D1F2: 11 C5 AB                          LD      DE,0ABC5h       ; address or value?
D1F5: 21 13 D1                          LD      HL,0D113h       ; address or value?
D1F8: 01 17 00                          LD      BC,0017h        ; address or value?
D1FB: ED B0                             LDIR
D1FD: 11 DD AB                          LD      DE,0ABDDh       ; address or value?
D200: CD 5B E3                          CALL    0E35Bh
D203: 3A DD AB                          LD      A,(0ABDDh)
D206: FE 59                             CP      59h     ; 'Y'
D208: C2 92 D1                          JP      NZ,0D192h
D20B: 2A 02 02                          LD      HL,(0202h)
D20E: 22 00 02                          LD      (0200h),HL
D211: 21 00 00                          LD      HL,0000h        ; address or value?
D214: 22 08 02                          LD      (0208h),HL
D217: 22 06 02                          LD      (0206h),HL
D21A: CD 40 EC                          CALL    0EC40h
D21D: 21 14 D0                          LD      HL,0D014h       ; address or value?
D220: 11 C5 AB                          LD      DE,0ABC5h       ; address or value?
D223: 01 0D 00                          LD      BC,000Dh        ; address or value?
D226: ED B0                             LDIR

                                        ; Referenced from 0D1F0h
D228: 3E 05                      0D228h:        LD      A,05h
D22A: 32 0A 02                          LD      (020Ah),A
D22D: C3 92 D1                          JP      0D192h

                                        ; Referenced from 0D1DCh
                                        ; --- START PROC 0D230h ---
D230: 44                         0D230h:        LD      B,H
D231: 4D                                LD      C,L
D232: 21 00 00                          LD      HL,0000h        ; address or value?
D235: 22 06 02                          LD      (0206h),HL
D238: CD EA D3                          CALL    0D3EAh
D23B: 21 C5 AB                          LD      HL,0ABC5h       ; address or value?
D23E: CB FE                             SET     7,(HL)
D240: ED B0                             LDIR
D242: 21 C5 AB                          LD      HL,0ABC5h       ; address or value?
D245: CB BE                             RES     7,(HL)
D247: 62                                LD      H,D
D248: 6B                                LD      L,E
D249: CB FE                             SET     7,(HL)
D24B: 22 00 02                          LD      (0200h),HL

                                        ; Referenced from 0D3B9h
                                        ; --- START PROC 0D24Eh ---
D24E: 2A 08 02                   0D24Eh:        LD      HL,(0208h)
D251: 23                                INC     HL
D252: 22 08 02                          LD      (0208h),HL
D255: 18 18                             JR      0D26Fh

                                        ; Referenced from 0D272h, 0D321h, 0D385h, 0D3DFh, 0D40Bh, 0D454h, 0D48Fh, 0D4F5h
                                        ; Entry Point
                                        ; --- START PROC 0D257h ---
D257: 3A 06 02                   0D257h:        LD      A,(0206h)
D25A: FE 00                             CP      00h
D25C: C0                                RET     NZ
D25D: 3A 07 02                          LD      A,(0207h)
D260: FE 00                             CP      00h
D262: C0                                RET     NZ
D263: 21 2A D1                          LD      HL,0D12Ah       ; address or value?
D266: 11 C5 AB                          LD      DE,0ABC5h       ; address or value?
D269: 01 11 00                          LD      BC,0011h        ; address or value?
D26C: ED B0                             LDIR
D26E: E1                                POP     HL

                                        ; Referenced from 0D255h
                                        ; --- START PROC 0D26Fh ---
D26F: C3 92 D1                   0D26Fh:        JP      0D192h

                                        ; Entry Point
                                        ; --- START PROC 0D272h ---
D272: CD 57 D2                   0D272h:        CALL    0D257h
D275: 11 D2 AB                          LD      DE,0ABD2h       ; address or value?
D278: CD 5B E3                          CALL    0E35Bh
D27B: 3A D2 AB                          LD      A,(0ABD2h)
D27E: FE 41                             CP      41h     ; 'A'
D280: 20 05                             JR      NZ,0D287h
D282: 21 14 02                          LD      HL,0214h        ; address or value?
D285: CB FE                             SET     7,(HL)

                                        ; Referenced from 0D280h
D287: 21 A7 EC                   0D287h:        LD      HL,0ECA7h   ; address or value?
D28A: 01 08 00                          LD      BC,0008h        ; address or value?
D28D: ED B1                             CPIR
D28F: 28 02                             JR      Z,0D293h

                                        ; Referenced from 0D434h
                                        ; --- START PROC 0D291h ---
D291: 3E 01                      0D291h:        LD      A,01h

                                        ; Referenced from 0D28Fh
D293: E6 0F                      0D293h:        AND     0Fh
D295: 32 0B 02                          LD      (020Bh),A

                                        ; Referenced from 0D34Eh, 0D2EAh
                                        ; --- START PROC 0D298h ---
D298: CD 40 EC                   0D298h:        CALL    0EC40h

                                        ; Referenced from 0D2C9h
D29B: CD 51 D3                   0D29Bh:        CALL    0D351h
D29E: 54                                LD      D,H
D29F: 5D                                LD      E,L
D2A0: 2A 00 02                          LD      HL,(0200h)
D2A3: A7                                AND     A
D2A4: ED 52                             SBC     HL,DE
D2A6: 20 13                             JR      NZ,0D2BBh
D2A8: 21 3B D1                          LD      HL,0D13Bh       ; address or value?
D2AB: 11 C5 AB                          LD      DE,0ABC5h       ; address or value?
D2AE: 01 0B 00                          LD      BC,000Bh        ; address or value?
D2B1: ED B0                             LDIR
D2B3: 21 00 00                          LD      HL,0000h        ; address or value?
D2B6: 22 06 02                          LD      (0206h),HL
D2B9: 18 35                             JR      0D2F0h

                                        ; Referenced from 0D2A6h
D2BB: ED 53 06 02                0D2BBh:        LD      (0206h),DE
D2BF: 3A 0A 02                          LD      A,(020Ah)
D2C2: FE 06                             CP      06h
D2C4: 20 05                             JR      NZ,0D2CBh
D2C6: CD 5A D3                          CALL    0D35Ah
D2C9: 18 D0                             JR      0D29Bh

                                        ; Referenced from 0D2C4h
D2CB: 2A 06 02                   0D2CBh:        LD      HL,(0206h)
D2CE: 11 C5 AB                          LD      DE,0ABC5h       ; address or value?

                                        ; Referenced from 0D2D5h
D2D1: ED A0                      0D2D1h:        LDI
D2D3: CB 7E                             BIT     7,(HL)
D2D5: 28 FA                             JR      Z,0D2D1h
D2D7: 21 C5 AB                          LD      HL,0ABC5h       ; address or value?
D2DA: CB BE                             RES     7,(HL)
D2DC: 3A 14 02                          LD      A,(0214h)
D2DF: CB 7F                             BIT     7,A
D2E1: 20 0D                             JR      NZ,0D2F0h
D2E3: 3A 0B 02                          LD      A,(020Bh)
D2E6: 3D                                DEC     A
D2E7: 32 0B 02                          LD      (020Bh),A
D2EA: C2 98 D2                          JP      NZ,0D298h
D2ED: C3 92 D1                          JP      0D192h

                                        ; Referenced from 0D2B9h, 0D2E1h
D2F0: CB BF                      0D2F0h:        RES     7,A
D2F2: 32 14 02                          LD      (0214h),A
D2F5: C3 92 D1                          JP      0D192h

                                        ; Referenced from 0D33Dh, 0D431h
                                        ; Entry Point
                                        ; --- START PROC 0D2F8h ---
D2F8: ED 5B 06 02                0D2F8h:        LD      DE,(0206h)

                                        ; Referenced from 0D313h
D2FC: 2A 02 02                   0D2FCh:        LD      HL,(0202h)
D2FF: A7                                AND     A
D300: ED 52                             SBC     HL,DE
D302: 20 06                             JR      NZ,0D30Ah
D304: 1B                                DEC     DE

                                        ; Referenced from 0D315h
D305: ED 53 06 02                0D305h:        LD      (0206h),DE
D309: C9                                RET

                                        ; Referenced from 0D302h
D30A: 62                         0D30Ah:        LD      H,D
D30B: 6B                                LD      L,E

                                        ; Referenced from 0D30Fh
D30C: 2B                         0D30Ch:        DEC     HL
D30D: CB 7E                             BIT     7,(HL)
D30F: 28 FB                             JR      Z,0D30Ch
D311: 54                                LD      D,H
D312: 5D                                LD      E,L
D313: 10 E7                             DJNZ    0D2FCh
D315: 18 EE                             JR      0D305h

                                        ; Entry Point
                                        ; --- START PROC 0D317h ---
D317: 2A 00 02                   0D317h:        LD      HL,(0200h)
D31A: 22 06 02                          LD      (0206h),HL
D31D: 06 02                             LD      B,02h
D31F: 18 1C                             JR      0D33Dh

                                        ; Entry Point
                                        ; --- START PROC 0D321h ---
D321: CD 57 D2                   0D321h:        CALL    0D257h
D324: 11 D3 AB                          LD      DE,0ABD3h       ; address or value?
D327: CD 5B E3                          CALL    0E35Bh
D32A: 3A D3 AB                          LD      A,(0ABD3h)
D32D: 21 A7 EC                          LD      HL,0ECA7h       ; address or value?
D330: 01 08 00                          LD      BC,0008h        ; address or value?
D333: ED B1                             CPIR
D335: 28 02                             JR      Z,0D339h
D337: 3E 01                             LD      A,01h

                                        ; Referenced from 0D335h
D339: E6 0F                      0D339h:        AND     0Fh
D33B: 47                                LD      B,A
D33C: 04                                INC     B

                                        ; Referenced from 0D31Fh
                                        ; --- START PROC 0D33Dh ---
D33D: CD F8 D2                   0D33Dh:        CALL    0D2F8h
D340: 18 07                             JR      0D349h

                                        ; Entry Point
                                        ; --- START PROC 0D342h ---
D342: 2A 02 02                   0D342h:        LD      HL,(0202h)
D345: 2B                                DEC     HL
D346: 22 06 02                          LD      (0206h),HL

                                        ; Referenced from 0D340h
                                        ; --- START PROC 0D349h ---
D349: 3E 01                      0D349h:        LD      A,01h
D34B: 32 0B 02                          LD      (020Bh),A

                                        ; Referenced from 0D39Bh
                                        ; --- START PROC 0D34Eh ---
D34E: C3 98 D2                   0D34Eh:        JP      0D298h

                                        ; Referenced from 0D29Bh, 0D419h, 0D3A2h
                                        ; --- START PROC 0D351h ---
D351: 2A 06 02                   0D351h:        LD      HL,(0206h)

                                        ; Referenced from 0D357h
D354: 23                         0D354h:        INC     HL
D355: CB 7E                             BIT     7,(HL)
D357: 28 FB                             JR      Z,0D354h
D359: C9                                RET

                                        ; Referenced from 0D2C6h
                                        ; --- START PROC 0D35Ah ---
D35A: 11 91 AB                   0D35Ah:        LD      DE,0AB91h   ; address or value?

                                        ; Referenced from 0D4A4h
                                        ; --- START PROC 0D35Dh ---
D35D: 3A 0C 02                   0D35Dh:        LD      A,(020Ch)
D360: 47                                LD      B,A
D361: 2A 06 02                          LD      HL,(0206h)
D364: CB BE                             RES     7,(HL)

                                        ; Referenced from 0D37Ah
D366: E5                         0D366h:        PUSH    HL
D367: D5                                PUSH    DE
D368: C5                                PUSH    BC
D369: CD 49 E3                          CALL    0E349h
D36C: C1                                POP     BC
D36D: D1                                POP     DE
D36E: E1                                POP     HL
D36F: 20 06                             JR      NZ,0D377h
D371: D1                                POP     DE
D372: 13                                INC     DE
D373: 13                                INC     DE
D374: D5                                PUSH    DE
D375: 18 05                             JR      0D37Ch

                                        ; Referenced from 0D36Fh
D377: 23                         0D377h:        INC     HL
D378: CB 7E                             BIT     7,(HL)
D37A: 28 EA                             JR      Z,0D366h

                                        ; Referenced from 0D375h
D37C: FD 2A 06 02                0D37Ch:        LD      IY,(0206h)
D380: FD CB 00 FE                       SET     7,(IY+00h)
D384: C9                                RET

                                        ; Entry Point
                                        ; --- START PROC 0D385h ---
D385: CD 57 D2                   0D385h:        CALL    0D257h
D388: 11 D1 AB                          LD      DE,0ABD1h       ; address or value?
D38B: CD 5B E3                          CALL    0E35Bh
D38E: 22 0C 02                          LD      (020Ch),HL
D391: 3E 01                             LD      A,01h
D393: 32 0B 02                          LD      (020Bh),A
D396: 3E 06                             LD      A,06h
D398: 32 0A 02                          LD      (020Ah),A
D39B: 18 B1                             JR      0D34Eh

                                        ; Referenced from 0D1E1h
                                        ; --- START PROC 0D39Dh ---
D39D: 44                         0D39Dh:        LD      B,H
D39E: 4D                                LD      C,L
D39F: CD EA D3                          CALL    0D3EAh
D3A2: CD 51 D3                          CALL    0D351h
D3A5: 22 06 02                          LD      (0206h),HL
D3A8: CD C0 D3                          CALL    0D3C0h
D3AB: 21 C5 AB                          LD      HL,0ABC5h       ; address or value?
D3AE: ED 5B 06 02                       LD      DE,(0206h)
D3B2: ED B0                             LDIR
D3B4: 2A 06 02                          LD      HL,(0206h)
D3B7: CB FE                             SET     7,(HL)
D3B9: C3 4E D2                          JP      0D24Eh

                                        ; Referenced from 0D423h, 0D487h
                                        ; Entry Point
                                        ; --- START PROC 0D3BCh ---
D3BC: ED 5B 00 02                0D3BCh:        LD      DE,(0200h)

                                        ; Referenced from 0D3A8h
                                        ; --- START PROC 0D3C0h ---
D3C0: 62                         0D3C0h:        LD      H,D
D3C1: 6B                                LD      L,E
D3C2: A7                                AND     A
D3C3: ED 4A                             ADC     HL,BC
D3C5: C5                                PUSH    BC
D3C6: 22 00 02                          LD      (0200h),HL
D3C9: 62                                LD      H,D
D3CA: 6B                                LD      L,E
D3CB: ED 4B 06 02                       LD      BC,(0206h)
D3CF: A7                                AND     A
D3D0: ED 42                             SBC     HL,BC
D3D2: 23                                INC     HL
D3D3: 44                                LD      B,H
D3D4: 4D                                LD      C,L
D3D5: 62                                LD      H,D
D3D6: 6B                                LD      L,E
D3D7: ED 5B 00 02                       LD      DE,(0200h)
D3DB: ED B8                             LDDR
D3DD: C1                                POP     BC
D3DE: C9                                RET

                                        ; Entry Point
                                        ; --- START PROC 0D3DFh ---
D3DF: CD 57 D2                   0D3DFh:        CALL    0D257h
D3E2: 3E 09                             LD      A,09h
D3E4: 32 0A 02                          LD      (020Ah),A
D3E7: C3 92 D1                          JP      0D192h

                                        ; Referenced from 0D40Eh, 0D47Fh, 0D808h, 0D238h, 0D39Fh
                                        ; --- START PROC 0D3EAh ---
D3EA: 2A 04 02                   0D3EAh:        LD      HL,(0204h)
D3ED: ED 5B 00 02                       LD      DE,(0200h)
D3F1: A7                                AND     A
D3F2: ED 52                             SBC     HL,DE
D3F4: F2 0A D4                          JP      P,0D40Ah
D3F7: CD 4B EC                          CALL    0EC4Bh
D3FA: 21 46 D1                          LD      HL,0D146h       ; address or value?
D3FD: 11 C5 AB                          LD      DE,0ABC5h       ; address or value?
D400: 01 0D 00                          LD      BC,000Dh        ; address or value?
D403: ED B0                             LDIR
D405: E1                                POP     HL
D406: 21 92 D1                          LD      HL,0D192h       ; address or value?
D409: E5                                PUSH    HL

                                        ; Referenced from 0D3F4h
                                        ; --- START PROC 0D40Ah ---
D40A: C9                         0D40Ah:        RET

                                        ; Entry Point
                                        ; --- START PROC 0D40Bh ---
D40B: CD 57 D2                   0D40Bh:        CALL    0D257h
D40E: CD EA D3                          CALL    0D3EAh
D411: 11 D3 AB                          LD      DE,0ABD3h       ; address or value?
D414: CD 5B E3                          CALL    0E35Bh
D417: 44                                LD      B,H
D418: 4D                                LD      C,L
D419: CD 51 D3                          CALL    0D351h
D41C: 22 06 02                          LD      (0206h),HL
D41F: ED 5B 00 02                       LD      DE,(0200h)
D423: CD BC D3                          CALL    0D3BCh
D426: ED 5B 06 02                       LD      DE,(0206h)
D42A: 21 D3 AB                          LD      HL,0ABD3h       ; address or value?
D42D: ED B0                             LDIR
D42F: 06 02                             LD      B,02h

                                        ; Referenced from 0D46Fh
                                        ; --- START PROC 0D431h ---
D431: CD F8 D2                   0D431h:        CALL    0D2F8h
D434: C3 91 D2                          JP      0D291h

                                        ; Referenced from 0D463h
                                        ; Entry Point
                                        ; --- START PROC 0D437h ---
D437: 2A 06 02                   0D437h:        LD      HL,(0206h)

                                        ; Referenced from 0D4D0h
                                        ; --- START PROC 0D43Ah ---
D43A: 54                         0D43Ah:        LD      D,H
D43B: 5D                                LD      E,L
D43C: A7                                AND     A
D43D: ED 4A                             ADC     HL,BC
D43F: E5                                PUSH    HL
D440: 44                                LD      B,H
D441: 4D                                LD      C,L
D442: 2A 00 02                          LD      HL,(0200h)
D445: A7                                AND     A
D446: ED 42                             SBC     HL,BC
D448: 23                                INC     HL
D449: 44                                LD      B,H
D44A: 4D                                LD      C,L
D44B: E1                                POP     HL
D44C: ED B0                             LDIR
D44E: 1B                                DEC     DE
D44F: ED 53 00 02                       LD      (0200h),DE
D453: C9                                RET

                                        ; Entry Point
                                        ; --- START PROC 0D454h ---
D454: CD 57 D2                   0D454h:        CALL    0D257h
D457: 01 00 00                          LD      BC,0000h        ; address or value?
D45A: 2A 06 02                          LD      HL,(0206h)

                                        ; Referenced from 0D461h
D45D: 23                         0D45Dh:        INC     HL
D45E: 03                                INC     BC
D45F: CB 7E                             BIT     7,(HL)
D461: 28 FA                             JR      Z,0D45Dh
D463: CD 37 D4                          CALL    0D437h
D466: 2A 08 02                          LD      HL,(0208h)
D469: 2B                                DEC     HL
D46A: 22 08 02                          LD      (0208h),HL

                                        ; Referenced from 0D4EDh
                                        ; --- START PROC 0D46Dh ---
D46D: 06 01                      0D46Dh:        LD      B,01h
D46F: 18 C0                             JR      0D431h

                                        ; Referenced from 0D483h, 0D48Ah
                                        ; Entry Point
                                        ; --- START PROC 0D471h ---
D471: 21 06 02                   0D471h:        LD      HL,0206h    ; address or value?
D474: 11 12 02                          LD      DE,0212h        ; address or value?
D477: 06 02                             LD      B,02h
D479: CD 80 EC                          CALL    0EC80h
D47C: C9                                RET

                                        ; Referenced from 0D4BFh
                                        ; Entry Point
                                        ; --- START PROC 0D47Dh ---
D47D: 44                         0D47Dh:        LD      B,H
D47E: 4D                                LD      C,L
D47F: CD EA D3                          CALL    0D3EAh
D482: C5                                PUSH    BC
D483: CD 71 D4                          CALL    0D471h
D486: C1                                POP     BC
D487: CD BC D3                          CALL    0D3BCh
D48A: CD 71 D4                          CALL    0D471h
D48D: 18 44                             JR      0D4D3h

                                        ; Entry Point
                                        ; --- START PROC 0D48Fh ---
D48F: CD 57 D2                   0D48Fh:        CALL    0D257h
D492: 11 D3 AB                          LD      DE,0ABD3h       ; address or value?
D495: CD 5B E3                          CALL    0E35Bh
D498: 22 0C 02                          LD      (020Ch),HL
D49B: 11 D3 AB                          LD      DE,0ABD3h       ; address or value?
D49E: 37                                SCF
D49F: ED 5A                             ADC     HL,DE
D4A1: 22 0E 02                          LD      (020Eh),HL
D4A4: CD 5D D3                          CALL    0D35Dh
D4A7: 18 47                             JR      0D4F0h

                                        ; Entry Point
                                        ; --- START PROC 0D4A9h ---
D4A9: 22 12 02                   0D4A9h:        LD      (0212h),HL
D4AC: ED 5B 0E 02                       LD      DE,(020Eh)
D4B0: CD 5B E3                          CALL    0E35Bh
D4B3: 22 10 02                          LD      (0210h),HL

                                        ; Referenced from 0D51Dh
                                        ; --- START PROC 0D4B6h ---
D4B6: ED 5B 0C 02                0D4B6h:        LD      DE,(020Ch)
D4BA: A7                                AND     A
D4BB: ED 52                             SBC     HL,DE
D4BD: 28 14                             JR      Z,0D4D3h
D4BF: F2 7D D4                          JP      P,0D47Dh
D4C2: 62                                LD      H,D
D4C3: 6B                                LD      L,E
D4C4: ED 5B 10 02                       LD      DE,(0210h)
D4C8: A7                                AND     A
D4C9: ED 52                             SBC     HL,DE
D4CB: 44                                LD      B,H
D4CC: 4D                                LD      C,L
D4CD: 2A 12 02                          LD      HL,(0212h)
D4D0: CD 3A D4                          CALL    0D43Ah

                                        ; Referenced from 0D48Dh, 0D4BDh
                                        ; --- START PROC 0D4D3h ---
D4D3: ED 4B 10 02                0D4D3h:        LD      BC,(0210h)
D4D7: 21 00 00                          LD      HL,0000h        ; address or value?
D4DA: A7                                AND     A
D4DB: ED 4A                             ADC     HL,BC
D4DD: 28 09                             JR      Z,0D4E8h
D4DF: 2A 0E 02                          LD      HL,(020Eh)
D4E2: ED 5B 12 02                       LD      DE,(0212h)
D4E6: ED B0                             LDIR

                                        ; Referenced from 0D4DDh
D4E8: 2A 06 02                   0D4E8h:        LD      HL,(0206h)
D4EB: CB FE                             SET     7,(HL)
D4ED: C3 6D D4                          JP      0D46Dh

                                        ; Referenced from 0D4A7h
                                        ; --- START PROC 0D4F0h ---
D4F0: 3E 03                      0D4F0h:        LD      A,03h
D4F2: C3 A2 D1                          JP      0D1A2h

                                        ; Entry Point
                                        ; --- START PROC 0D4F5h ---
D4F5: CD 57 D2                   0D4F5h:        CALL    0D257h
D4F8: 11 D2 AB                          LD      DE,0ABD2h       ; address or value?
D4FB: ED 53 0E 02                       LD      (020Eh),DE
D4FF: CD 5B E3                          CALL    0E35Bh
D502: 22 10 02                          LD      (0210h),HL
D505: 2A 06 02                          LD      HL,(0206h)
D508: 22 12 02                          LD      (0212h),HL
D50B: CB BE                             RES     7,(HL)
D50D: 01 00 00                          LD      BC,0000h        ; address or value?

                                        ; Referenced from 0D514h
D510: 23                         0D510h:        INC     HL
D511: 03                                INC     BC
D512: CB 7E                             BIT     7,(HL)
D514: 28 FA                             JR      Z,0D510h
D516: ED 43 0C 02                       LD      (020Ch),BC
D51A: 2A 10 02                          LD      HL,(0210h)
D51D: 18 97                             JR      0D4B6h

                                        ; Referenced from 0D538h, 0D73Fh
                                        ; Entry Point
                                        ; --- START PROC 0D51Fh ---
D51F: 3E FF                      0D51Fh:        LD      A,0FFh
D521: 32 FF AB                          LD      (0ABFFh),A
D524: E5                                PUSH    HL
D525: 2A 35 02                          LD      HL,(0235h)

                                        ; Referenced from 0D532h
D528: BE                         0D528h:        CP      (HL)
D529: 20 04                             JR      NZ,0D52Fh
D52B: 36 20                             LD      (HL),20h        ; ' '
D52D: E1                                POP     HL
D52E: C9                                RET

                                        ; Referenced from 0D529h
D52F: 36 20                      0D52Fh:        LD      (HL),20h    ; ' '
D531: 23                                INC     HL
D532: 18 F4                             JR      0D528h

                                        ; Referenced from 0D618h, 0D64Eh
                                        ; Entry Point
                                        ; --- START PROC 0D534h ---
D534: ED 5B 35 02                0D534h:        LD      DE,(0235h)
D538: CD 1F D5                          CALL    0D51Fh
D53B: CD 27 D7                          CALL    0D727h
D53E: E5                                PUSH    HL
D53F: 21 FE AB                          LD      HL,0ABFEh       ; address or value?
D542: CD 5E E3                          CALL    0E35Eh
D545: E1                                POP     HL
D546: 3A 39 02                          LD      A,(0239h)
D549: 3C                                INC     A
D54A: 32 39 02                          LD      (0239h),A
D54D: 1A                                LD      A,(DE)
D54E: C9                                RET

                                        ; Referenced from 0D5B7h, 0D704h, 0D692h, 0D6B7h
                                        ; Entry Point
                                        ; --- START PROC 0D54Fh ---
D54F: 2A 06 02                   0D54Fh:        LD      HL,(0206h)
D552: 04                                INC     B
D553: 05                                DEC     B
D554: 20 05                             JR      NZ,0D55Bh

                                        ; Referenced from 0D572h, 0D587h
D556: C1                         0D556h:        POP     BC
D557: 03                                INC     BC
D558: 03                                INC     BC
D559: C5                                PUSH    BC
D55A: C9                                RET

                                        ; Referenced from 0D554h
D55B: FA 75 D5                   0D55Bh:        JP      M,0D575h

                                        ; Referenced from 0D561h, 0D56Dh
D55E: 23                         0D55Eh:        INC     HL
D55F: CB 7E                             BIT     7,(HL)
D561: 28 FB                             JR      Z,0D55Eh
D563: E5                                PUSH    HL
D564: ED 5B 00 02                       LD      DE,(0200h)
D568: A7                                AND     A
D569: ED 52                             SBC     HL,DE
D56B: E1                                POP     HL
D56C: C8                                RET     Z
D56D: 10 EF                             DJNZ    0D55Eh

                                        ; Referenced from 0D58Ch
D56F: 22 06 02                   0D56Fh:        LD      (0206h),HL
D572: C3 56 D5                          JP      0D556h

                                        ; Referenced from 0D55Bh
D575: 78                         0D575h:        LD      A,B
D576: 2F                                CPL
D577: 3C                                INC     A
D578: 47                                LD      B,A

                                        ; Referenced from 0D57Ch, 0D58Ah
D579: 2B                         0D579h:        DEC     HL
D57A: CB 7E                             BIT     7,(HL)
D57C: 28 FB                             JR      Z,0D579h
D57E: E5                                PUSH    HL
D57F: A7                                AND     A
D580: ED 5B 37 02                       LD      DE,(0237h)
D584: ED 52                             SBC     HL,DE
D586: E1                                POP     HL
D587: FA 56 D5                          JP      M,0D556h
D58A: 10 ED                             DJNZ    0D579h
D58C: 18 E1                             JR      0D56Fh

                                        ; Referenced from 0D5BAh
                                        ; Entry Point
                                        ; --- START PROC 0D58Eh ---
D58E: C1                         0D58Eh:        POP     BC
D58F: C3 B7 D1                          JP      0D1B7h

                                        ; Entry Point
                                        ; --- START PROC 0D592h ---
D592: 2A 02 02                   0D592h:        LD      HL,(0202h)
D595: ED 4B 00 02                       LD      BC,(0200h)
D599: A7                                AND     A
D59A: ED 42                             SBC     HL,BC
D59C: CA B7 D1                          JP      Z,0D1B7h
D59F: AF                                XOR     A
D5A0: 32 16 02                          LD      (0216h),A
D5A3: 32 15 02                          LD      (0215h),A
D5A6: 2A 02 02                          LD      HL,(0202h)
D5A9: 7E                                LD      A,(HL)
D5AA: FE A4                             CP      0A4h
D5AC: C2 B7 D1                          JP      NZ,0D1B7h
D5AF: 22 06 02                          LD      (0206h),HL
D5B2: 06 29                             LD      B,29h   ; ')'

                                        ; Referenced from 0D5CCh
                                        ; --- START PROC 0D5B4h ---
D5B4: C5                         0D5B4h:        PUSH    BC
D5B5: 06 01                             LD      B,01h
D5B7: CD 4F D5                          CALL    0D54Fh
D5BA: 18 D2                             JR      0D58Eh

                                        ; Entry Point
                                        ; --- START PROC 0D5BCh ---
D5BC: 2A 06 02                   0D5BCh:        LD      HL,(0206h)
D5BF: 7E                                LD      A,(HL)
D5C0: FE A4                             CP      0A4h
D5C2: 28 2E                             JR      Z,0D5F2h
D5C4: 3A 15 02                          LD      A,(0215h)
D5C7: 3C                                INC     A
D5C8: 32 15 02                          LD      (0215h),A
D5CB: C1                                POP     BC
D5CC: 10 E6                             DJNZ    0D5B4h
D5CE: C3 B7 D1                          JP      0D1B7h

                                        ; Referenced from 0D5E8h
D5D1: 3E 2E                      0D5D1h:        LD      A,2Eh   ; '.'
D5D3: 12                                LD      (DE),A
D5D4: 18 55                             JR      0D62Bh

                                        ; Referenced from 0D61Dh
D5D6: 3A 39 02                   0D5D6h:        LD      A,(0239h)
D5D9: FD 77 00                          LD      (IY+00h),A
D5DC: FD 23                             INC     IY
D5DE: E5                                PUSH    HL
D5DF: FD E5                             PUSH    IY
D5E1: E1                                POP     HL
D5E2: 7D                                LD      A,L
D5E3: 21 2B 02                          LD      HL,022Bh        ; address or value?
D5E6: BD                                CP      L
D5E7: E1                                POP     HL
D5E8: 28 E7                             JR      Z,0D5D1h
D5EA: 13                                INC     DE
D5EB: 13                                INC     DE
D5EC: ED 53 35 02                       LD      (0235h),DE
D5F0: 18 21                             JR      0D613h

                                        ; Referenced from 0D5C2h
D5F2: 23                         0D5F2h:        INC     HL
D5F3: 22 37 02                          LD      (0237h),HL
D5F6: CD 40 EC                          CALL    0EC40h
D5F9: 11 C4 AB                          LD      DE,0ABC4h       ; address or value?
D5FC: 21 5D D1                          LD      HL,0D15Dh       ; address or value?
D5FF: CD 27 D7                          CALL    0D727h
D602: ED 53 35 02                       LD      (0235h),DE
D606: FD 21 17 02                       LD      IY,0217h        ; address or value?

                                        ; Referenced from 0D616h
D60A: 3E FF                      0D60Ah:        LD      A,0FFh
D60C: 32 39 02                          LD      (0239h),A
D60F: 2A 02 02                          LD      HL,(0202h)
D612: 23                                INC     HL

                                        ; Referenced from 0D621h, 0D5F0h
D613: 7E                         0D613h:        LD      A,(HL)
D614: FE A4                             CP      0A4h
D616: 28 F2                             JR      Z,0D60Ah
D618: CD 34 D5                          CALL    0D534h
D61B: FE 2C                             CP      2Ch     ; ','
D61D: 28 B7                             JR      Z,0D5D6h
D61F: FE 2E                             CP      2Eh     ; '.'
D621: 20 F0                             JR      NZ,0D613h
D623: 3A 39 02                          LD      A,(0239h)
D626: FD 77 00                          LD      (IY+00h),A
D629: FD 23                             INC     IY

                                        ; Referenced from 0D5D4h
D62B: 3E 80                      0D62Bh:        LD      A,80h
D62D: FD 77 00                          LD      (IY+00h),A
D630: CD 40 EC                          CALL    0EC40h
D633: 11 C4 AB                          LD      DE,0ABC4h       ; address or value?
D636: 21 53 D1                          LD      HL,0D153h       ; address or value?
D639: CD 27 D7                          CALL    0D727h
D63C: ED 53 35 02                       LD      (0235h),DE

                                        ; Referenced from 0D64Ch
D640: 3E FF                      0D640h:        LD      A,0FFh
D642: 32 39 02                          LD      (0239h),A
D645: 2A 02 02                          LD      HL,(0202h)
D648: 23                                INC     HL

                                        ; Referenced from 0D655h
D649: 7E                         0D649h:        LD      A,(HL)
D64A: FE A4                             CP      0A4h
D64C: 28 F2                             JR      Z,0D640h
D64E: CD 34 D5                          CALL    0D534h
D651: FE 2E                             CP      2Eh     ; '.'
D653: 28 02                             JR      Z,0D657h
D655: 18 F2                             JR      0D649h

                                        ; Referenced from 0D721h, 0D653h
                                        ; --- START PROC 0D657h ---
D657: CD 40 EC                   0D657h:        CALL    0EC40h

                                        ; Referenced from 0D695h, 0D6BAh
                                        ; --- START PROC 0D65Ah ---
D65A: CD 4B EC                   0D65Ah:        CALL    0EC4Bh
D65D: 21 C4 AB                          LD      HL,0ABC4h       ; address or value?
D660: 22 35 02                          LD      (0235h),HL
D663: 2A 37 02                          LD      HL,(0237h)
D666: 22 06 02                          LD      (0206h),HL
D669: 3E 3F                             LD      A,3Fh   ; '?'
D66B: 32 C4 AB                          LD      (0ABC4h),A
D66E: 11 C6 AB                          LD      DE,0ABC6h       ; address or value?
D671: CD 5B E3                          CALL    0E35Bh
D674: 3E 20                             LD      A,20h   ; ' '
D676: 32 C4 AB                          LD      (0ABC4h),A
D679: 3A B6 00                          LD      A,(00B6h)
D67C: FE 00                             CP      00h
D67E: C2 A2 D1                          JP      NZ,0D1A2h
D681: 3A C6 AB                          LD      A,(0ABC6h)
D684: FE 20                             CP      20h     ; ' '
D686: 20 22                             JR      NZ,0D6AAh
D688: 2A 2F 02                          LD      HL,(022Fh)
D68B: 22 06 02                          LD      (0206h),HL
D68E: 3A 15 02                          LD      A,(0215h)
D691: 47                                LD      B,A
D692: CD 4F D5                          CALL    0D54Fh
D695: 18 C3                             JR      0D65Ah

                                        ; Entry Point
                                        ; --- START PROC 0D697h ---
D697: 21 3A 02                   0D697h:        LD      HL,023Ah    ; address or value?
D69A: 11 C6 AB                          LD      DE,0ABC6h       ; address or value?
D69D: 01 1E 00                          LD      BC,001Eh        ; address or value?
D6A0: ED B0                             LDIR
D6A2: 3A 39 02                          LD      A,(0239h)
D6A5: 32 16 02                          LD      (0216h),A
D6A8: 18 12                             JR      0D6BCh

                                        ; Referenced from 0D686h
                                        ; --- START PROC 0D6AAh ---
D6AA: 45                         0D6AAh:        LD      B,L
D6AB: 48                                LD      C,B
D6AC: ED 43 33 02                       LD      (0233h),BC
D6B0: 3A 39 02                          LD      A,(0239h)
D6B3: 32 16 02                          LD      (0216h),A

                                        ; Referenced from 0D6DBh
                                        ; --- START PROC 0D6B6h ---
D6B6: 47                         0D6B6h:        LD      B,A
D6B7: CD 4F D5                          CALL    0D54Fh
D6BA: 18 9E                             JR      0D65Ah

                                        ; Referenced from 0D6A8h
                                        ; --- START PROC 0D6BCh ---
D6BC: ED 4B 33 02                0D6BCh:        LD      BC,(0233h)
D6C0: 11 C6 AB                          LD      DE,0ABC6h       ; address or value?
D6C3: 2A 06 02                          LD      HL,(0206h)
D6C6: CB BE                             RES     7,(HL)
D6C8: CD 49 E3                          CALL    0E349h
D6CB: 22 31 02                          LD      (0231h),HL
D6CE: 2A 06 02                          LD      HL,(0206h)
D6D1: 22 2F 02                          LD      (022Fh),HL
D6D4: CB FE                             SET     7,(HL)
D6D6: 28 05                             JR      Z,0D6DDh

                                        ; Referenced from 0D6E2h
D6D8: 3A 15 02                   0D6D8h:        LD      A,(0215h)
D6DB: 18 D9                             JR      0D6B6h

                                        ; Referenced from 0D6D6h
D6DD: 2A 31 02                   0D6DDh:        LD      HL,(0231h)
D6E0: CB 7E                             BIT     7,(HL)
D6E2: 28 F4                             JR      Z,0D6D8h
D6E4: 21 C6 AB                          LD      HL,0ABC6h       ; address or value?
D6E7: 11 3A 02                          LD      DE,023Ah        ; address or value?
D6EA: 01 1E 00                          LD      BC,001Eh        ; address or value?
D6ED: ED B0                             LDIR
D6EF: CD 4B EC                          CALL    0EC4Bh
D6F2: FD 21 17 02                       LD      IY,0217h        ; address or value?

                                        ; Referenced from 0D71Fh
                                        ; --- START PROC 0D6F6h ---
D6F6: FD 7E 00                   0D6F6h:        LD      A,(IY+00h)
D6F9: 21 16 02                          LD      HL,0216h        ; address or value?
D6FC: 96                                SUB     (HL)
D6FD: 47                                LD      B,A
D6FE: FD 7E 00                          LD      A,(IY+00h)
D701: 32 16 02                          LD      (0216h),A
D704: CD 4F D5                          CALL    0D54Fh

                                        ; Referenced from 0D707h
D707: 18 FE                      0D707h:        JR      0D707h

                                        ; Entry Point
                                        ; --- START PROC 0D709h ---
D709: 2A 06 02                   0D709h:        LD      HL,(0206h)
D70C: ED 5B 35 02                       LD      DE,(0235h)
D710: CD 27 D7                          CALL    0D727h
D713: 13                                INC     DE
D714: ED 53 35 02                       LD      (0235h),DE
D718: FD 23                             INC     IY
D71A: FD 7E 00                          LD      A,(IY+00h)
D71D: FE 80                             CP      80h
D71F: 20 D5                             JR      NZ,0D6F6h
D721: C3 57 D6                          JP      0D657h

                                        ; Entry Point
                                        ; --- START PROC 0D724h ---
D724: C3 03 E0                   0D724h:        JP      0E003h

                                        ; Referenced from 0D53Bh, 0D710h, 0D5FFh, 0D639h, 0D74Dh
                                        ; --- START PROC 0D727h ---
D727: E5                         0D727h:        PUSH    HL
D728: D5                                PUSH    DE

                                        ; Referenced from 0D739h
D729: 01 FC AB                   0D729h:        LD      BC,0ABFCh   ; address or value?
D72C: 7B                                LD      A,E
D72D: B9                                CP      C
D72E: F2 3E D7                          JP      P,0D73Eh
D731: 7E                                LD      A,(HL)
D732: CB BF                             RES     7,A
D734: 12                                LD      (DE),A
D735: 13                                INC     DE
D736: 23                                INC     HL
D737: CB 7E                             BIT     7,(HL)
D739: 28 EE                             JR      Z,0D729h
D73B: C1                                POP     BC
D73C: C1                                POP     BC
D73D: C9                                RET

                                        ; Referenced from 0D72Eh
D73E: D1                         0D73Eh:        POP     DE
D73F: CD 1F D5                          CALL    0D51Fh
D742: CD 40 EC                          CALL    0EC40h
D745: E1                                POP     HL
D746: 11 C4 AB                          LD      DE,0ABC4h       ; address or value?
D749: ED 53 35 02                       LD      (0235h),DE
D74D: 18 D8                             JR      0D727h

                                        ; Referenced from 0D830h, 0D83Ch
                                        ; Entry Point
                                        ; --- START PROC 0D74Fh ---
D74F: 2A 08 02                   0D74Fh:        LD      HL,(0208h)
D752: ED 4B 12 01                       LD      BC,(0112h)
D756: 09                                ADD     HL,BC
D757: 22 08 02                          LD      (0208h),HL

                                        ; Referenced from 0D763h, 0D7B7h, 0D7E0h
                                        ; --- START PROC 0D75Ah ---
D75A: 01 BF 03                   0D75Ah:        LD      BC,03BFh    ; address or value?
D75D: 21 00 A8                          LD      HL,0A800h       ; address or value?
D760: C3 F8 E7                          JP      0E7F8h

                                        ; Entry Point
                                        ; --- START PROC 0D763h ---
D763: CD 5A D7                   0D763h:        CALL    0D75Ah
D766: 21 40 03                          LD      HL,0340h        ; address or value?
D769: 22 FC 00                          LD      (00FCh),HL
D76C: 21 00 A8                          LD      HL,0A800h       ; address or value?
D76F: 22 FA 00                          LD      (00FAh),HL
D772: 22 00 01                          LD      (0100h),HL
D775: AF                                XOR     A
D776: 32 02 01                          LD      (0102h),A
D779: 21 00 00                          LD      HL,0000h        ; address or value?
D77C: 22 05 01                          LD      (0105h),HL
D77F: 2A 02 02                          LD      HL,(0202h)
D782: 22 03 01                          LD      (0103h),HL

                                        ; Referenced from 0D7ACh, 0D7B2h
D785: 2A 03 01                   0D785h:        LD      HL,(0103h)
D788: 01 00 00                          LD      BC,0000h        ; address or value?

                                        ; Referenced from 0D78Fh
D78B: 23                         0D78Bh:        INC     HL
D78C: 03                                INC     BC
D78D: CB 7E                             BIT     7,(HL)
D78F: 28 FA                             JR      Z,0D78Bh
D791: 22 06 02                          LD      (0206h),HL
D794: ED 43 FE 00                       LD      (00FEh),BC
D798: CD 02 E7                          CALL    0E702h
D79B: 2A 03 01                          LD      HL,(0103h)
D79E: ED 5B 06 02                       LD      DE,(0206h)
D7A2: ED 53 03 01                       LD      (0103h),DE
D7A6: 22 06 02                          LD      (0206h),HL
D7A9: 7E                                LD      A,(HL)
D7AA: FE AF                             CP      0AFh
D7AC: 20 D7                             JR      NZ,0D785h
D7AE: 23                                INC     HL
D7AF: 7E                                LD      A,(HL)
D7B0: FE 2A                             CP      2Ah     ; '*'
D7B2: 20 D1                             JR      NZ,0D785h
D7B4: CD D4 E6                          CALL    0E6D4h
D7B7: CD 5A D7                          CALL    0D75Ah
D7BA: CD 40 EC                          CALL    0EC40h
D7BD: 21 DD E2                          LD      HL,0E2DDh       ; address or value?

                                        ; Referenced from 0D839h
                                        ; --- START PROC 0D7C0h ---
D7C0: 01 09 00                   0D7C0h:        LD      BC,0009h    ; address or value?
D7C3: 11 C5 AB                          LD      DE,0ABC5h       ; address or value?
D7C6: ED B0                             LDIR
D7C8: CD 40 EC                          CALL    0EC40h
D7CB: 2A 06 02                          LD      HL,(0206h)
D7CE: 23                                INC     HL
D7CF: CD BD E0                          CALL    0E0BDh

                                        ; Referenced from 0D84Ah
                                        ; --- START PROC 0D7D2h ---
D7D2: 21 00 00                   0D7D2h:        LD      HL,0000h    ; address or value?
D7D5: 22 06 02                          LD      (0206h),HL
D7D8: CD 40 EC                          CALL    0EC40h
D7DB: 3E 13                             LD      A,13h
D7DD: C3 A2 D1                          JP      0D1A2h

                                        ; Entry Point
                                        ; --- START PROC 0D7E0h ---
D7E0: CD 5A D7                   0D7E0h:        CALL    0D75Ah
D7E3: 21 3C D8                          LD      HL,0D83Ch       ; address or value?
D7E6: 22 14 01                          LD      (0114h),HL
D7E9: 21 00 A8                          LD      HL,0A800h       ; address or value?
D7EC: 22 07 01                          LD      (0107h),HL
D7EF: 21 40 03                          LD      HL,0340h        ; address or value?
D7F2: 22 09 01                          LD      (0109h),HL
D7F5: AF                                XOR     A
D7F6: 32 0F 01                          LD      (010Fh),A
D7F9: 21 00 00                          LD      HL,0000h        ; address or value?
D7FC: 22 0D 01                          LD      (010Dh),HL
D7FF: 22 12 01                          LD      (0112h),HL
D802: 2A 00 02                          LD      HL,(0200h)
D805: 22 10 01                          LD      (0110h),HL

                                        ; Referenced from 0D828h, 0D82Eh
D808: CD EA D3                   0D808h:        CALL    0D3EAh
D80B: CD 78 E7                          CALL    0E778h
D80E: 2A 10 01                          LD      HL,(0110h)
D811: CB FE                             SET     7,(HL)
D813: E5                                PUSH    HL
D814: 22 06 02                          LD      (0206h),HL
D817: ED 4B 0B 01                       LD      BC,(010Bh)
D81B: 09                                ADD     HL,BC
D81C: CB FE                             SET     7,(HL)
D81E: 22 10 01                          LD      (0110h),HL
D821: 22 00 02                          LD      (0200h),HL
D824: E1                                POP     HL
D825: 7E                                LD      A,(HL)
D826: FE AF                             CP      0AFh
D828: 20 DE                             JR      NZ,0D808h
D82A: 23                                INC     HL
D82B: 7E                                LD      A,(HL)
D82C: FE 2A                             CP      2Ah     ; '*'
D82E: 20 D8                             JR      NZ,0D808h
D830: CD 4F D7                          CALL    0D74Fh
D833: CD 40 EC                          CALL    0EC40h
D836: 21 F5 E0                          LD      HL,0E0F5h       ; address or value?
D839: C3 C0 D7                          JP      0D7C0h

                                        ; Entry Point
                                        ; --- START PROC 0D83Ch ---
D83C: CD 4F D7                   0D83Ch:        CALL    0D74Fh
D83F: 21 D5 E0                          LD      HL,0E0D5h       ; address or value?
D842: 11 C5 AB                          LD      DE,0ABC5h       ; address or value?
D845: 01 0A 00                          LD      BC,000Ah        ; address or value?
D848: ED B0                             LDIR
D84A: C3 D2 D7                          JP      0D7D2h

                                        ; Entry Point
                                        ; --- START PROC 0D84Dh ---
D84D: 21 08 02                   0D84Dh:        LD      HL,0208h    ; address or value?
D850: 11 5E 02                          LD      DE,025Eh        ; address or value?
D853: D5                                PUSH    DE
D854: CD A3 E6                          CALL    0E6A3h
D857: E1                                POP     HL
D858: 11 58 02                          LD      DE,0258h        ; address or value?
D85B: D5                                PUSH    DE
D85C: CD AC E4                          CALL    0E4ACh
D85F: E1                                POP     HL
D860: 11 D2 AB                          LD      DE,0ABD2h       ; address or value?
D863: CD F2 E5                          CALL    0E5F2h
D866: 11 D8 AB                          LD      DE,0ABD8h       ; address or value?
D869: 21 39 D0                          LD      HL,0D039h       ; address or value?
D86C: 01 07 00                          LD      BC,0007h        ; address or value?
D86F: ED B0                             LDIR
D871: C3 92 D1                          JP      0D192h

                                        ; Entry Point
                                        ; --- START PROC 0D874h ---
D874: C3 68 D9                   0D874h:        JP      0D968h

D877: 30 20 20 31 20 20 32 20    0D877h:        DB      "0  1  2  3  4  5  6  7  8  9  A  B  C  D  E  F"
D87F: 20 33 20 20 34 20 20 35
D887: 20 20 36 20 20 37 20 20
D88F: 38 20 20 39 20 20 41 20
D897: 20 42 20 20 43 20 20 44
D89F: 20 20 45 20 20 46
D8A5: 80                                DB      80h
D8A6: 44 20 55 20 4D 20 50 20           DB      "D U M P  P R O G R A MINIZIO:FINE:OK ? (Y/N):YDUMP DI ALTRO1234567890ABCDEF"
D8AE: 20 50 20 52 20 4F 20 47
D8B6: 20 52 20 41 20 4D 49 4E
D8BE: 49 5A 49 4F 3A 46 49 4E
D8C6: 45 3A 4F 4B 20 3F 20 28
D8CE: 59 2F 4E 29 3A 59 44 55
D8D6: 4D 50 20 44 49 20 41 4C
D8DE: 54 52 4F 31 32 33 34 35
D8E6: 36 37 38 39 30 41 42 43
D8EE: 44 45 46
D8F1: 00                                DB      00h
D8F2: 16                                DB      16h
D8F3: 95                                DB      95h
D8F4: A8                                DB      0A8h
D8F5: A6                                DB      0A6h
D8F6: D8                                DB      0D8h
D8F7: 00                                DB      00h
D8F8: 07                                DB      07h
D8F9: 0A                                DB      0Ah
D8FA: AA                                DB      0AAh
D8FB: BC                                DB      0BCh
D8FC: D8                                DB      0D8h
D8FD: 00                                DB      00h
D8FE: 05                                DB      05h
D8FF: 20                                DB      20h     ; ' '
D900: AA                                DB      0AAh
D901: C3                                DB      0C3h
D902: D8                                DB      0D8h
D903: 11                                DB      11h
D904: 04                                DB      04h
D905: 12                                DB      12h
D906: AA                                DB      0AAh
D907: 16                                DB      16h
D908: 01                                DB      01h
D909: 22                                DB      22h     ; '"'
D90A: D9                                DB      0D9h
D90B: 11                                DB      11h
D90C: 04                                DB      04h
D90D: 26                                DB      26h     ; '&'
D90E: AA                                DB      0AAh
D90F: 16                                DB      16h
D910: 01                                DB      01h
D911: 22                                DB      22h     ; '"'
D912: D9                                DB      0D9h
D913: 00                                DB      00h
D914: 0B                                DB      0Bh
D915: CA                                DB      0CAh
D916: AA                                DB      0AAh
D917: C8                                DB      0C8h
D918: D8                                DB      0D8h
D919: 09                                DB      09h
D91A: 01                                DB      01h
D91B: D6                                DB      0D6h
D91C: AA                                DB      0AAh
D91D: F4                                DB      0F4h
D91E: 00                                DB      00h
D91F: D3                                DB      0D3h
D920: D8                                DB      0D8h
D921: FF                                DB      0FFh

                                        ; Entry Point
                                        ; --- START PROC 0D922h ---
D922: 21 E1 D8                   0D922h:        LD      HL,0D8E1h   ; address or value?
D925: 0E 10                             LD      C,10h
D927: 11 16 01                          LD      DE,0116h        ; address or value?
D92A: 06 04                             LD      B,04h
D92C: 1B                                DEC     DE

                                        ; Referenced from 0D939h
D92D: 13                         0D92Dh:        INC     DE
D92E: 1A                                LD      A,(DE)
D92F: E5                                PUSH    HL
D930: C5                                PUSH    BC
D931: 06 00                             LD      B,00h
D933: ED B1                             CPIR
D935: C1                                POP     BC
D936: E1                                POP     HL
D937: 20 03                             JR      NZ,0D93Ch
D939: 10 F2                             DJNZ    0D92Dh
D93B: BF                                CP      A

                                        ; Referenced from 0D937h
D93C: 37                         0D93Ch:        SCF
D93D: C0                                RET     NZ
D93E: 2A F2 00                          LD      HL,(00F2h)
D941: 22 F0 00                          LD      (00F0h),HL
D944: 21 16 01                          LD      HL,0116h        ; address or value?
D947: 11 F2 00                          LD      DE,00F2h        ; address or value?
D94A: 06 02                             LD      B,02h
D94C: CD F4 FF                          CALL    0FFF4h
D94F: 2A F2 00                          LD      HL,(00F2h)
D952: 7C                                LD      A,H
D953: 65                                LD      H,L
D954: 6F                                LD      L,A
D955: 22 F2 00                          LD      (00F2h),HL

                                        ; Referenced from 0D960h, 0D964h
                                        ; --- START PROC 0D958h ---
D958: 37                         0D958h:        SCF
D959: 3F                                CCF
D95A: C9                                RET

                                        ; Entry Point
                                        ; --- START PROC 0D95Bh ---
D95B: 3A F4 00                   0D95Bh:        LD      A,(00F4h)
D95E: FE 59                             CP      59h     ; 'Y'
D960: 28 F6                             JR      Z,0D958h
D962: FE 4E                             CP      4Eh     ; 'N'
D964: 28 F2                             JR      Z,0D958h
D966: 37                                SCF
D967: C9                                RET

                                        ; Referenced from 0D874h
                                        ; --- START PROC 0D968h ---
D968: 2A 31 01                   0D968h:        LD      HL,(0131h)
D96B: 01 00 01                          LD      BC,0100h        ; address or value?
D96E: ED 42                             SBC     HL,BC
D970: 22 1A 01                          LD      (011Ah),HL
D973: 22 1C 01                          LD      (011Ch),HL
D976: 21 C4 AB                          LD      HL,0ABC4h       ; address or value?
D979: 22 1E 01                          LD      (011Eh),HL
D97C: 3E 64                             LD      A,64h   ; 'd'
D97E: 32 20 01                          LD      (0120h),A
D981: AF                                XOR     A
D982: 32 23 01                          LD      (0123h),A
D985: 3A 24 01                          LD      A,(0124h)
D988: CB FF                             SET     7,A
D98A: 32 24 01                          LD      (0124h),A
D98D: CD 85 FF                          CALL    0FF85h

                                        ; Referenced from 0D9B8h, 0DA97h
                                        ; --- START PROC 0D990h ---
D990: CD EE FF                   0D990h:        CALL    0FFEEh
D993: 11 14 A8                          LD      DE,0A814h       ; address or value?
D996: 62                                LD      H,D
D997: 6B                                LD      L,E
D998: 36 A0                             LD      (HL),0A0h
D99A: 13                                INC     DE
D99B: 01 17 00                          LD      BC,0017h        ; address or value?
D99E: ED B0                             LDIR
D9A0: 11 D4 A8                          LD      DE,0A8D4h       ; address or value?
D9A3: 62                                LD      H,D
D9A4: 6B                                LD      L,E
D9A5: 36 A0                             LD      (HL),0A0h
D9A7: 13                                INC     DE
D9A8: 01 17 00                          LD      BC,0017h        ; address or value?
D9AB: ED B0                             LDIR
D9AD: 21 F1 D8                          LD      HL,0D8F1h       ; address or value?
D9B0: CD 64 FF                          CALL    0FF64h
D9B3: 3A F4 00                          LD      A,(00F4h)
D9B6: FE 59                             CP      59h     ; 'Y'
D9B8: 20 D6                             JR      NZ,0D990h
D9BA: 3A F0 00                          LD      A,(00F0h)
D9BD: E6 F0                             AND     0F0h
D9BF: 32 F0 00                          LD      (00F0h),A
D9C2: CD 58 DA                          CALL    0DA58h

                                        ; Referenced from 0DA55h
D9C5: 2A F2 00                   0D9C5h:        LD      HL,(00F2h)
D9C8: A7                                AND     A
D9C9: ED 5B F0 00                       LD      DE,(00F0h)
D9CD: ED 52                             SBC     HL,DE
D9CF: FA 75 DA                          JP      M,0DA75h
D9D2: 2A F0 00                          LD      HL,(00F0h)
D9D5: 7C                                LD      A,H
D9D6: 32 F7 00                          LD      (00F7h),A
D9D9: 7D                                LD      A,L
D9DA: 32 F8 00                          LD      (00F8h),A
D9DD: 06 02                             LD      B,02h
D9DF: 11 F7 00                          LD      DE,00F7h        ; address or value?
D9E2: 2A 1A 01                          LD      HL,(011Ah)
D9E5: 23                                INC     HL
D9E6: CD F1 FF                          CALL    0FFF1h
D9E9: 2A F0 00                          LD      HL,(00F0h)
D9EC: 2A 1A 01                          LD      HL,(011Ah)
D9EF: 11 3D 00                          LD      DE,003Dh        ; address or value?
D9F2: 19                                ADD     HL,DE
D9F3: EB                                EX      DE,HL
D9F4: 2A F0 00                          LD      HL,(00F0h)
D9F7: 01 10 00                          LD      BC,0010h        ; address or value?
D9FA: ED B0                             LDIR
D9FC: 2A F0 00                          LD      HL,(00F0h)
D9FF: 54                                LD      D,H
DA00: 5D                                LD      E,L
DA01: 06 10                             LD      B,10h
DA03: 21 D0 00                          LD      HL,00D0h        ; address or value?
DA06: CD F1 FF                          CALL    0FFF1h
DA09: 2A 1A 01                          LD      HL,(011Ah)
DA0C: 11 07 00                          LD      DE,0007h        ; address or value?
DA0F: 19                                ADD     HL,DE
DA10: EB                                EX      DE,HL
DA11: 21 D0 00                          LD      HL,00D0h        ; address or value?
DA14: 01 20 00                          LD      BC,0020h        ; address or value?
DA17: 3E 20                             LD      A,20h   ; ' '

                                        ; Referenced from 0DA1Fh
DA19: 12                         0DA19h:        LD      (DE),A
DA1A: 13                                INC     DE
DA1B: ED A0                             LDI
DA1D: ED A0                             LDI
DA1F: EA 19 DA                          JP      PE,0DA19h
DA22: 2A 1A 01                          LD      HL,(011Ah)
DA25: 01 3D 00                          LD      BC,003Dh        ; address or value?
DA28: 09                                ADD     HL,BC
DA29: 06 10                             LD      B,10h

                                        ; Referenced from 0DA3Eh
DA2B: 7E                         0DA2Bh:        LD      A,(HL)
DA2C: CB 7F                             BIT     7,A
DA2E: 20 0B                             JR      NZ,0DA3Bh
DA30: FE 7F                             CP      7Fh     ; ''
DA32: 28 07                             JR      Z,0DA3Bh
DA34: FE 20                             CP      20h     ; ' '
DA36: 28 05                             JR      Z,0DA3Dh
DA38: F2 3D DA                          JP      P,0DA3Dh

                                        ; Referenced from 0DA2Eh, 0DA32h
DA3B: 36 2E                      0DA3Bh:        LD      (HL),2Eh    ; '.'

                                        ; Referenced from 0DA36h, 0DA38h
DA3D: 23                         0DA3Dh:        INC     HL
DA3E: 10 EB                             DJNZ    0DA2Bh
DA40: 2A 1A 01                          LD      HL,(011Ah)
DA43: 36 02                             LD      (HL),02h
DA45: CD 88 FF                          CALL    0FF88h
DA48: 2A F0 00                          LD      HL,(00F0h)
DA4B: 01 10 00                          LD      BC,0010h        ; address or value?
DA4E: 09                                ADD     HL,BC
DA4F: 22 F0 00                          LD      (00F0h),HL
DA52: CD 58 DA                          CALL    0DA58h
DA55: C3 C5 D9                          JP      0D9C5h

                                        ; Referenced from 0D9C2h, 0DA52h
                                        ; --- START PROC 0DA58h ---
DA58: 3A 23 01                   0DA58h:        LD      A,(0123h)
DA5B: FE 00                             CP      00h
DA5D: C0                                RET     NZ
DA5E: 2A 1A 01                          LD      HL,(011Ah)
DA61: 36 03                             LD      (HL),03h
DA63: 2A 1A 01                          LD      HL,(011Ah)
DA66: 11 09 00                          LD      DE,0009h        ; address or value?
DA69: 19                                ADD     HL,DE
DA6A: EB                                EX      DE,HL
DA6B: 21 77 D8                          LD      HL,0D877h       ; address or value?
DA6E: CD E2 FF                          CALL    0FFE2h
DA71: CD 88 FF                          CALL    0FF88h
DA74: C9                                RET

                                        ; Referenced from 0D9CFh, 0DA9Ah
                                        ; --- START PROC 0DA75h ---
DA75: CD EE FF                   0DA75h:        CALL    0FFEEh
DA78: 01 0D 00                          LD      BC,000Dh        ; address or value?
DA7B: 21 D4 D8                          LD      HL,0D8D4h       ; address or value?
DA7E: 11 8B AB                          LD      DE,0AB8Bh       ; address or value?
DA81: ED B0                             LDIR
DA83: 01 09 00                          LD      BC,0009h        ; address or value?
DA86: 21 CA D8                          LD      HL,0D8CAh       ; address or value?
DA89: ED B0                             LDIR
DA8B: 13                                INC     DE
DA8C: CD CD FF                          CALL    0FFCDh
DA8F: 1A                                LD      A,(DE)
DA90: FE 4E                             CP      4Eh     ; 'N'
DA92: CA 61 FF                          JP      Z,0FF61h
DA95: FE 59                             CP      59h     ; 'Y'
DA97: CA 90 D9                          JP      Z,0D990h
DA9A: 18 D9                             JR      0DA75h

DA9C: FF                         0DA9Ch:        DB      0FFh
DA9D: FF                                DB      0FFh
DA9E: FF                                DB      0FFh
DA9F: FF                                DB      0FFh
DAA0: FF                                DB      0FFh
DAA1: FF                                DB      0FFh
DAA2: FF                                DB      0FFh
DAA3: FF                                DB      0FFh
DAA4: FF                                DB      0FFh
DAA5: FF                                DB      0FFh
DAA6: FF                                DB      0FFh
DAA7: FF                                DB      0FFh
DAA8: FF                                DB      0FFh
DAA9: FF                                DB      0FFh
DAAA: FF                                DB      0FFh
DAAB: FF                                DB      0FFh
DAAC: FF                                DB      0FFh
DAAD: FF                                DB      0FFh
DAAE: FF                                DB      0FFh
DAAF: FF                                DB      0FFh
DAB0: FF                                DB      0FFh
DAB1: FF                                DB      0FFh
DAB2: FF                                DB      0FFh
DAB3: FF                                DB      0FFh
DAB4: FF                                DB      0FFh
DAB5: FF                                DB      0FFh
DAB6: FF                                DB      0FFh
DAB7: FF                                DB      0FFh
DAB8: FF                                DB      0FFh
DAB9: FF                                DB      0FFh
DABA: FF                                DB      0FFh
DABB: FF                                DB      0FFh
DABC: FF                                DB      0FFh
DABD: FF                                DB      0FFh
DABE: FF                                DB      0FFh
DABF: FF                                DB      0FFh
DAC0: FF                                DB      0FFh
DAC1: FF                                DB      0FFh
DAC2: FF                                DB      0FFh
DAC3: FF                                DB      0FFh
DAC4: FF                                DB      0FFh
DAC5: FF                                DB      0FFh
DAC6: FF                                DB      0FFh
DAC7: FF                                DB      0FFh
DAC8: FF                                DB      0FFh
DAC9: FF                                DB      0FFh
DACA: FF                                DB      0FFh
DACB: FF                                DB      0FFh
DACC: FF                                DB      0FFh
DACD: FF                                DB      0FFh
DACE: FF                                DB      0FFh
DACF: FF                                DB      0FFh
DAD0: FF                                DB      0FFh
DAD1: FF                                DB      0FFh
DAD2: FF                                DB      0FFh
DAD3: FF                                DB      0FFh
DAD4: FF                                DB      0FFh
DAD5: FF                                DB      0FFh
DAD6: FF                                DB      0FFh
DAD7: FF                                DB      0FFh
DAD8: FF                                DB      0FFh
DAD9: FF                                DB      0FFh
DADA: FF                                DB      0FFh
DADB: FF                                DB      0FFh
DADC: FF                                DB      0FFh
DADD: FF                                DB      0FFh
DADE: FF                                DB      0FFh
DADF: FF                                DB      0FFh
DAE0: FF                                DB      0FFh
DAE1: FF                                DB      0FFh
DAE2: FF                                DB      0FFh
DAE3: FF                                DB      0FFh
DAE4: FF                                DB      0FFh
DAE5: FF                                DB      0FFh
DAE6: FF                                DB      0FFh
DAE7: FF                                DB      0FFh
DAE8: FF                                DB      0FFh
DAE9: FF                                DB      0FFh
DAEA: FF                                DB      0FFh
DAEB: FF                                DB      0FFh
DAEC: FF                                DB      0FFh
DAED: FF                                DB      0FFh
DAEE: FF                                DB      0FFh
DAEF: FF                                DB      0FFh
DAF0: FF                                DB      0FFh
DAF1: FF                                DB      0FFh
DAF2: FF                                DB      0FFh
DAF3: FF                                DB      0FFh
DAF4: FF                                DB      0FFh
DAF5: FF                                DB      0FFh
DAF6: FF                                DB      0FFh
DAF7: FF                                DB      0FFh
DAF8: FF                                DB      0FFh
DAF9: FF                                DB      0FFh
DAFA: FF                                DB      0FFh
DAFB: FF                                DB      0FFh
DAFC: FF                                DB      0FFh
DAFD: FF                                DB      0FFh
DAFE: FF                                DB      0FFh
DAFF: FF                                DB      0FFh
DB00: FF                                DB      0FFh
DB01: FF                                DB      0FFh
DB02: FF                                DB      0FFh
DB03: FF                                DB      0FFh
DB04: FF                                DB      0FFh
DB05: FF                                DB      0FFh
DB06: FF                                DB      0FFh
DB07: FF                                DB      0FFh
DB08: FF                                DB      0FFh
DB09: FF                                DB      0FFh
DB0A: FF                                DB      0FFh
DB0B: FF                                DB      0FFh
DB0C: FF                                DB      0FFh
DB0D: FF                                DB      0FFh
DB0E: FF                                DB      0FFh
DB0F: FF                                DB      0FFh
DB10: FF                                DB      0FFh
DB11: FF                                DB      0FFh
DB12: FF                                DB      0FFh
DB13: FF                                DB      0FFh
DB14: FF                                DB      0FFh
DB15: FF                                DB      0FFh
DB16: FF                                DB      0FFh
DB17: FF                                DB      0FFh
DB18: FF                                DB      0FFh
DB19: FF                                DB      0FFh
DB1A: FF                                DB      0FFh
DB1B: FF                                DB      0FFh
DB1C: FF                                DB      0FFh
DB1D: FF                                DB      0FFh
DB1E: FF                                DB      0FFh
DB1F: FF                                DB      0FFh
DB20: FF                                DB      0FFh
DB21: FF                                DB      0FFh
DB22: FF                                DB      0FFh
DB23: FF                                DB      0FFh
DB24: FF                                DB      0FFh
DB25: FF                                DB      0FFh
DB26: FF                                DB      0FFh
DB27: FF                                DB      0FFh
DB28: FF                                DB      0FFh
DB29: FF                                DB      0FFh
DB2A: FF                                DB      0FFh
DB2B: FF                                DB      0FFh
DB2C: FF                                DB      0FFh
DB2D: FF                                DB      0FFh
DB2E: FF                                DB      0FFh
DB2F: FF                                DB      0FFh
DB30: FF                                DB      0FFh
DB31: FF                                DB      0FFh
DB32: FF                                DB      0FFh
DB33: FF                                DB      0FFh
DB34: FF                                DB      0FFh
DB35: FF                                DB      0FFh
DB36: FF                                DB      0FFh
DB37: FF                                DB      0FFh
DB38: FF                                DB      0FFh
DB39: FF                                DB      0FFh
DB3A: FF                                DB      0FFh
DB3B: FF                                DB      0FFh
DB3C: FF                                DB      0FFh
DB3D: FF                                DB      0FFh
DB3E: FF                                DB      0FFh
DB3F: FF                                DB      0FFh
DB40: FF                                DB      0FFh
DB41: FF                                DB      0FFh
DB42: FF                                DB      0FFh
DB43: FF                                DB      0FFh
DB44: FF                                DB      0FFh
DB45: FF                                DB      0FFh
DB46: FF                                DB      0FFh
DB47: FF                                DB      0FFh
DB48: FF                                DB      0FFh
DB49: FF                                DB      0FFh
DB4A: FF                                DB      0FFh
DB4B: FF                                DB      0FFh
DB4C: FF                                DB      0FFh
DB4D: FF                                DB      0FFh
DB4E: FF                                DB      0FFh
DB4F: FF                                DB      0FFh
DB50: FF                                DB      0FFh
DB51: FF                                DB      0FFh
DB52: FF                                DB      0FFh
DB53: FF                                DB      0FFh
DB54: FF                                DB      0FFh
DB55: FF                                DB      0FFh
DB56: FF                                DB      0FFh
DB57: FF                                DB      0FFh
DB58: FF                                DB      0FFh
DB59: FF                                DB      0FFh
DB5A: FF                                DB      0FFh
DB5B: FF                                DB      0FFh
DB5C: FF                                DB      0FFh
DB5D: FF                                DB      0FFh
DB5E: FF                                DB      0FFh
DB5F: FF                                DB      0FFh
DB60: FF                                DB      0FFh
DB61: FF                                DB      0FFh
DB62: FF                                DB      0FFh
DB63: FF                                DB      0FFh
DB64: FF                                DB      0FFh
DB65: FF                                DB      0FFh
DB66: FF                                DB      0FFh
DB67: FF                                DB      0FFh
DB68: FF                                DB      0FFh
DB69: FF                                DB      0FFh
DB6A: FF                                DB      0FFh
DB6B: FF                                DB      0FFh
DB6C: FF                                DB      0FFh
DB6D: FF                                DB      0FFh
DB6E: FF                                DB      0FFh
DB6F: FF                                DB      0FFh
DB70: FF                                DB      0FFh
DB71: FF                                DB      0FFh
DB72: FF                                DB      0FFh
DB73: FF                                DB      0FFh
DB74: FF                                DB      0FFh
DB75: FF                                DB      0FFh
DB76: FF                                DB      0FFh
DB77: FF                                DB      0FFh
DB78: FF                                DB      0FFh
DB79: FF                                DB      0FFh
DB7A: FF                                DB      0FFh
DB7B: FF                                DB      0FFh
DB7C: FF                                DB      0FFh
DB7D: FF                                DB      0FFh
DB7E: FF                                DB      0FFh
DB7F: FF                                DB      0FFh
DB80: FF                                DB      0FFh
DB81: FF                                DB      0FFh
DB82: FF                                DB      0FFh
DB83: FF                                DB      0FFh
DB84: FF                                DB      0FFh
DB85: FF                                DB      0FFh
DB86: FF                                DB      0FFh
DB87: FF                                DB      0FFh
DB88: FF                                DB      0FFh
DB89: FF                                DB      0FFh
DB8A: FF                                DB      0FFh
DB8B: FF                                DB      0FFh
DB8C: FF                                DB      0FFh
DB8D: FF                                DB      0FFh
DB8E: FF                                DB      0FFh
DB8F: FF                                DB      0FFh
DB90: FF                                DB      0FFh
DB91: FF                                DB      0FFh
DB92: FF                                DB      0FFh
DB93: FF                                DB      0FFh
DB94: FF                                DB      0FFh
DB95: FF                                DB      0FFh
DB96: FF                                DB      0FFh
DB97: FF                                DB      0FFh
DB98: FF                                DB      0FFh
DB99: FF                                DB      0FFh
DB9A: FF                                DB      0FFh
DB9B: FF                                DB      0FFh
DB9C: FF                                DB      0FFh
DB9D: FF                                DB      0FFh
DB9E: FF                                DB      0FFh
DB9F: FF                                DB      0FFh
DBA0: FF                                DB      0FFh
DBA1: FF                                DB      0FFh
DBA2: FF                                DB      0FFh
DBA3: FF                                DB      0FFh
DBA4: FF                                DB      0FFh
DBA5: FF                                DB      0FFh
DBA6: FF                                DB      0FFh
DBA7: FF                                DB      0FFh
DBA8: FF                                DB      0FFh
DBA9: FF                                DB      0FFh
DBAA: FF                                DB      0FFh
DBAB: FF                                DB      0FFh
DBAC: FF                                DB      0FFh
DBAD: FF                                DB      0FFh
DBAE: FF                                DB      0FFh
DBAF: FF                                DB      0FFh
DBB0: FF                                DB      0FFh
DBB1: FF                                DB      0FFh
DBB2: FF                                DB      0FFh
DBB3: FF                                DB      0FFh
DBB4: FF                                DB      0FFh
DBB5: FF                                DB      0FFh
DBB6: FF                                DB      0FFh
DBB7: FF                                DB      0FFh
DBB8: FF                                DB      0FFh
DBB9: FF                                DB      0FFh
DBBA: FF                                DB      0FFh
DBBB: FF                                DB      0FFh
DBBC: FF                                DB      0FFh
DBBD: FF                                DB      0FFh
DBBE: FF                                DB      0FFh
DBBF: FF                                DB      0FFh
DBC0: FF                                DB      0FFh
DBC1: FF                                DB      0FFh
DBC2: FF                                DB      0FFh
DBC3: FF                                DB      0FFh
DBC4: FF                                DB      0FFh
DBC5: FF                                DB      0FFh
DBC6: FF                                DB      0FFh
DBC7: FF                                DB      0FFh
DBC8: FF                                DB      0FFh
DBC9: FF                                DB      0FFh
DBCA: FF                                DB      0FFh
DBCB: FF                                DB      0FFh
DBCC: FF                                DB      0FFh
DBCD: FF                                DB      0FFh
DBCE: FF                                DB      0FFh
DBCF: FF                                DB      0FFh
DBD0: FF                                DB      0FFh
DBD1: FF                                DB      0FFh
DBD2: FF                                DB      0FFh
DBD3: FF                                DB      0FFh
DBD4: FF                                DB      0FFh
DBD5: FF                                DB      0FFh
DBD6: FF                                DB      0FFh
DBD7: FF                                DB      0FFh
DBD8: FF                                DB      0FFh
DBD9: FF                                DB      0FFh
DBDA: FF                                DB      0FFh
DBDB: FF                                DB      0FFh
DBDC: FF                                DB      0FFh
DBDD: FF                                DB      0FFh
DBDE: FF                                DB      0FFh
DBDF: FF                                DB      0FFh
DBE0: FF                                DB      0FFh
DBE1: FF                                DB      0FFh
DBE2: FF                                DB      0FFh
DBE3: FF                                DB      0FFh
DBE4: FF                                DB      0FFh
DBE5: FF                                DB      0FFh
DBE6: FF                                DB      0FFh
DBE7: FF                                DB      0FFh
DBE8: FF                                DB      0FFh
DBE9: FF                                DB      0FFh
DBEA: FF                                DB      0FFh
DBEB: FF                                DB      0FFh
DBEC: FF                                DB      0FFh
DBED: FF                                DB      0FFh
DBEE: FF                                DB      0FFh
DBEF: FF                                DB      0FFh
DBF0: FF                                DB      0FFh
DBF1: FF                                DB      0FFh
DBF2: FF                                DB      0FFh
DBF3: FF                                DB      0FFh
DBF4: FF                                DB      0FFh
DBF5: FF                                DB      0FFh
DBF6: FF                                DB      0FFh
DBF7: FF                                DB      0FFh
DBF8: FF                                DB      0FFh
DBF9: FF                                DB      0FFh
DBFA: FF                                DB      0FFh
DBFB: FF                                DB      0FFh
DBFC: FF                                DB      0FFh
DBFD: FF                                DB      0FFh
DBFE: FF                                DB      0FFh
DBFF: FF                                DB      0FFh
DC00: FF                                DB      0FFh
DC01: FF                                DB      0FFh
DC02: FF                                DB      0FFh
DC03: FF                                DB      0FFh
DC04: FF                                DB      0FFh
DC05: FF                                DB      0FFh
DC06: FF                                DB      0FFh
DC07: FF                                DB      0FFh
DC08: FF                                DB      0FFh
DC09: FF                                DB      0FFh
DC0A: FF                                DB      0FFh
DC0B: FF                                DB      0FFh
DC0C: FF                                DB      0FFh
DC0D: FF                                DB      0FFh
DC0E: FF                                DB      0FFh
DC0F: FF                                DB      0FFh
DC10: FF                                DB      0FFh
DC11: FF                                DB      0FFh
DC12: FF                                DB      0FFh
DC13: FF                                DB      0FFh
DC14: FF                                DB      0FFh
DC15: FF                                DB      0FFh
DC16: FF                                DB      0FFh
DC17: FF                                DB      0FFh
DC18: FF                                DB      0FFh
DC19: FF                                DB      0FFh
DC1A: FF                                DB      0FFh
DC1B: FF                                DB      0FFh
DC1C: FF                                DB      0FFh
DC1D: FF                                DB      0FFh
DC1E: FF                                DB      0FFh
DC1F: FF                                DB      0FFh
DC20: FF                                DB      0FFh
DC21: FF                                DB      0FFh
DC22: FF                                DB      0FFh
DC23: FF                                DB      0FFh
DC24: FF                                DB      0FFh
DC25: FF                                DB      0FFh
DC26: FF                                DB      0FFh
DC27: FF                                DB      0FFh
DC28: FF                                DB      0FFh
DC29: FF                                DB      0FFh
DC2A: FF                                DB      0FFh
DC2B: FF                                DB      0FFh
DC2C: FF                                DB      0FFh
DC2D: FF                                DB      0FFh
DC2E: FF                                DB      0FFh
DC2F: FF                                DB      0FFh
DC30: FF                                DB      0FFh
DC31: FF                                DB      0FFh
DC32: FF                                DB      0FFh
DC33: FF                                DB      0FFh
DC34: FF                                DB      0FFh
DC35: FF                                DB      0FFh
DC36: FF                                DB      0FFh
DC37: FF                                DB      0FFh
DC38: FF                                DB      0FFh
DC39: FF                                DB      0FFh
DC3A: FF                                DB      0FFh
DC3B: FF                                DB      0FFh
DC3C: FF                                DB      0FFh
DC3D: FF                                DB      0FFh
DC3E: FF                                DB      0FFh
DC3F: FF                                DB      0FFh
DC40: FF                                DB      0FFh
DC41: FF                                DB      0FFh
DC42: FF                                DB      0FFh
DC43: FF                                DB      0FFh
DC44: FF                                DB      0FFh
DC45: FF                                DB      0FFh
DC46: FF                                DB      0FFh
DC47: FF                                DB      0FFh
DC48: FF                                DB      0FFh
DC49: FF                                DB      0FFh
DC4A: FF                                DB      0FFh
DC4B: FF                                DB      0FFh
DC4C: FF                                DB      0FFh
DC4D: FF                                DB      0FFh
DC4E: FF                                DB      0FFh
DC4F: FF                                DB      0FFh
DC50: FF                                DB      0FFh
DC51: FF                                DB      0FFh
DC52: FF                                DB      0FFh
DC53: FF                                DB      0FFh
DC54: FF                                DB      0FFh
DC55: FF                                DB      0FFh
DC56: FF                                DB      0FFh
DC57: FF                                DB      0FFh
DC58: FF                                DB      0FFh
DC59: FF                                DB      0FFh
DC5A: FF                                DB      0FFh
DC5B: FF                                DB      0FFh
DC5C: FF                                DB      0FFh
DC5D: FF                                DB      0FFh
DC5E: FF                                DB      0FFh
DC5F: FF                                DB      0FFh
DC60: FF                                DB      0FFh
DC61: FF                                DB      0FFh
DC62: FF                                DB      0FFh
DC63: FF                                DB      0FFh
DC64: FF                                DB      0FFh
DC65: FF                                DB      0FFh
DC66: FF                                DB      0FFh
DC67: FF                                DB      0FFh
DC68: FF                                DB      0FFh
DC69: FF                                DB      0FFh
DC6A: FF                                DB      0FFh
DC6B: FF                                DB      0FFh
DC6C: FF                                DB      0FFh
DC6D: FF                                DB      0FFh
DC6E: FF                                DB      0FFh
DC6F: FF                                DB      0FFh
DC70: FF                                DB      0FFh
DC71: FF                                DB      0FFh
DC72: FF                                DB      0FFh
DC73: FF                                DB      0FFh
DC74: FF                                DB      0FFh
DC75: FF                                DB      0FFh
DC76: FF                                DB      0FFh
DC77: FF                                DB      0FFh
DC78: FF                                DB      0FFh
DC79: FF                                DB      0FFh
DC7A: FF                                DB      0FFh
DC7B: FF                                DB      0FFh
DC7C: FF                                DB      0FFh
DC7D: FF                                DB      0FFh
DC7E: FF                                DB      0FFh
DC7F: FF                                DB      0FFh
DC80: FF                                DB      0FFh
DC81: FF                                DB      0FFh
DC82: FF                                DB      0FFh
DC83: FF                                DB      0FFh
DC84: FF                                DB      0FFh
DC85: FF                                DB      0FFh
DC86: FF                                DB      0FFh
DC87: FF                                DB      0FFh
DC88: FF                                DB      0FFh
DC89: FF                                DB      0FFh
DC8A: FF                                DB      0FFh
DC8B: FF                                DB      0FFh
DC8C: FF                                DB      0FFh
DC8D: FF                                DB      0FFh
DC8E: FF                                DB      0FFh
DC8F: FF                                DB      0FFh
DC90: FF                                DB      0FFh
DC91: FF                                DB      0FFh
DC92: FF                                DB      0FFh
DC93: FF                                DB      0FFh
DC94: FF                                DB      0FFh
DC95: FF                                DB      0FFh
DC96: FF                                DB      0FFh
DC97: FF                                DB      0FFh
DC98: FF                                DB      0FFh
DC99: FF                                DB      0FFh
DC9A: FF                                DB      0FFh
DC9B: FF                                DB      0FFh
DC9C: FF                                DB      0FFh
DC9D: FF                                DB      0FFh
DC9E: FF                                DB      0FFh
DC9F: FF                                DB      0FFh
DCA0: FF                                DB      0FFh
DCA1: FF                                DB      0FFh
DCA2: FF                                DB      0FFh
DCA3: FF                                DB      0FFh
DCA4: FF                                DB      0FFh
DCA5: FF                                DB      0FFh
DCA6: FF                                DB      0FFh
DCA7: FF                                DB      0FFh
DCA8: FF                                DB      0FFh
DCA9: FF                                DB      0FFh
DCAA: FF                                DB      0FFh
DCAB: FF                                DB      0FFh
DCAC: FF                                DB      0FFh
DCAD: FF                                DB      0FFh
DCAE: FF                                DB      0FFh
DCAF: FF                                DB      0FFh
DCB0: FF                                DB      0FFh
DCB1: FF                                DB      0FFh
DCB2: FF                                DB      0FFh
DCB3: FF                                DB      0FFh
DCB4: FF                                DB      0FFh
DCB5: FF                                DB      0FFh
DCB6: FF                                DB      0FFh
DCB7: FF                                DB      0FFh
DCB8: FF                                DB      0FFh
DCB9: FF                                DB      0FFh
DCBA: FF                                DB      0FFh
DCBB: FF                                DB      0FFh
DCBC: FF                                DB      0FFh
DCBD: FF                                DB      0FFh
DCBE: FF                                DB      0FFh
DCBF: FF                                DB      0FFh
DCC0: FF                                DB      0FFh
DCC1: FF                                DB      0FFh
DCC2: FF                                DB      0FFh
DCC3: FF                                DB      0FFh
DCC4: FF                                DB      0FFh
DCC5: FF                                DB      0FFh
DCC6: FF                                DB      0FFh
DCC7: FF                                DB      0FFh
DCC8: FF                                DB      0FFh
DCC9: FF                                DB      0FFh
DCCA: FF                                DB      0FFh
DCCB: FF                                DB      0FFh
DCCC: FF                                DB      0FFh
DCCD: FF                                DB      0FFh
DCCE: FF                                DB      0FFh
DCCF: FF                                DB      0FFh
DCD0: FF                                DB      0FFh
DCD1: FF                                DB      0FFh
DCD2: FF                                DB      0FFh
DCD3: FF                                DB      0FFh
DCD4: FF                                DB      0FFh
DCD5: FF                                DB      0FFh
DCD6: FF                                DB      0FFh
DCD7: FF                                DB      0FFh
DCD8: FF                                DB      0FFh
DCD9: FF                                DB      0FFh
DCDA: FF                                DB      0FFh
DCDB: FF                                DB      0FFh
DCDC: FF                                DB      0FFh
DCDD: FF                                DB      0FFh
DCDE: FF                                DB      0FFh
DCDF: FF                                DB      0FFh
DCE0: FF                                DB      0FFh
DCE1: FF                                DB      0FFh
DCE2: FF                                DB      0FFh
DCE3: FF                                DB      0FFh
DCE4: FF                                DB      0FFh
DCE5: FF                                DB      0FFh
DCE6: FF                                DB      0FFh
DCE7: FF                                DB      0FFh
DCE8: FF                                DB      0FFh
DCE9: FF                                DB      0FFh
DCEA: FF                                DB      0FFh
DCEB: FF                                DB      0FFh
DCEC: FF                                DB      0FFh
DCED: FF                                DB      0FFh
DCEE: FF                                DB      0FFh
DCEF: FF                                DB      0FFh
DCF0: FF                                DB      0FFh
DCF1: FF                                DB      0FFh
DCF2: FF                                DB      0FFh
DCF3: FF                                DB      0FFh
DCF4: FF                                DB      0FFh
DCF5: FF                                DB      0FFh
DCF6: FF                                DB      0FFh
DCF7: FF                                DB      0FFh
DCF8: FF                                DB      0FFh
DCF9: FF                                DB      0FFh
DCFA: FF                                DB      0FFh
DCFB: FF                                DB      0FFh
DCFC: FF                                DB      0FFh
DCFD: FF                                DB      0FFh
DCFE: FF                                DB      0FFh
DCFF: FF                                DB      0FFh
DD00: FF                                DB      0FFh
DD01: FF                                DB      0FFh
DD02: FF                                DB      0FFh
DD03: FF                                DB      0FFh
DD04: FF                                DB      0FFh
DD05: FF                                DB      0FFh
DD06: FF                                DB      0FFh
DD07: FF                                DB      0FFh
DD08: FF                                DB      0FFh
DD09: FF                                DB      0FFh
DD0A: FF                                DB      0FFh
DD0B: FF                                DB      0FFh
DD0C: FF                                DB      0FFh
DD0D: FF                                DB      0FFh
DD0E: FF                                DB      0FFh
DD0F: FF                                DB      0FFh
DD10: FF                                DB      0FFh
DD11: FF                                DB      0FFh
DD12: FF                                DB      0FFh
DD13: FF                                DB      0FFh
DD14: FF                                DB      0FFh
DD15: FF                                DB      0FFh
DD16: FF                                DB      0FFh
DD17: FF                                DB      0FFh
DD18: FF                                DB      0FFh
DD19: FF                                DB      0FFh
DD1A: FF                                DB      0FFh
DD1B: FF                                DB      0FFh
DD1C: FF                                DB      0FFh
DD1D: FF                                DB      0FFh
DD1E: FF                                DB      0FFh
DD1F: FF                                DB      0FFh
DD20: FF                                DB      0FFh
DD21: FF                                DB      0FFh
DD22: FF                                DB      0FFh
DD23: FF                                DB      0FFh
DD24: FF                                DB      0FFh
DD25: FF                                DB      0FFh
DD26: FF                                DB      0FFh
DD27: FF                                DB      0FFh
DD28: FF                                DB      0FFh
DD29: FF                                DB      0FFh
DD2A: FF                                DB      0FFh
DD2B: FF                                DB      0FFh
DD2C: FF                                DB      0FFh
DD2D: FF                                DB      0FFh
DD2E: FF                                DB      0FFh
DD2F: FF                                DB      0FFh
DD30: FF                                DB      0FFh
DD31: FF                                DB      0FFh
DD32: FF                                DB      0FFh
DD33: FF                                DB      0FFh
DD34: FF                                DB      0FFh
DD35: FF                                DB      0FFh
DD36: FF                                DB      0FFh
DD37: FF                                DB      0FFh
DD38: FF                                DB      0FFh
DD39: FF                                DB      0FFh
DD3A: FF                                DB      0FFh
DD3B: FF                                DB      0FFh
DD3C: FF                                DB      0FFh
DD3D: FF                                DB      0FFh
DD3E: FF                                DB      0FFh
DD3F: FF                                DB      0FFh
DD40: FF                                DB      0FFh
DD41: FF                                DB      0FFh
DD42: FF                                DB      0FFh
DD43: FF                                DB      0FFh
DD44: FF                                DB      0FFh
DD45: FF                                DB      0FFh
DD46: FF                                DB      0FFh
DD47: FF                                DB      0FFh
DD48: FF                                DB      0FFh
DD49: FF                                DB      0FFh
DD4A: FF                                DB      0FFh
DD4B: FF                                DB      0FFh
DD4C: FF                                DB      0FFh
DD4D: FF                                DB      0FFh
DD4E: FF                                DB      0FFh
DD4F: FF                                DB      0FFh
DD50: FF                                DB      0FFh
DD51: FF                                DB      0FFh
DD52: FF                                DB      0FFh
DD53: FF                                DB      0FFh
DD54: FF                                DB      0FFh
DD55: FF                                DB      0FFh
DD56: FF                                DB      0FFh
DD57: FF                                DB      0FFh
DD58: FF                                DB      0FFh
DD59: FF                                DB      0FFh
DD5A: FF                                DB      0FFh
DD5B: FF                                DB      0FFh
DD5C: FF                                DB      0FFh
DD5D: FF                                DB      0FFh
DD5E: FF                                DB      0FFh
DD5F: FF                                DB      0FFh
DD60: FF                                DB      0FFh
DD61: FF                                DB      0FFh
DD62: FF                                DB      0FFh
DD63: FF                                DB      0FFh
DD64: FF                                DB      0FFh
DD65: FF                                DB      0FFh
DD66: FF                                DB      0FFh
DD67: FF                                DB      0FFh
DD68: FF                                DB      0FFh
DD69: FF                                DB      0FFh
DD6A: FF                                DB      0FFh
DD6B: FF                                DB      0FFh
DD6C: FF                                DB      0FFh
DD6D: FF                                DB      0FFh
DD6E: FF                                DB      0FFh
DD6F: FF                                DB      0FFh
DD70: FF                                DB      0FFh
DD71: FF                                DB      0FFh
DD72: FF                                DB      0FFh
DD73: FF                                DB      0FFh
DD74: FF                                DB      0FFh
DD75: FF                                DB      0FFh
DD76: FF                                DB      0FFh
DD77: FF                                DB      0FFh
DD78: FF                                DB      0FFh
DD79: FF                                DB      0FFh
DD7A: FF                                DB      0FFh
DD7B: FF                                DB      0FFh
DD7C: FF                                DB      0FFh
DD7D: FF                                DB      0FFh
DD7E: FF                                DB      0FFh
DD7F: FF                                DB      0FFh
DD80: FF                                DB      0FFh
DD81: FF                                DB      0FFh
DD82: FF                                DB      0FFh
DD83: FF                                DB      0FFh
DD84: FF                                DB      0FFh
DD85: FF                                DB      0FFh
DD86: FF                                DB      0FFh
DD87: FF                                DB      0FFh
DD88: FF                                DB      0FFh
DD89: FF                                DB      0FFh
DD8A: FF                                DB      0FFh
DD8B: FF                                DB      0FFh
DD8C: FF                                DB      0FFh
DD8D: FF                                DB      0FFh
DD8E: FF                                DB      0FFh
DD8F: FF                                DB      0FFh
DD90: FF                                DB      0FFh
DD91: FF                                DB      0FFh
DD92: FF                                DB      0FFh
DD93: FF                                DB      0FFh
DD94: FF                                DB      0FFh
DD95: FF                                DB      0FFh
DD96: FF                                DB      0FFh
DD97: FF                                DB      0FFh
DD98: FF                                DB      0FFh
DD99: FF                                DB      0FFh
DD9A: FF                                DB      0FFh
DD9B: FF                                DB      0FFh
DD9C: FF                                DB      0FFh
DD9D: FF                                DB      0FFh
DD9E: FF                                DB      0FFh
DD9F: FF                                DB      0FFh
DDA0: FF                                DB      0FFh
DDA1: FF                                DB      0FFh
DDA2: FF                                DB      0FFh
DDA3: FF                                DB      0FFh
DDA4: FF                                DB      0FFh
DDA5: FF                                DB      0FFh
DDA6: FF                                DB      0FFh
DDA7: FF                                DB      0FFh
DDA8: FF                                DB      0FFh
DDA9: FF                                DB      0FFh
DDAA: FF                                DB      0FFh
DDAB: FF                                DB      0FFh
DDAC: FF                                DB      0FFh
DDAD: FF                                DB      0FFh
DDAE: FF                                DB      0FFh
DDAF: FF                                DB      0FFh
DDB0: FF                                DB      0FFh
DDB1: FF                                DB      0FFh
DDB2: FF                                DB      0FFh
DDB3: FF                                DB      0FFh
DDB4: FF                                DB      0FFh
DDB5: FF                                DB      0FFh
DDB6: FF                                DB      0FFh
DDB7: FF                                DB      0FFh
DDB8: FF                                DB      0FFh
DDB9: FF                                DB      0FFh
DDBA: FF                                DB      0FFh
DDBB: FF                                DB      0FFh
DDBC: FF                                DB      0FFh
DDBD: FF                                DB      0FFh
DDBE: FF                                DB      0FFh
DDBF: FF                                DB      0FFh
DDC0: FF                                DB      0FFh
DDC1: FF                                DB      0FFh
DDC2: FF                                DB      0FFh
DDC3: FF                                DB      0FFh
DDC4: FF                                DB      0FFh
DDC5: FF                                DB      0FFh
DDC6: FF                                DB      0FFh
DDC7: FF                                DB      0FFh
DDC8: FF                                DB      0FFh
DDC9: FF                                DB      0FFh
DDCA: FF                                DB      0FFh
DDCB: FF                                DB      0FFh
DDCC: FF                                DB      0FFh
DDCD: FF                                DB      0FFh
DDCE: FF                                DB      0FFh
DDCF: FF                                DB      0FFh
DDD0: FF                                DB      0FFh
DDD1: FF                                DB      0FFh
DDD2: FF                                DB      0FFh
DDD3: FF                                DB      0FFh
DDD4: FF                                DB      0FFh
DDD5: FF                                DB      0FFh
DDD6: FF                                DB      0FFh
DDD7: FF                                DB      0FFh
DDD8: FF                                DB      0FFh
DDD9: FF                                DB      0FFh
DDDA: FF                                DB      0FFh
DDDB: FF                                DB      0FFh
DDDC: FF                                DB      0FFh
DDDD: FF                                DB      0FFh
DDDE: FF                                DB      0FFh
DDDF: FF                                DB      0FFh
DDE0: FF                                DB      0FFh
DDE1: FF                                DB      0FFh
DDE2: FF                                DB      0FFh
DDE3: FF                                DB      0FFh
DDE4: FF                                DB      0FFh
DDE5: FF                                DB      0FFh
DDE6: FF                                DB      0FFh
DDE7: FF                                DB      0FFh
DDE8: FF                                DB      0FFh
DDE9: FF                                DB      0FFh
DDEA: FF                                DB      0FFh
DDEB: FF                                DB      0FFh
DDEC: FF                                DB      0FFh
DDED: FF                                DB      0FFh
DDEE: FF                                DB      0FFh
DDEF: FF                                DB      0FFh
DDF0: FF                                DB      0FFh
DDF1: FF                                DB      0FFh
DDF2: FF                                DB      0FFh
DDF3: FF                                DB      0FFh
DDF4: FF                                DB      0FFh
DDF5: FF                                DB      0FFh
DDF6: FF                                DB      0FFh
DDF7: FF                                DB      0FFh
DDF8: FF                                DB      0FFh
DDF9: FF                                DB      0FFh
DDFA: FF                                DB      0FFh
DDFB: FF                                DB      0FFh
DDFC: FF                                DB      0FFh
DDFD: FF                                DB      0FFh
DDFE: FF                                DB      0FFh
DDFF: FF                                DB      0FFh
DE00: FF                                DB      0FFh
DE01: FF                                DB      0FFh
DE02: FF                                DB      0FFh
DE03: FF                                DB      0FFh
DE04: FF                                DB      0FFh
DE05: FF                                DB      0FFh
DE06: FF                                DB      0FFh
DE07: FF                                DB      0FFh
DE08: FF                                DB      0FFh
DE09: FF                                DB      0FFh
DE0A: FF                                DB      0FFh
DE0B: FF                                DB      0FFh
DE0C: FF                                DB      0FFh
DE0D: FF                                DB      0FFh
DE0E: FF                                DB      0FFh
DE0F: FF                                DB      0FFh
DE10: FF                                DB      0FFh
DE11: FF                                DB      0FFh
DE12: FF                                DB      0FFh
DE13: FF                                DB      0FFh
DE14: FF                                DB      0FFh
DE15: FF                                DB      0FFh
DE16: FF                                DB      0FFh
DE17: FF                                DB      0FFh
DE18: FF                                DB      0FFh
DE19: FF                                DB      0FFh
DE1A: FF                                DB      0FFh
DE1B: FF                                DB      0FFh
DE1C: FF                                DB      0FFh
DE1D: FF                                DB      0FFh
DE1E: FF                                DB      0FFh
DE1F: FF                                DB      0FFh
DE20: FF                                DB      0FFh
DE21: FF                                DB      0FFh
DE22: FF                                DB      0FFh
DE23: FF                                DB      0FFh
DE24: FF                                DB      0FFh
DE25: FF                                DB      0FFh
DE26: FF                                DB      0FFh
DE27: FF                                DB      0FFh
DE28: FF                                DB      0FFh
DE29: FF                                DB      0FFh
DE2A: FF                                DB      0FFh
DE2B: FF                                DB      0FFh
DE2C: FF                                DB      0FFh
DE2D: FF                                DB      0FFh
DE2E: FF                                DB      0FFh
DE2F: FF                                DB      0FFh
DE30: FF                                DB      0FFh
DE31: FF                                DB      0FFh
DE32: FF                                DB      0FFh
DE33: FF                                DB      0FFh
DE34: FF                                DB      0FFh
DE35: FF                                DB      0FFh
DE36: FF                                DB      0FFh
DE37: FF                                DB      0FFh
DE38: FF                                DB      0FFh
DE39: FF                                DB      0FFh
DE3A: FF                                DB      0FFh
DE3B: FF                                DB      0FFh
DE3C: FF                                DB      0FFh
DE3D: FF                                DB      0FFh
DE3E: FF                                DB      0FFh
DE3F: FF                                DB      0FFh
DE40: FF                                DB      0FFh
DE41: FF                                DB      0FFh
DE42: FF                                DB      0FFh
DE43: FF                                DB      0FFh
DE44: FF                                DB      0FFh
DE45: FF                                DB      0FFh
DE46: FF                                DB      0FFh
DE47: FF                                DB      0FFh
DE48: FF                                DB      0FFh
DE49: FF                                DB      0FFh
DE4A: FF                                DB      0FFh
DE4B: FF                                DB      0FFh
DE4C: FF                                DB      0FFh
DE4D: FF                                DB      0FFh
DE4E: FF                                DB      0FFh
DE4F: FF                                DB      0FFh
DE50: FF                                DB      0FFh
DE51: FF                                DB      0FFh
DE52: FF                                DB      0FFh
DE53: FF                                DB      0FFh
DE54: FF                                DB      0FFh
DE55: FF                                DB      0FFh
DE56: FF                                DB      0FFh
DE57: FF                                DB      0FFh
DE58: FF                                DB      0FFh
DE59: FF                                DB      0FFh
DE5A: FF                                DB      0FFh
DE5B: FF                                DB      0FFh
DE5C: FF                                DB      0FFh
DE5D: FF                                DB      0FFh
DE5E: FF                                DB      0FFh
DE5F: FF                                DB      0FFh
DE60: FF                                DB      0FFh
DE61: FF                                DB      0FFh
DE62: FF                                DB      0FFh
DE63: FF                                DB      0FFh
DE64: FF                                DB      0FFh
DE65: FF                                DB      0FFh
DE66: FF                                DB      0FFh
DE67: FF                                DB      0FFh
DE68: FF                                DB      0FFh
DE69: FF                                DB      0FFh
DE6A: FF                                DB      0FFh
DE6B: FF                                DB      0FFh
DE6C: FF                                DB      0FFh
DE6D: FF                                DB      0FFh
DE6E: FF                                DB      0FFh
DE6F: FF                                DB      0FFh
DE70: FF                                DB      0FFh
DE71: FF                                DB      0FFh
DE72: FF                                DB      0FFh
DE73: FF                                DB      0FFh
DE74: FF                                DB      0FFh
DE75: FF                                DB      0FFh
DE76: FF                                DB      0FFh
DE77: FF                                DB      0FFh
DE78: FF                                DB      0FFh
DE79: FF                                DB      0FFh
DE7A: FF                                DB      0FFh
DE7B: FF                                DB      0FFh
DE7C: FF                                DB      0FFh
DE7D: FF                                DB      0FFh
DE7E: FF                                DB      0FFh
DE7F: FF                                DB      0FFh
DE80: FF                                DB      0FFh
DE81: FF                                DB      0FFh
DE82: FF                                DB      0FFh
DE83: FF                                DB      0FFh
DE84: FF                                DB      0FFh
DE85: FF                                DB      0FFh
DE86: FF                                DB      0FFh
DE87: FF                                DB      0FFh
DE88: FF                                DB      0FFh
DE89: FF                                DB      0FFh
DE8A: FF                                DB      0FFh
DE8B: FF                                DB      0FFh
DE8C: FF                                DB      0FFh
DE8D: FF                                DB      0FFh
DE8E: FF                                DB      0FFh
DE8F: FF                                DB      0FFh
DE90: FF                                DB      0FFh
DE91: FF                                DB      0FFh
DE92: FF                                DB      0FFh
DE93: FF                                DB      0FFh
DE94: FF                                DB      0FFh
DE95: FF                                DB      0FFh
DE96: FF                                DB      0FFh
DE97: FF                                DB      0FFh
DE98: FF                                DB      0FFh
DE99: FF                                DB      0FFh
DE9A: FF                                DB      0FFh
DE9B: FF                                DB      0FFh
DE9C: FF                                DB      0FFh
DE9D: FF                                DB      0FFh
DE9E: FF                                DB      0FFh
DE9F: FF                                DB      0FFh
DEA0: FF                                DB      0FFh
DEA1: FF                                DB      0FFh
DEA2: FF                                DB      0FFh
DEA3: FF                                DB      0FFh
DEA4: FF                                DB      0FFh
DEA5: FF                                DB      0FFh
DEA6: FF                                DB      0FFh
DEA7: FF                                DB      0FFh
DEA8: FF                                DB      0FFh
DEA9: FF                                DB      0FFh
DEAA: FF                                DB      0FFh
DEAB: FF                                DB      0FFh
DEAC: FF                                DB      0FFh
DEAD: FF                                DB      0FFh
DEAE: FF                                DB      0FFh
DEAF: FF                                DB      0FFh
DEB0: FF                                DB      0FFh
DEB1: FF                                DB      0FFh
DEB2: FF                                DB      0FFh
DEB3: FF                                DB      0FFh
DEB4: FF                                DB      0FFh
DEB5: FF                                DB      0FFh
DEB6: FF                                DB      0FFh
DEB7: FF                                DB      0FFh
DEB8: FF                                DB      0FFh
DEB9: FF                                DB      0FFh
DEBA: FF                                DB      0FFh
DEBB: FF                                DB      0FFh
DEBC: FF                                DB      0FFh
DEBD: FF                                DB      0FFh
DEBE: FF                                DB      0FFh
DEBF: FF                                DB      0FFh
DEC0: FF                                DB      0FFh
DEC1: FF                                DB      0FFh
DEC2: FF                                DB      0FFh
DEC3: FF                                DB      0FFh
DEC4: FF                                DB      0FFh
DEC5: FF                                DB      0FFh
DEC6: FF                                DB      0FFh
DEC7: FF                                DB      0FFh
DEC8: FF                                DB      0FFh
DEC9: FF                                DB      0FFh
DECA: FF                                DB      0FFh
DECB: FF                                DB      0FFh
DECC: FF                                DB      0FFh
DECD: FF                                DB      0FFh
DECE: FF                                DB      0FFh
DECF: FF                                DB      0FFh
DED0: FF                                DB      0FFh
DED1: FF                                DB      0FFh
DED2: FF                                DB      0FFh
DED3: FF                                DB      0FFh
DED4: FF                                DB      0FFh
DED5: FF                                DB      0FFh
DED6: FF                                DB      0FFh
DED7: FF                                DB      0FFh
DED8: FF                                DB      0FFh
DED9: FF                                DB      0FFh
DEDA: FF                                DB      0FFh
DEDB: FF                                DB      0FFh
DEDC: FF                                DB      0FFh
DEDD: FF                                DB      0FFh
DEDE: FF                                DB      0FFh
DEDF: FF                                DB      0FFh
DEE0: FF                                DB      0FFh
DEE1: FF                                DB      0FFh
DEE2: FF                                DB      0FFh
DEE3: FF                                DB      0FFh
DEE4: FF                                DB      0FFh
DEE5: FF                                DB      0FFh
DEE6: FF                                DB      0FFh
DEE7: FF                                DB      0FFh
DEE8: FF                                DB      0FFh
DEE9: FF                                DB      0FFh
DEEA: FF                                DB      0FFh
DEEB: FF                                DB      0FFh
DEEC: FF                                DB      0FFh
DEED: FF                                DB      0FFh
DEEE: FF                                DB      0FFh
DEEF: FF                                DB      0FFh
DEF0: FF                                DB      0FFh
DEF1: FF                                DB      0FFh
DEF2: FF                                DB      0FFh
DEF3: FF                                DB      0FFh
DEF4: FF                                DB      0FFh
DEF5: FF                                DB      0FFh
DEF6: FF                                DB      0FFh
DEF7: FF                                DB      0FFh
DEF8: FF                                DB      0FFh
DEF9: FF                                DB      0FFh
DEFA: FF                                DB      0FFh
DEFB: FF                                DB      0FFh
DEFC: FF                                DB      0FFh
DEFD: FF                                DB      0FFh
DEFE: FF                                DB      0FFh
DEFF: FF                                DB      0FFh
DF00: FF                                DB      0FFh
DF01: FF                                DB      0FFh
DF02: FF                                DB      0FFh
DF03: FF                                DB      0FFh
DF04: FF                                DB      0FFh
DF05: FF                                DB      0FFh
DF06: FF                                DB      0FFh
DF07: FF                                DB      0FFh
DF08: FF                                DB      0FFh
DF09: FF                                DB      0FFh
DF0A: FF                                DB      0FFh
DF0B: FF                                DB      0FFh
DF0C: FF                                DB      0FFh
DF0D: FF                                DB      0FFh
DF0E: FF                                DB      0FFh
DF0F: FF                                DB      0FFh
DF10: FF                                DB      0FFh
DF11: FF                                DB      0FFh
DF12: FF                                DB      0FFh
DF13: FF                                DB      0FFh
DF14: FF                                DB      0FFh
DF15: FF                                DB      0FFh
DF16: FF                                DB      0FFh
DF17: FF                                DB      0FFh
DF18: FF                                DB      0FFh
DF19: FF                                DB      0FFh
DF1A: FF                                DB      0FFh
DF1B: FF                                DB      0FFh
DF1C: FF                                DB      0FFh
DF1D: FF                                DB      0FFh
DF1E: FF                                DB      0FFh
DF1F: FF                                DB      0FFh
DF20: FF                                DB      0FFh
DF21: FF                                DB      0FFh
DF22: FF                                DB      0FFh
DF23: FF                                DB      0FFh
DF24: FF                                DB      0FFh
DF25: FF                                DB      0FFh
DF26: FF                                DB      0FFh
DF27: FF                                DB      0FFh
DF28: FF                                DB      0FFh
DF29: FF                                DB      0FFh
DF2A: FF                                DB      0FFh
DF2B: FF                                DB      0FFh
DF2C: FF                                DB      0FFh
DF2D: FF                                DB      0FFh
DF2E: FF                                DB      0FFh
DF2F: FF                                DB      0FFh
DF30: FF                                DB      0FFh
DF31: FF                                DB      0FFh
DF32: FF                                DB      0FFh
DF33: FF                                DB      0FFh
DF34: FF                                DB      0FFh
DF35: FF                                DB      0FFh
DF36: FF                                DB      0FFh
DF37: FF                                DB      0FFh
DF38: FF                                DB      0FFh
DF39: FF                                DB      0FFh
DF3A: FF                                DB      0FFh
DF3B: FF                                DB      0FFh
DF3C: FF                                DB      0FFh
DF3D: FF                                DB      0FFh
DF3E: FF                                DB      0FFh
DF3F: FF                                DB      0FFh
DF40: FF                                DB      0FFh
DF41: FF                                DB      0FFh
DF42: FF                                DB      0FFh
DF43: FF                                DB      0FFh
DF44: FF                                DB      0FFh
DF45: FF                                DB      0FFh
DF46: FF                                DB      0FFh
DF47: FF                                DB      0FFh
DF48: FF                                DB      0FFh
DF49: FF                                DB      0FFh
DF4A: FF                                DB      0FFh
DF4B: FF                                DB      0FFh
DF4C: FF                                DB      0FFh
DF4D: FF                                DB      0FFh
DF4E: FF                                DB      0FFh
DF4F: FF                                DB      0FFh
DF50: FF                                DB      0FFh
DF51: FF                                DB      0FFh
DF52: FF                                DB      0FFh
DF53: FF                                DB      0FFh
DF54: FF                                DB      0FFh
DF55: FF                                DB      0FFh
DF56: FF                                DB      0FFh
DF57: FF                                DB      0FFh
DF58: FF                                DB      0FFh
DF59: FF                                DB      0FFh
DF5A: FF                                DB      0FFh
DF5B: FF                                DB      0FFh
DF5C: FF                                DB      0FFh
DF5D: FF                                DB      0FFh
DF5E: FF                                DB      0FFh
DF5F: FF                                DB      0FFh
DF60: FF                                DB      0FFh
DF61: FF                                DB      0FFh
DF62: FF                                DB      0FFh
DF63: FF                                DB      0FFh
DF64: FF                                DB      0FFh
DF65: FF                                DB      0FFh
DF66: FF                                DB      0FFh
DF67: FF                                DB      0FFh
DF68: FF                                DB      0FFh
DF69: FF                                DB      0FFh
DF6A: FF                                DB      0FFh
DF6B: FF                                DB      0FFh
DF6C: FF                                DB      0FFh
DF6D: FF                                DB      0FFh
DF6E: FF                                DB      0FFh
DF6F: FF                                DB      0FFh
DF70: FF                                DB      0FFh
DF71: FF                                DB      0FFh
DF72: FF                                DB      0FFh
DF73: FF                                DB      0FFh
DF74: FF                                DB      0FFh
DF75: FF                                DB      0FFh
DF76: FF                                DB      0FFh
DF77: FF                                DB      0FFh
DF78: FF                                DB      0FFh
DF79: FF                                DB      0FFh
DF7A: FF                                DB      0FFh
DF7B: FF                                DB      0FFh
DF7C: FF                                DB      0FFh
DF7D: FF                                DB      0FFh
DF7E: FF                                DB      0FFh
DF7F: FF                                DB      0FFh
DF80: FF                                DB      0FFh
DF81: FF                                DB      0FFh
DF82: FF                                DB      0FFh
DF83: FF                                DB      0FFh
DF84: FF                                DB      0FFh
DF85: FF                                DB      0FFh
DF86: FF                                DB      0FFh
DF87: FF                                DB      0FFh
DF88: FF                                DB      0FFh
DF89: FF                                DB      0FFh
DF8A: FF                                DB      0FFh
DF8B: FF                                DB      0FFh
DF8C: FF                                DB      0FFh
DF8D: FF                                DB      0FFh
DF8E: FF                                DB      0FFh
DF8F: FF                                DB      0FFh
DF90: FF                                DB      0FFh
DF91: FF                                DB      0FFh
DF92: FF                                DB      0FFh
DF93: FF                                DB      0FFh
DF94: FF                                DB      0FFh
DF95: FF                                DB      0FFh
DF96: FF                                DB      0FFh
DF97: FF                                DB      0FFh
DF98: FF                                DB      0FFh
DF99: FF                                DB      0FFh
DF9A: FF                                DB      0FFh
DF9B: FF                                DB      0FFh
DF9C: FF                                DB      0FFh
DF9D: FF                                DB      0FFh
DF9E: FF                                DB      0FFh
DF9F: FF                                DB      0FFh
DFA0: FF                                DB      0FFh
DFA1: FF                                DB      0FFh
DFA2: FF                                DB      0FFh
DFA3: FF                                DB      0FFh
DFA4: FF                                DB      0FFh
DFA5: FF                                DB      0FFh
DFA6: FF                                DB      0FFh
DFA7: FF                                DB      0FFh
DFA8: FF                                DB      0FFh
DFA9: FF                                DB      0FFh
DFAA: FF                                DB      0FFh
DFAB: FF                                DB      0FFh
DFAC: FF                                DB      0FFh
DFAD: FF                                DB      0FFh
DFAE: FF                                DB      0FFh
DFAF: FF                                DB      0FFh
DFB0: FF                                DB      0FFh
DFB1: FF                                DB      0FFh
DFB2: FF                                DB      0FFh
DFB3: FF                                DB      0FFh
DFB4: FF                                DB      0FFh
DFB5: FF                                DB      0FFh
DFB6: FF                                DB      0FFh
DFB7: FF                                DB      0FFh
DFB8: FF                                DB      0FFh
DFB9: FF                                DB      0FFh
DFBA: FF                                DB      0FFh
DFBB: FF                                DB      0FFh
DFBC: FF                                DB      0FFh
DFBD: FF                                DB      0FFh
DFBE: FF                                DB      0FFh
DFBF: FF                                DB      0FFh
DFC0: FF                                DB      0FFh
DFC1: FF                                DB      0FFh
DFC2: FF                                DB      0FFh
DFC3: FF                                DB      0FFh
DFC4: FF                                DB      0FFh
DFC5: FF                                DB      0FFh
DFC6: FF                                DB      0FFh
DFC7: FF                                DB      0FFh
DFC8: FF                                DB      0FFh
DFC9: FF                                DB      0FFh
DFCA: FF                                DB      0FFh
DFCB: FF                                DB      0FFh
DFCC: FF                                DB      0FFh
DFCD: FF                                DB      0FFh
DFCE: FF                                DB      0FFh
DFCF: FF                                DB      0FFh
DFD0: FF                                DB      0FFh
DFD1: FF                                DB      0FFh
DFD2: FF                                DB      0FFh
DFD3: FF                                DB      0FFh
DFD4: FF                                DB      0FFh
DFD5: FF                                DB      0FFh
DFD6: FF                                DB      0FFh
DFD7: FF                                DB      0FFh
DFD8: FF                                DB      0FFh
DFD9: FF                                DB      0FFh
DFDA: FF                                DB      0FFh
DFDB: FF                                DB      0FFh
DFDC: FF                                DB      0FFh
DFDD: FF                                DB      0FFh
DFDE: FF                                DB      0FFh
DFDF: FF                                DB      0FFh
DFE0: FF                                DB      0FFh
DFE1: FF                                DB      0FFh
DFE2: FF                                DB      0FFh
DFE3: FF                                DB      0FFh
DFE4: FF                                DB      0FFh
DFE5: FF                                DB      0FFh
DFE6: FF                                DB      0FFh
DFE7: FF                                DB      0FFh
DFE8: FF                                DB      0FFh
DFE9: FF                                DB      0FFh
DFEA: FF                                DB      0FFh
DFEB: FF                                DB      0FFh
DFEC: FF                                DB      0FFh
DFED: FF                                DB      0FFh
DFEE: FF                                DB      0FFh
DFEF: FF                                DB      0FFh
DFF0: FF                                DB      0FFh
DFF1: FF                                DB      0FFh
DFF2: FF                                DB      0FFh
DFF3: FF                                DB      0FFh
DFF4: FF                                DB      0FFh
DFF5: FF                                DB      0FFh
DFF6: FF                                DB      0FFh
DFF7: FF                                DB      0FFh
DFF8: FF                                DB      0FFh
DFF9: FF                                DB      0FFh
DFFA: FF                                DB      0FFh
DFFB: FF                                DB      0FFh
DFFC: FF                                DB      0FFh
DFFD: FF                                DB      0FFh
DFFE: FF                                DB      0FFh
DFFF: FF                                DB      0FFh

                                        ; Entry Point
                                        ; --- START PROC 0E000h ---
E000: C3 BE F2                   0E000h:        JP      0F2BEh

                                        ; Referenced from 0D724h, 0ED61h, 0F2BAh, 0F1DCh, 0F2F3h, 0FF61h
                                        ; --- START PROC 0E003h ---
E003: ED 7B 31 01                0E003h:        LD      SP,(0131h)
E007: CD 6C EF                          CALL    0EF6Ch
E00A: CD 0F ED                          CALL    0ED0Fh

                                        ; Referenced from 0E08Ah
                                        ; --- START PROC 0E00Dh ---
E00D: 00                         0E00Dh:        NOP
E00E: 00                                NOP
E00F: CD 8A EC                          CALL    0EC8Ah
E012: 21 40 AB                          LD      HL,0AB40h       ; address or value?
E015: 36 2D                             LD      (HL),2Dh        ; '-'
E017: 54                                LD      D,H
E018: 5D                                LD      E,L
E019: 01 3F 00                          LD      BC,003Fh        ; address or value?
E01C: 13                                INC     DE
E01D: C3 DF F1                          JP      0F1DFh

                                        ; Referenced from 0E04Dh, 0E07Ah
                                        ; Entry Point
                                        ; --- START PROC 0E020h ---
E020: C3 D9 F1                   0E020h:        JP      0F1D9h

E023: CD                         0E023h:        DB      0CDh
E024: 8A                                DB      8Ah
E025: EC                                DB      0ECh
E026: 11                                DB      11h
E027: A7                                DB      0A7h
E028: A9                                DB      0A9h
E029: 21                                DB      21h     ; '!'
E02A: C7                                DB      0C7h
E02B: E0                                DB      0E0h
E02C: CD                                DB      0CDh
E02D: C0                                DB      0C0h
E02E: E0                                DB      0E0h
E02F: C3                                DB      0C3h
E030: 3F                                DB      3Fh     ; '?'
E031: ED                                DB      0EDh

                                        ; Entry Point
                                        ; --- START PROC 0E032h ---
E032: CD 8A EC                   0E032h:        CALL    0EC8Ah
E035: CD 8B E1                          CALL    0E18Bh
E038: 21 BB 00                          LD      HL,00BBh        ; address or value?
E03B: 01 0C 00                          LD      BC,000Ch        ; address or value?
E03E: CD 72 E1                          CALL    0E172h
E041: CD 44 E1                          CALL    0E144h
E044: 21 C7 00                          LD      HL,00C7h        ; address or value?
E047: BE                                CP      (HL)
E048: 28 05                             JR      Z,0E04Fh

                                        ; Referenced from 0E06Ah
                                        ; Entry Point
                                        ; --- START PROC 0E04Ah ---
E04A: CD DF E0                   0E04Ah:        CALL    0E0DFh
E04D: 18 D1                             JR      0E020h

                                        ; Referenced from 0E048h
                                        ; Entry Point
                                        ; --- START PROC 0E04Fh ---
E04F: 2A C1 00                   0E04Fh:        LD      HL,(00C1h)
E052: ED 4B BD 00                       LD      BC,(00BDh)
E056: CD 72 E1                          CALL    0E172h
E059: 2A C3 00                          LD      HL,(00C3h)
E05C: ED 4B BF 00                       LD      BC,(00BFh)
E060: CD 72 E1                          CALL    0E172h
E063: CD 44 E1                          CALL    0E144h
E066: 21 C7 00                          LD      HL,00C7h        ; address or value?
E069: BE                                CP      (HL)
E06A: 20 DE                             JR      NZ,0E04Ah
E06C: 21 F5 E0                          LD      HL,0E0F5h       ; address or value?
E06F: CD E2 E0                          CALL    0E0E2h
E072: 2A C5 00                          LD      HL,(00C5h)
E075: AF                                XOR     A
E076: 85                                ADD     A,L
E077: 20 03                             JR      NZ,0E07Ch
E079: 84                                ADD     A,H
E07A: 28 A4                             JR      Z,0E020h

                                        ; Referenced from 0E077h
E07C: 21 99 E0                   0E07Ch:        LD      HL,0E099h   ; address or value?
E07F: CD BD E0                          CALL    0E0BDh
E082: CD 5B E3                          CALL    0E35Bh
E085: 3A D5 AB                          LD      A,(0ABD5h)
E088: FE 59                             CP      59h     ; 'Y'
E08A: 20 81                             JR      NZ,0E00Dh
E08C: CD 8A EC                          CALL    0EC8Ah
E08F: CD 6F EC                          CALL    0EC6Fh
E092: CD 8A EC                          CALL    0EC8Ah
E095: 2A C5 00                          LD      HL,(00C5h)
E098: E9                                JP      (HL)

E099: 45 58 45 43 55 54 45 20    0E099h:        DB      "EXECUTE ? (Y/N) "
E0A1: 3F 20 28 59 2F 4E 29 20
E0A9: A0                                DB      0A0h
E0AA: 54 41 50 45 20 4F 52 20           DB      "TAPE OR MONITOR ? "
E0B2: 4D 4F 4E 49 54 4F 52 20
E0BA: 3F 20
E0BC: A0                                DB      0A0h


                                        ; Referenced from 0D7CFh, 0E07Fh, 0E2A2h, 0FFE5h
                                        ; --- START PROC 0E0BDh ---
E0BD: 11 C5 AB                   0E0BDh:        LD      DE,0ABC5h   ; address or value?

                                        ; Referenced from 0E0C5h, 0FFE2h
                                        ; --- START PROC 0E0C0h ---
E0C0: CB 7E                      0E0C0h:        BIT     7,(HL)
E0C2: C0                                RET     NZ
E0C3: ED A0                             LDI
E0C5: 18 F9                             JR      0E0C0h

E0C7: 4D 4F 4E 49 54 4F 52 20    0E0C7h:        DB      "MONITOR READY"
E0CF: 52 45 41 44 59
E0D4: A0                                DB      0A0h
E0D5: 52 45 41 44 20 45 52 52           DB      "READ ERROR"
E0DD: 4F 52


                                        ; Referenced from 0E04Ah
                                        ; --- START PROC 0E0DFh ---
E0DF: 21 D5 E0                   0E0DFh:        LD      HL,0E0D5h   ; address or value?

                                        ; Referenced from 0E06Fh
                                        ; --- START PROC 0E0E2h ---
E0E2: 01 0A 00                   0E0E2h:        LD      BC,000Ah    ; address or value?
E0E5: 3E 07                             LD      A,07h
E0E7: D3 DB                             OUT     (0DBh),A
E0E9: 11 A7 A9                          LD      DE,0A9A7h       ; address or value?
E0EC: ED B0                             LDIR
E0EE: 21 A0 A0                          LD      HL,0A0A0h       ; address or value?
E0F1: CD BE E1                          CALL    0E1BEh
E0F4: C9                                RET

E0F5: 45 4E 44 20 52 45 41 44    0E0F5h:        DB      "END READ  "
E0FD: 20 20

                                        ; Entry Point
                                        ; --- START PROC 0E0FFh ---
E0FF: F5                         0E0FFh:        PUSH    AF
E100: 3A CA 00                          LD      A,(00CAh)
E103: 3C                                INC     A
E104: 32 CA 00                          LD      (00CAh),A
E107: F1                                POP     AF
E108: FB                                EI
E109: ED 4D                             RETI

                                        ; Entry Point
                                        ; --- START PROC 0E10Bh ---
E10B: F5                         0E10Bh:        PUSH    AF
E10C: 3E 01                             LD      A,01h
E10E: 32 C9 00                          LD      (00C9h),A
E111: F1                                POP     AF
E112: FB                                EI
E113: ED 4D                             RETI

                                        ; Referenced from 0E1BAh, 0E11Ah
                                        ; --- START PROC 0E115h ---
E115: 3A CA 00                   0E115h:        LD      A,(00CAh)
E118: FE 46                             CP      46h     ; 'F'
E11A: FA 15 E1                          JP      M,0E115h
E11D: 21 0B E1                          LD      HL,0E10Bh       ; address or value?
E120: 22 72 00                          LD      (0072h),HL

                                        ; Referenced from 0E140h
E123: AF                         0E123h:        XOR     A
E124: 32 CA 00                          LD      (00CAh),A
E127: 32 C9 00                          LD      (00C9h),A

                                        ; Referenced from 0E139h
E12A: 3A CA 00                   0E12Ah:        LD      A,(00CAh)
E12D: 3C                                INC     A
E12E: 32 CA 00                          LD      (00CAh),A
E131: CD F5 E2                          CALL    0E2F5h
E134: 3A C9 00                          LD      A,(00C9h)
E137: FE 00                             CP      00h
E139: 28 EF                             JR      Z,0E12Ah
E13B: 3A CA 00                          LD      A,(00CAh)
E13E: FE 40                             CP      40h     ; '@'
E140: FA 23 E1                          JP      M,0E123h
E143: C9                                RET

                                        ; Referenced from 0E041h, 0E063h, 0E17Ah, 0E765h
                                        ; --- START PROC 0E144h ---
E144: 06 08                      0E144h:        LD      B,08h
E146: 0E 00                             LD      C,00h

                                        ; Referenced from 0E16Eh
E148: AF                         0E148h:        XOR     A
E149: 32 CA 00                          LD      (00CAh),A
E14C: 32 C9 00                          LD      (00C9h),A
E14F: CB 09                             RRC     C
E151: C5                                PUSH    BC

                                        ; Referenced from 0E161h
E152: 3A CA 00                   0E152h:        LD      A,(00CAh)
E155: 3C                                INC     A
E156: 32 CA 00                          LD      (00CAh),A
E159: CD F5 E2                          CALL    0E2F5h
E15C: 3A C9 00                          LD      A,(00C9h)
E15F: FE 00                             CP      00h
E161: 28 EF                             JR      Z,0E152h
E163: C1                                POP     BC
E164: 3A CA 00                          LD      A,(00CAh)
E167: FE 08                             CP      08h
E169: FA 6E E1                          JP      M,0E16Eh
E16C: CB F9                             SET     7,C

                                        ; Referenced from 0E169h
E16E: 10 D8                      0E16Eh:        DJNZ    0E148h
E170: 79                                LD      A,C
E171: C9                                RET

                                        ; Referenced from 0E03Eh, 0E056h, 0E060h, 0E189h, 0E762h
                                        ; --- START PROC 0E172h ---
E172: AF                         0E172h:        XOR     A
E173: B8                                CP      B
E174: 20 02                             JR      NZ,0E178h
E176: B9                                CP      C
E177: C8                                RET     Z

                                        ; Referenced from 0E174h
E178: C5                         0E178h:        PUSH    BC
E179: E5                                PUSH    HL
E17A: CD 44 E1                          CALL    0E144h
E17D: E1                                POP     HL
E17E: C1                                POP     BC
E17F: 77                                LD      (HL),A
E180: 3A C7 00                          LD      A,(00C7h)
E183: 86                                ADD     A,(HL)
E184: 32 C7 00                          LD      (00C7h),A
E187: 23                                INC     HL
E188: 0B                                DEC     BC
E189: 18 E7                             JR      0E172h

                                        ; Referenced from 0E035h, 0E758h
                                        ; --- START PROC 0E18Bh ---
E18B: 3E FF                      0E18Bh:        LD      A,0FFh
E18D: D3 DB                             OUT     (0DBh),A
E18F: 3E 55                             LD      A,55h   ; 'U'
E191: D3 DB                             OUT     (0DBh),A
E193: 21 FF E0                          LD      HL,0E0FFh       ; address or value?
E196: 22 72 00                          LD      (0072h),HL
E199: 3E 72                             LD      A,72h   ; 'r'
E19B: D3 DB                             OUT     (0DBh),A
E19D: 3E 97                             LD      A,97h
E19F: D3 DB                             OUT     (0DBh),A
E1A1: 3E FE                             LD      A,0FEh
E1A3: D3 DB                             OUT     (0DBh),A
E1A5: 21 A0 A0                          LD      HL,0A0A0h       ; address or value?
E1A8: 3E 20                             LD      A,20h   ; ' '
E1AA: CD C8 E1                          CALL    0E1C8h
E1AD: 21 01 01                          LD      HL,0101h        ; address or value?
E1B0: 22 B2 00                          LD      (00B2h),HL
E1B3: AF                                XOR     A
E1B4: 32 C7 00                          LD      (00C7h),A
E1B7: 32 CA 00                          LD      (00CAh),A
E1BA: CD 15 E1                          CALL    0E115h
E1BD: C9                                RET

                                        ; Referenced from 0E6FFh, 0E2D7h, 0E0F1h
                                        ; --- START PROC 0E1BEh ---
E1BE: 22 B2 00                   0E1BEh:        LD      (00B2h),HL
E1C1: CD F5 E2                          CALL    0E2F5h
E1C4: AF                                XOR     A
E1C5: D3 D9                             OUT     (0D9h),A
E1C7: C9                                RET

                                        ; Referenced from 0E1E2h, 0E1AAh
                                        ; --- START PROC 0E1C8h ---
E1C8: 22 B2 00                   0E1C8h:        LD      (00B2h),HL
E1CB: D3 D9                             OUT     (0D9h),A
E1CD: CD F5 E2                          CALL    0E2F5h
E1D0: C9                                RET

                                        ; Referenced from 0E6E0h, 0E2C3h
                                        ; --- START PROC 0E1D1h ---
E1D1: 3E FF                      0E1D1h:        LD      A,0FFh
E1D3: D3 DB                             OUT     (0DBh),A
E1D5: 3E 55                             LD      A,55h   ; 'U'
E1D7: D3 DB                             OUT     (0DBh),A
E1D9: 3E 07                             LD      A,07h
E1DB: D3 DB                             OUT     (0DBh),A
E1DD: 21 B0 B0                          LD      HL,0B0B0h       ; address or value?
E1E0: 3E 08                             LD      A,08h
E1E2: CD C8 E1                          CALL    0E1C8h
E1E5: 3E 01                             LD      A,01h
E1E7: 32 B3 00                          LD      (00B3h),A
E1EA: 06 50                             LD      B,50h   ; 'P'
E1EC: 3E 50                             LD      A,50h   ; 'P'
E1EE: 32 CB 00                          LD      (00CBh),A
E1F1: CD 3D E2                          CALL    0E23Dh
E1F4: 3E A0                             LD      A,0A0h
E1F6: 32 CB 00                          LD      (00CBh),A
E1F9: 06 01                             LD      B,01h
E1FB: CD 3D E2                          CALL    0E23Dh
E1FE: AF                                XOR     A
E1FF: 32 C7 00                          LD      (00C7h),A
E202: C9                                RET

                                        ; Referenced from 0E2C6h
                                        ; Entry Point
                                        ; --- START PROC 0E203h ---
E203: 21 BB 00                   0E203h:        LD      HL,00BBh    ; address or value?
E206: 06 0C                             LD      B,0Ch

                                        ; Referenced from 0E210h
E208: E5                         0E208h:        PUSH    HL
E209: C5                                PUSH    BC
E20A: CD 70 E2                          CALL    0E270h
E20D: C1                                POP     BC
E20E: E1                                POP     HL
E20F: 23                                INC     HL
E210: 10 F6                             DJNZ    0E208h
E212: 21 C7 00                          LD      HL,00C7h        ; address or value?
E215: CD 77 E2                          CALL    0E277h
E218: ED 4B BD 00                       LD      BC,(00BDh)
E21C: 2A C1 00                          LD      HL,(00C1h)
E21F: CD 5F E2                          CALL    0E25Fh
E222: ED 4B BF 00                       LD      BC,(00BFh)
E226: 2A C3 00                          LD      HL,(00C3h)
E229: CD 5F E2                          CALL    0E25Fh
E22C: 21 C7 00                          LD      HL,00C7h        ; address or value?
E22F: CD 77 E2                          CALL    0E277h
E232: 06 50                             LD      B,50h   ; 'P'
E234: 3E 50                             LD      A,50h   ; 'P'
E236: 32 CB 00                          LD      (00CBh),A
E239: CD 3D E2                          CALL    0E23Dh
E23C: C9                                RET

                                        ; Referenced from 0E6F9h, 0E239h, 0E1F1h, 0E1FBh, 0E295h, 0E25Ch
                                        ; --- START PROC 0E23Dh ---
E23D: C5                         0E23Dh:        PUSH    BC
E23E: 3A CB 00                          LD      A,(00CBh)
E241: 32 B2 00                          LD      (00B2h),A
E244: CD F5 E2                          CALL    0E2F5h
E247: DB D9                             IN      A,(0D9h)
E249: F6 02                             OR      02h
E24B: D3 D9                             OUT     (0D9h),A
E24D: 3E 01                             LD      A,01h
E24F: 32 B2 00                          LD      (00B2h),A
E252: CD F5 E2                          CALL    0E2F5h
E255: DB D9                             IN      A,(0D9h)
E257: E6 FD                             AND     0FDh
E259: D3 D9                             OUT     (0D9h),A
E25B: C1                                POP     BC
E25C: 10 DF                             DJNZ    0E23Dh
E25E: C9                                RET

                                        ; Referenced from 0E6EAh, 0E21Fh, 0E229h, 0E26Eh
                                        ; --- START PROC 0E25Fh ---
E25F: AF                         0E25Fh:        XOR     A
E260: B8                                CP      B
E261: 20 02                             JR      NZ,0E265h
E263: B9                                CP      C
E264: C8                                RET     Z

                                        ; Referenced from 0E261h
E265: E5                         0E265h:        PUSH    HL
E266: C5                                PUSH    BC
E267: CD 70 E2                          CALL    0E270h
E26A: C1                                POP     BC
E26B: E1                                POP     HL
E26C: 23                                INC     HL
E26D: 0B                                DEC     BC
E26E: 18 EF                             JR      0E25Fh

                                        ; Referenced from 0E20Ah, 0E267h
                                        ; --- START PROC 0E270h ---
E270: 3A C7 00                   0E270h:        LD      A,(00C7h)
E273: 86                                ADD     A,(HL)
E274: 32 C7 00                          LD      (00C7h),A

                                        ; Referenced from 0E6F0h, 0E215h, 0E22Fh
                                        ; --- START PROC 0E277h ---
E277: 7E                         0E277h:        LD      A,(HL)
E278: 32 C8 00                          LD      (00C8h),A
E27B: 06 08                             LD      B,08h

                                        ; Referenced from 0E299h
E27D: C5                         0E27Dh:        PUSH    BC
E27E: 3E 12                             LD      A,12h
E280: 32 CB 00                          LD      (00CBh),A
E283: 3A C8 00                          LD      A,(00C8h)
E286: 0F                                RRCA
E287: 32 C8 00                          LD      (00C8h),A
E28A: CB 7F                             BIT     7,A
E28C: 20 05                             JR      NZ,0E293h
E28E: 3E 06                             LD      A,06h
E290: 32 CB 00                          LD      (00CBh),A

                                        ; Referenced from 0E28Ch
E293: 06 01                      0E293h:        LD      B,01h
E295: CD 3D E2                          CALL    0E23Dh
E298: C1                                POP     BC
E299: 10 E2                             DJNZ    0E27Dh
E29B: C9                                RET

                                        ; Entry Point
                                        ; --- START PROC 0E29Ch ---
E29C: CD 8A EC                   0E29Ch:        CALL    0EC8Ah
E29F: 21 E6 E2                          LD      HL,0E2E6h       ; address or value?
E2A2: CD BD E0                          CALL    0E0BDh
E2A5: CD 5B E3                          CALL    0E35Bh
E2A8: 3A D4 AB                          LD      A,(0ABD4h)
E2AB: FE 20                             CP      20h     ; ' '
E2AD: 28 11                             JR      Z,0E2C0h
E2AF: 44                                LD      B,H
E2B0: 4D                                LD      C,L
E2B1: 22 BF 00                          LD      (00BFh),HL
E2B4: 11 46 A8                          LD      DE,0A846h       ; address or value?
E2B7: ED 53 C3 00                       LD      (00C3h),DE
E2BB: 21 D4 AB                          LD      HL,0ABD4h       ; address or value?
E2BE: ED B0                             LDIR

                                        ; Referenced from 0E2ADh
E2C0: CD 4B EC                   0E2C0h:        CALL    0EC4Bh
E2C3: CD D1 E1                          CALL    0E1D1h
E2C6: CD 03 E2                          CALL    0E203h
E2C9: 21 DD E2                          LD      HL,0E2DDh       ; address or value?
E2CC: 01 09 00                          LD      BC,0009h        ; address or value?
E2CF: 11 A7 A9                          LD      DE,0A9A7h       ; address or value?
E2D2: ED B0                             LDIR
E2D4: 21 B0 B0                          LD      HL,0B0B0h       ; address or value?
E2D7: CD BE E1                          CALL    0E1BEh
E2DA: C3 D9 F1                          JP      0F1D9h

E2DD: 45 4E 44 20 57 52 49 54    0E2DDh:        DB      "END WRITEPROGRAM NAME ? "
E2E5: 45 50 52 4F 47 52 41 4D
E2ED: 20 4E 41 4D 45 20 3F 20


                                        ; Referenced from 0FFDFh, 0E244h, 0E252h, 0E1C1h, 0E159h, 0EAA4h, 0EAAAh, 0E1CDh, 0E131h, 0EAD7h, 0EACBh, 0F191h, 0F1B0h
                                        ; --- START PROC 0E2F5h ---
E2F5: D9                         0E2F5h:        EXX
E2F6: ED 5B B2 00                       LD      DE,(00B2h)
E2FA: 1C                                INC     E

                                        ; Referenced from 0E306h
E2FB: 1D                         0E2FBh:        DEC     E
E2FC: 20 02                             JR      NZ,0E300h
E2FE: D9                                EXX
E2FF: C9                                RET

                                        ; Referenced from 0E2FCh
E300: 3A B3 00                   0E300h:        LD      A,(00B3h)
E303: 57                                LD      D,A
E304: 14                                INC     D

                                        ; Referenced from 0E30Bh
E305: 15                         0E305h:        DEC     D
E306: 28 F3                             JR      Z,0E2FBh
E308: CD 0D E3                          CALL    0E30Dh
E30B: 18 F8                             JR      0E305h

                                        ; Referenced from 0E308h
                                        ; --- START PROC 0E30Dh ---
E30D: 06 04                      0E30Dh:        LD      B,04h

                                        ; Referenced from 0E30Fh
E30F: 10 FE                      0E30Fh:        DJNZ    0E30Fh
E311: C9                                RET

                                        ; Referenced from 0FFDCh, 0E5B2h
                                        ; --- START PROC 0E312h ---
E312: AF                         0E312h:        XOR     A

                                        ; Referenced from 0E322h, 0E326h
E313: 1A                         0E313h:        LD      A,(DE)
E314: 8E                                ADC     A,(HL)
E315: 27                                DAA
E316: 12                                LD      (DE),A
E317: 10 01                             DJNZ    0E31Ah
E319: C9                                RET

                                        ; Referenced from 0E317h
E31A: 0D                         0E31Ah:        DEC     C
E31B: 20 07                             JR      NZ,0E324h
E31D: 0C                                INC     C
E31E: 21 47 E1                          LD      HL,0E147h       ; address or value?
E321: 1B                                DEC     DE
E322: 18 EF                             JR      0E313h

                                        ; Referenced from 0E31Bh
E324: 1B                         0E324h:        DEC     DE
E325: 2B                                DEC     HL
E326: 18 EB                             JR      0E313h

                                        ; Referenced from 0FFD9h, 0E5C4h, 0E5EAh
                                        ; --- START PROC 0E328h ---
E328: AF                         0E328h:        XOR     A

                                        ; Referenced from 0E338h, 0E33Ch
E329: 1A                         0E329h:        LD      A,(DE)
E32A: 9E                                SBC     A,(HL)
E32B: 27                                DAA
E32C: 12                                LD      (DE),A
E32D: 10 01                             DJNZ    0E330h
E32F: C9                                RET

                                        ; Referenced from 0E32Dh
E330: 0D                         0E330h:        DEC     C
E331: 20 07                             JR      NZ,0E33Ah
E333: 0C                                INC     C
E334: 21 47 E1                          LD      HL,0E147h       ; address or value?
E337: 1B                                DEC     DE
E338: 18 EF                             JR      0E329h

                                        ; Referenced from 0E331h
E33A: 1B                         0E33Ah:        DEC     DE
E33B: 2B                                DEC     HL
E33C: 18 EB                             JR      0E329h

                                        ; Referenced from 0E346h, 0FFD6h
                                        ; Entry Point
                                        ; --- START PROC 0E33Eh ---
E33E: 1A                         0E33Eh:        LD      A,(DE)
E33F: E6 0F                             AND     0Fh
E341: C0                                RET     NZ
E342: 3E 20                             LD      A,20h   ; ' '
E344: 12                                LD      (DE),A
E345: 13                                INC     DE
E346: 10 F6                             DJNZ    0E33Eh
E348: C9                                RET

                                        ; Referenced from 0FFD3h, 0D369h, 0D6C8h, 0E34Eh
                                        ; --- START PROC 0E349h ---
E349: 1A                         0E349h:        LD      A,(DE)
E34A: BE                                CP      (HL)
E34B: C0                                RET     NZ
E34C: 23                                INC     HL
E34D: 13                                INC     DE
E34E: 10 F9                             DJNZ    0E349h
E350: C9                                RET

                                        ; Referenced from 0E3CEh
                                        ; --- START PROC 0E351h ---
E351: ED 52                      0E351h:        SBC     HL,DE
E353: C0                                RET     NZ
E354: 21 01 00                          LD      HL,0001h        ; address or value?
E357: C9                                RET

                                        ; Referenced from 0FFD0h
                                        ; Entry Point
                                        ; --- START PROC 0E358h ---
E358: 11 C4 AB                   0E358h:        LD      DE,0ABC4h   ; address or value?

                                        ; Referenced from 0D200h, 0D278h, 0D327h, 0D38Bh, 0D414h, 0D495h, 0D4B0h, 0D4FFh, 0E082h, 0E2A5h, 0D198h, 0D671h, 0FFCDh
                                        ; --- START PROC 0E35Bh ---
E35B: 21 FC AB                   0E35Bh:        LD      HL,0ABFCh   ; address or value?

                                        ; Referenced from 0D542h, 0FFCAh
                                        ; --- START PROC 0E35Eh ---
E35E: ED 53 B7 00                0E35Eh:        LD      (00B7h),DE
E362: A7                                AND     A
E363: ED 52                             SBC     HL,DE
E365: 7D                                LD      A,L
E366: 32 B9 00                          LD      (00B9h),A

                                        ; Referenced from 0FFC7h, 0E39Ch
                                        ; --- START PROC 0E369h ---
E369: 3A B9 00                   0E369h:        LD      A,(00B9h)
E36C: 47                                LD      B,A
E36D: 2A B7 00                          LD      HL,(00B7h)
E370: AF                                XOR     A
E371: 32 B6 00                          LD      (00B6h),A

                                        ; Referenced from 0E3DFh, 0E3BCh, 0E3C2h, 0E3B6h
                                        ; --- START PROC 0E374h ---
E374: CB FE                      0E374h:        SET     7,(HL)
E376: CD 98 EC                          CALL    0EC98h
E379: E5                                PUSH    HL
E37A: C5                                PUSH    BC
E37B: 21 E8 E3                          LD      HL,0E3E8h       ; address or value?
E37E: 01 18 00                          LD      BC,0018h        ; address or value?
E381: ED B1                             CPIR
E383: C1                                POP     BC
E384: E1                                POP     HL
E385: 20 05                             JR      NZ,0E38Ch
E387: 32 B6 00                          LD      (00B6h),A
E38A: 18 38                             JR      0E3C4h

                                        ; Referenced from 0E385h
E38C: FE 1A                      0E38Ch:        CP      1Ah
E38E: 20 0E                             JR      NZ,0E39Eh
E390: CB BE                             RES     7,(HL)
E392: 2A B7 00                          LD      HL,(00B7h)
E395: 3A B9 00                          LD      A,(00B9h)
E398: 47                                LD      B,A
E399: CD D3 E3                          CALL    0E3D3h
E39C: 18 CB                             JR      0E369h

                                        ; Referenced from 0E38Eh
E39E: FE 0D                      0E39Eh:        CP      0Dh
E3A0: 28 22                             JR      Z,0E3C4h
E3A2: FE 7F                             CP      7Fh     ; ''
E3A4: 28 35                             JR      Z,0E3DBh
E3A6: FE 3C                             CP      3Ch     ; '<'
E3A8: 28 0E                             JR      Z,0E3B8h
E3AA: 10 02                             DJNZ    0E3AEh
E3AC: 18 13                             JR      0E3C1h

                                        ; Referenced from 0E3AAh
E3AE: FE 3E                      0E3AEh:        CP      3Eh     ; '>'
E3B0: 28 01                             JR      Z,0E3B3h
E3B2: 77                                LD      (HL),A

                                        ; Referenced from 0E3B0h
E3B3: CB BE                      0E3B3h:        RES     7,(HL)
E3B5: 23                                INC     HL
E3B6: 18 BC                             JR      0E374h

                                        ; Referenced from 0E3A8h
E3B8: 3A B9 00                   0E3B8h:        LD      A,(00B9h)
E3BB: B8                                CP      B
E3BC: 28 B6                             JR      Z,0E374h
E3BE: CB BE                             RES     7,(HL)
E3C0: 2B                                DEC     HL

                                        ; Referenced from 0E3ACh, 0E3E6h
                                        ; --- START PROC 0E3C1h ---
E3C1: 04                         0E3C1h:        INC     B
E3C2: 18 B0                             JR      0E374h

                                        ; Referenced from 0E38Ah, 0E3A0h
                                        ; --- START PROC 0E3C4h ---
E3C4: E5                         0E3C4h:        PUSH    HL
E3C5: CD D1 E3                          CALL    0E3D1h
E3C8: E1                                POP     HL
E3C9: ED 5B B7 00                       LD      DE,(00B7h)
E3CD: A7                                AND     A
E3CE: C3 51 E3                          JP      0E351h

                                        ; Referenced from 0E3C5h
                                        ; --- START PROC 0E3D1h ---
E3D1: CB BE                      0E3D1h:        RES     7,(HL)

                                        ; Referenced from 0E399h, 0E3D9h
                                        ; --- START PROC 0E3D3h ---
E3D3: 10 01                      0E3D3h:        DJNZ    0E3D6h
E3D5: C9                                RET

                                        ; Referenced from 0E3D3h
E3D6: 36 20                      0E3D6h:        LD      (HL),20h    ; ' '
E3D8: 23                                INC     HL
E3D9: 18 F8                             JR      0E3D3h

                                        ; Referenced from 0E3A4h
                                        ; --- START PROC 0E3DBh ---
E3DB: 3A B9 00                   0E3DBh:        LD      A,(00B9h)
E3DE: B8                                CP      B
E3DF: 28 93                             JR      Z,0E374h
E3E1: CB BE                             RES     7,(HL)
E3E3: 2B                                DEC     HL
E3E4: 36 A0                             LD      (HL),0A0h
E3E6: 18 D9                             JR      0E3C1h

E3E8: 01                         0E3E8h:        DB      01h
E3E9: 02                                DB      02h
E3EA: 03                                DB      03h
E3EB: 04                                DB      04h
E3EC: 05                                DB      05h
E3ED: 06                                DB      06h
E3EE: 07                                DB      07h
E3EF: 08                                DB      08h
E3F0: 09                                DB      09h
E3F1: 0A                                DB      0Ah
E3F2: 0B                                DB      0Bh
E3F3: 0C                                DB      0Ch
E3F4: 0E                                DB      0Eh
E3F5: 0F                                DB      0Fh
E3F6: 10                                DB      10h
E3F7: 11                                DB      11h
E3F8: 12                                DB      12h
E3F9: 13                                DB      13h
E3FA: 14                                DB      14h
E3FB: 15                                DB      15h
E3FC: 16                                DB      16h
E3FD: 17                                DB      17h
E3FE: 18                                DB      18h
E3FF: 19                                DB      19h


                                        ; Referenced from 0E4F5h, 0E4F9h, 0E4D0h, 0E4D9h, 0E4DEh, 0E41Ah, 0E41Dh
                                        ; --- START PROC 0E400h ---
E400: 7E                         0E400h:        LD      A,(HL)
E401: E6 3F                             AND     3Fh     ; '?'
E403: 4F                                LD      C,A
E404: CB 76                             BIT     6,(HL)
E406: 28 02                             JR      Z,0E40Ah
E408: CB A9                             RES     5,C

                                        ; Referenced from 0E406h
E40A: 06 00                      0E40Ah:        LD      B,00h
E40C: 0C                                INC     C
E40D: 09                                ADD     HL,BC
E40E: EB                                EX      DE,HL
E40F: C9                                RET

                                        ; Referenced from 0E422h, 0E44Fh, 0E42Fh
                                        ; --- START PROC 0E410h ---
E410: CB AE                      0E410h:        RES     5,(HL)
E412: EB                                EX      DE,HL
E413: CB 6E                             BIT     5,(HL)
E415: EB                                EX      DE,HL
E416: 28 02                             JR      Z,0E41Ah
E418: CB EE                             SET     5,(HL)

                                        ; Referenced from 0E416h
E41A: CD 00 E4                   0E41Ah:        CALL    0E400h
E41D: CD 00 E4                          CALL    0E400h
E420: 41                                LD      B,C
E421: C9                                RET

                                        ; Referenced from 0E4BEh
                                        ; --- START PROC 0E422h ---
E422: CD 10 E4                   0E422h:        CALL    0E410h

                                        ; Referenced from 0E42Ch
E425: 1A                         0E425h:        LD      A,(DE)
E426: 77                                LD      (HL),A
E427: 2B                                DEC     HL
E428: CB 76                             BIT     6,(HL)
E42A: C0                                RET     NZ
E42B: 1B                                DEC     DE
E42C: 10 F7                             DJNZ    0E425h
E42E: C9                                RET

                                        ; Referenced from 0E4CBh
                                        ; --- START PROC 0E42Fh ---
E42F: CD 10 E4                   0E42Fh:        CALL    0E410h

                                        ; Referenced from 0E449h
E432: 1A                         0E432h:        LD      A,(DE)
E433: E6 0F                             AND     0Fh
E435: 10 02                             DJNZ    0E439h
E437: 18 14                             JR      0E44Dh

                                        ; Referenced from 0E435h
E439: 1B                         0E439h:        DEC     DE
E43A: 4F                                LD      C,A
E43B: 1A                                LD      A,(DE)
E43C: E6 0F                             AND     0Fh
E43E: 07                                RLCA
E43F: 07                                RLCA
E440: 07                                RLCA
E441: 07                                RLCA
E442: B1                                OR      C
E443: 77                                LD      (HL),A
E444: 2B                                DEC     HL
E445: CB 76                             BIT     6,(HL)
E447: C0                                RET     NZ
E448: 1B                                DEC     DE
E449: 10 E7                             DJNZ    0E432h
E44B: 18 01                             JR      0E44Eh

                                        ; Referenced from 0E437h
E44D: 77                         0E44Dh:        LD      (HL),A

                                        ; Referenced from 0E44Bh
                                        ; --- START PROC 0E44Eh ---
E44E: C9                         0E44Eh:        RET

                                        ; Referenced from 0E4C7h
                                        ; --- START PROC 0E44Fh ---
E44F: CD 10 E4                   0E44Fh:        CALL    0E410h

                                        ; Referenced from 0E474h
E452: 3E 01                      0E452h:        LD      A,01h
E454: 32 CE 00                          LD      (00CEh),A
E457: 1A                                LD      A,(DE)
E458: 4F                                LD      C,A

                                        ; Referenced from 0E471h
E459: E6 0F                      0E459h:        AND     0Fh
E45B: B6                                OR      (HL)
E45C: 77                                LD      (HL),A
E45D: 2B                                DEC     HL
E45E: CB 76                             BIT     6,(HL)
E460: C0                                RET     NZ
E461: 3A CE 00                          LD      A,(00CEh)
E464: FE 00                             CP      00h
E466: 28 0B                             JR      Z,0E473h
E468: AF                                XOR     A
E469: 32 CE 00                          LD      (00CEh),A
E46C: 79                                LD      A,C
E46D: 0F                                RRCA
E46E: 0F                                RRCA
E46F: 0F                                RRCA
E470: 0F                                RRCA
E471: 18 E6                             JR      0E459h

                                        ; Referenced from 0E466h
E473: 1B                         0E473h:        DEC     DE
E474: 10 DC                             DJNZ    0E452h
E476: C9                                RET

                                        ; Referenced from 0E82Dh, 0E8E8h, 0FFC4h, 0E6A4h, 0E4ADh, 0E5C8h
                                        ; --- START PROC 0E477h ---
E477: E5                         0E477h:        PUSH    HL
E478: 7E                                LD      A,(HL)
E479: E6 3F                             AND     3Fh     ; '?'
E47B: 47                                LD      B,A
E47C: 04                                INC     B
E47D: CB 7E                             BIT     7,(HL)
E47F: 20 14                             JR      NZ,0E495h
E481: CB 76                             BIT     6,(HL)
E483: 20 04                             JR      NZ,0E489h
E485: 3E 20                             LD      A,20h   ; ' '
E487: 18 06                             JR      0E48Fh

                                        ; Referenced from 0E483h
E489: 3E 30                      0E489h:        LD      A,30h   ; '0'

                                        ; Referenced from 0E49Ah
E48B: CB A8                      0E48Bh:        RES     5,B
E48D: CB AE                             RES     5,(HL)

                                        ; Referenced from 0E487h, 0E498h, 0E491h
E48F: 23                         0E48Fh:        INC     HL
E490: 77                                LD      (HL),A
E491: 10 FC                             DJNZ    0E48Fh
E493: E1                                POP     HL
E494: C9                                RET

                                        ; Referenced from 0E47Fh
E495: AF                         0E495h:        XOR     A
E496: CB 76                             BIT     6,(HL)
E498: 28 F5                             JR      Z,0E48Fh
E49A: 18 EF                             JR      0E48Bh

                                        ; Referenced from 0E4BAh
                                        ; --- START PROC 0E49Ch ---
E49C: 1A                         0E49Ch:        LD      A,(DE)
E49D: BE                                CP      (HL)
E49E: FA A2 E4                          JP      M,0E4A2h
E4A1: 7E                                LD      A,(HL)

                                        ; Referenced from 0E49Eh
E4A2: 06 00                      0E4A2h:        LD      B,00h
E4A4: 4F                                LD      C,A
E4A5: 03                                INC     BC
E4A6: 13                                INC     DE
E4A7: 23                                INC     HL
E4A8: EB                                EX      DE,HL
E4A9: ED B0                             LDIR
E4AB: C9                                RET

                                        ; Referenced from 0D85Ch, 0FFC1h, 0F20Dh, 0F22Bh, 0E5EFh, 0F0F6h
                                        ; --- START PROC 0E4ACh ---
E4AC: EB                         0E4ACh:        EX      DE,HL
E4AD: CD 77 E4                          CALL    0E477h
E4B0: 7E                                LD      A,(HL)
E4B1: E6 C0                             AND     0C0h
E4B3: 4F                                LD      C,A
E4B4: 1A                                LD      A,(DE)
E4B5: E6 C0                             AND     0C0h
E4B7: 0F                                RRCA
E4B8: 0F                                RRCA
E4B9: B1                                OR      C
E4BA: 28 E0                             JR      Z,0E49Ch
E4BC: FE 50                             CP      50h     ; 'P'

                                        ; Referenced from 0E4C3h
E4BE: CA 22 E4                   0E4BEh:        JP      Z,0E422h
E4C1: FE F0                             CP      0F0h
E4C3: 28 F9                             JR      Z,0E4BEh
E4C5: FE 70                             CP      70h     ; 'p'
E4C7: 28 86                             JR      Z,0E44Fh
E4C9: FE D0                             CP      0D0h
E4CB: CA 2F E4                          JP      Z,0E42Fh
E4CE: C9                                RET

                                        ; Referenced from 0E66Eh, 0E827h, 0FFBEh, 0E5D0h
                                        ; --- START PROC 0E4CFh ---
E4CF: E5                         0E4CFh:        PUSH    HL
E4D0: CD 00 E4                          CALL    0E400h
E4D3: EB                                EX      DE,HL
E4D4: E1                                POP     HL
E4D5: 03                                INC     BC
E4D6: ED B0                             LDIR
E4D8: C9                                RET

                                        ; Referenced from 0E5AFh, 0E5C1h, 0E5E7h
                                        ; --- START PROC 0E4D9h ---
E4D9: CD 00 E4                   0E4D9h:        CALL    0E400h
E4DC: D5                                PUSH    DE
E4DD: 51                                LD      D,C
E4DE: CD 00 E4                          CALL    0E400h
E4E1: 41                                LD      B,C
E4E2: 4C                                LD      C,H
E4E3: E1                                POP     HL
E4E4: C9                                RET

                                        ; Referenced from 0E661h, 0E687h, 0FFBBh
                                        ; Entry Point
                                        ; --- START PROC 0E4E5h ---
E4E5: CB 76                      0E4E5h:        BIT     6,(HL)
E4E7: 20 32                             JR      NZ,0E51Bh
E4E9: 3E 20                             LD      A,20h   ; ' '
E4EB: CB 7E                             BIT     7,(HL)
E4ED: 28 01                             JR      Z,0E4F0h
E4EF: AF                                XOR     A

                                        ; Referenced from 0E4EDh
E4F0: 32 CD 00                   0E4F0h:        LD      (00CDh),A
E4F3: D5                                PUSH    DE
E4F4: E5                                PUSH    HL
E4F5: CD 00 E4                          CALL    0E400h
E4F8: C5                                PUSH    BC
E4F9: CD 00 E4                          CALL    0E400h
E4FC: 41                                LD      B,C
E4FD: E1                                POP     HL
E4FE: 4D                                LD      C,L
E4FF: E1                                POP     HL
E500: D1                                POP     DE

                                        ; Referenced from 0E509h, 0E50Fh, 0E519h
E501: 23                         0E501h:        INC     HL
E502: 13                                INC     DE
E503: 1A                                LD      A,(DE)
E504: BE                                CP      (HL)
E505: C0                                RET     NZ
E506: 0D                                DEC     C
E507: 28 08                             JR      Z,0E511h
E509: 10 F6                             DJNZ    0E501h
E50B: 11 CC 00                          LD      DE,00CCh        ; address or value?
E50E: 04                                INC     B
E50F: 18 F0                             JR      0E501h

                                        ; Referenced from 0E507h
E511: 10 02                      0E511h:        DJNZ    0E515h
E513: BF                                CP      A
E514: C9                                RET

                                        ; Referenced from 0E511h
E515: 21 CC 00                   0E515h:        LD      HL,00CCh    ; address or value?
E518: 0C                                INC     C
E519: 18 E6                             JR      0E501h

                                        ; Referenced from 0E4E7h
E51B: 1A                         0E51Bh:        LD      A,(DE)
E51C: E6 20                             AND     20h     ; ' '
E51E: 4F                                LD      C,A
E51F: 7E                                LD      A,(HL)
E520: E6 20                             AND     20h     ; ' '
E522: B9                                CP      C
E523: C0                                RET     NZ
E524: CB 6E                             BIT     5,(HL)
E526: 28 01                             JR      Z,0E529h
E528: EB                                EX      DE,HL

                                        ; Referenced from 0FFB8h, 0E526h, 0E5B7h
                                        ; --- START PROC 0E529h ---
E529: AF                         0E529h:        XOR     A
E52A: 32 F5 00                          LD      (00F5h),A
E52D: CB 7E                             BIT     7,(HL)
E52F: 20 02                             JR      NZ,0E533h
E531: 3E 30                             LD      A,30h   ; '0'

                                        ; Referenced from 0E52Fh
E533: 32 CD 00                   0E533h:        LD      (00CDh),A
E536: 1A                                LD      A,(DE)
E537: E6 1F                             AND     1Fh
E539: 3C                                INC     A
E53A: 47                                LD      B,A
E53B: 7E                                LD      A,(HL)
E53C: E6 1F                             AND     1Fh
E53E: 3C                                INC     A
E53F: 4F                                LD      C,A

                                        ; Referenced from 0E587h
E540: 79                         0E540h:        LD      A,C
E541: B8                                CP      B
E542: 28 11                             JR      Z,0E555h
E544: FA 89 E5                          JP      M,0E589h
E547: EB                                EX      DE,HL
E548: 22 F3 00                          LD      (00F3h),HL
E54B: 21 F5 00                          LD      HL,00F5h        ; address or value?
E54E: CB FE                             SET     7,(HL)
E550: 21 CC 00                          LD      HL,00CCh        ; address or value?
E553: EB                                EX      DE,HL
E554: 04                                INC     B

                                        ; Referenced from 0E542h, 0E595h
E555: 13                         0E555h:        INC     DE
E556: 23                                INC     HL
E557: 3A CD 00                          LD      A,(00CDh)
E55A: FE 00                             CP      00h
E55C: 1A                                LD      A,(DE)
E55D: 28 04                             JR      Z,0E563h
E55F: 96                                SUB     (HL)
E560: 28 0C                             JR      Z,0E56Eh
E562: C9                                RET

                                        ; Referenced from 0E55Dh
E563: 96                         0E563h:        SUB     (HL)
E564: 27                                DAA
E565: 28 07                             JR      Z,0E56Eh
E567: 3E 00                             LD      A,00h
E569: 3C                                INC     A
E56A: D0                                RET     NC
E56B: 3D                                DEC     A
E56C: 3D                                DEC     A
E56D: C9                                RET

                                        ; Referenced from 0E560h, 0E565h
E56E: 05                         0E56Eh:        DEC     B
E56F: 0D                                DEC     C
E570: C8                                RET     Z
E571: 3A F5 00                          LD      A,(00F5h)
E574: CB 7F                             BIT     7,A
E576: 28 04                             JR      Z,0E57Ch
E578: ED 5B F3 00                       LD      DE,(00F3h)

                                        ; Referenced from 0E576h
E57C: CB 77                      0E57Ch:        BIT     6,A
E57E: 28 03                             JR      Z,0E583h
E580: 2A F1 00                          LD      HL,(00F1h)

                                        ; Referenced from 0E57Eh
E583: AF                         0E583h:        XOR     A
E584: 32 F5 00                          LD      (00F5h),A
E587: 18 B7                             JR      0E540h

                                        ; Referenced from 0E544h
E589: 22 F1 00                   0E589h:        LD      (00F1h),HL
E58C: 21 F5 00                          LD      HL,00F5h        ; address or value?
E58F: CB F6                             SET     6,(HL)
E591: 21 CC 00                          LD      HL,00CCh        ; address or value?
E594: 0C                                INC     C
E595: 18 BE                             JR      0E555h

                                        ; Referenced from 0E691h, 0FFB2h, 0E916h
                                        ; Entry Point
                                        ; --- START PROC 0E597h ---
E597: 3E 01                      0E597h:        LD      A,01h
E599: 32 CF 00                          LD      (00CFh),A
E59C: 7E                                LD      A,(HL)
E59D: EE 20                             XOR     20h     ; ' '
E59F: 18 05                             JR      0E5A6h

                                        ; Referenced from 0E88Fh, 0FFB5h, 0E6C2h, 0E946h, 0E639h, 0E952h
                                        ; --- START PROC 0E5A1h ---
E5A1: AF                         0E5A1h:        XOR     A
E5A2: 32 CF 00                          LD      (00CFh),A
E5A5: 7E                                LD      A,(HL)

                                        ; Referenced from 0E59Fh
                                        ; --- START PROC 0E5A6h ---
E5A6: E6 20                      0E5A6h:        AND     20h     ; ' '
E5A8: 47                                LD      B,A
E5A9: 1A                                LD      A,(DE)
E5AA: E6 20                             AND     20h     ; ' '
E5AC: B8                                CP      B
E5AD: 20 06                             JR      NZ,0E5B5h
E5AF: CD D9 E4                          CALL    0E4D9h
E5B2: C3 12 E3                          JP      0E312h

                                        ; Referenced from 0E5ADh
E5B5: E5                         0E5B5h:        PUSH    HL
E5B6: D5                                PUSH    DE
E5B7: CD 29 E5                          CALL    0E529h
E5BA: D1                                POP     DE
E5BB: E1                                POP     HL
E5BC: 28 09                             JR      Z,0E5C7h
E5BE: FA CB E5                          JP      M,0E5CBh
E5C1: CD D9 E4                          CALL    0E4D9h
E5C4: C3 28 E3                          JP      0E328h

                                        ; Referenced from 0E5BCh
E5C7: EB                         0E5C7h:        EX      DE,HL
E5C8: C3 77 E4                          JP      0E477h

                                        ; Referenced from 0E5BEh
E5CB: D5                         0E5CBh:        PUSH    DE
E5CC: 11 D0 00                          LD      DE,00D0h        ; address or value?
E5CF: D5                                PUSH    DE
E5D0: CD CF E4                          CALL    0E4CFh
E5D3: E1                                POP     HL
E5D4: D1                                POP     DE
E5D5: 3A CF 00                          LD      A,(00CFh)
E5D8: FE 00                             CP      00h
E5DA: 28 08                             JR      Z,0E5E4h
E5DC: CB 6E                             BIT     5,(HL)
E5DE: CB EE                             SET     5,(HL)
E5E0: 28 02                             JR      Z,0E5E4h
E5E2: CB AE                             RES     5,(HL)

                                        ; Referenced from 0E5DAh, 0E5E0h
E5E4: EB                         0E5E4h:        EX      DE,HL
E5E5: E5                                PUSH    HL
E5E6: D5                                PUSH    DE
E5E7: CD D9 E4                          CALL    0E4D9h
E5EA: CD 28 E3                          CALL    0E328h
E5ED: E1                                POP     HL
E5EE: D1                                POP     DE
E5EF: C3 AC E4                          JP      0E4ACh

                                        ; Referenced from 0D863h, 0FFA6h, 0F1C3h
                                        ; --- START PROC 0E5F2h ---
E5F2: 7E                         0E5F2h:        LD      A,(HL)
E5F3: 4F                                LD      C,A
E5F4: CB 81                             RES     0,C
E5F6: E6 1F                             AND     1Fh
E5F8: 47                                LD      B,A
E5F9: 04                                INC     B
E5FA: 1B                                DEC     DE

                                        ; Referenced from 0E609h
                                        ; --- START PROC 0E5FBh ---
E5FB: 23                         0E5FBh:        INC     HL
E5FC: 13                                INC     DE

                                        ; Referenced from 0FFA3h, 0F219h
                                        ; --- START PROC 0E5FDh ---
E5FD: 7E                         0E5FDh:        LD      A,(HL)
E5FE: CB 41                             BIT     0,C
E600: 20 06                             JR      NZ,0E608h
E602: FE 30                             CP      30h     ; '0'
E604: 20 0D                             JR      NZ,0E613h
E606: CB A7                             RES     4,A

                                        ; Referenced from 0E600h, 0E615h
                                        ; --- START PROC 0E608h ---
E608: 12                         0E608h:        LD      (DE),A
E609: 10 F0                             DJNZ    0E5FBh

                                        ; Referenced from 0E630h
                                        ; --- START PROC 0E60Bh ---
E60B: CB 69                      0E60Bh:        BIT     5,C
E60D: C8                                RET     Z
E60E: 3E 2D                             LD      A,2Dh   ; '-'
E610: 13                                INC     DE
E611: 12                                LD      (DE),A
E612: C9                                RET

                                        ; Referenced from 0E604h
                                        ; --- START PROC 0E613h ---
E613: CB C1                      0E613h:        SET     0,C
E615: 18 F1                             JR      0E608h

                                        ; Referenced from 0FFA0h
                                        ; Entry Point
                                        ; --- START PROC 0E617h ---
E617: 7E                         0E617h:        LD      A,(HL)
E618: 4F                                LD      C,A
E619: CB 81                             RES     0,C
E61B: E6 1F                             AND     1Fh
E61D: 47                                LD      B,A
E61E: 04                                INC     B
E61F: 1B                                DEC     DE

                                        ; Referenced from 0E62Eh
                                        ; --- START PROC 0E620h ---
E620: 23                         0E620h:        INC     HL
E621: 13                                INC     DE

                                        ; Referenced from 0FF9Dh
                                        ; --- START PROC 0E622h ---
E622: 7E                         0E622h:        LD      A,(HL)
E623: CB 41                             BIT     0,C
E625: 20 06                             JR      NZ,0E62Dh
E627: FE 30                             CP      30h     ; '0'
E629: 28 07                             JR      Z,0E632h
E62B: CB C1                             SET     0,C

                                        ; Referenced from 0E625h
E62D: 12                         0E62Dh:        LD      (DE),A

                                        ; Referenced from 0E633h
E62E: 10 F0                      0E62Eh:        DJNZ    0E620h
E630: 18 D9                             JR      0E60Bh

                                        ; Referenced from 0E629h
E632: 1B                         0E632h:        DEC     DE
E633: 18 F9                             JR      0E62Eh

                                        ; Referenced from 0E6CAh, 0E63Eh
                                        ; --- START PROC 0E635h ---
E635: E5                         0E635h:        PUSH    HL
E636: 54                                LD      D,H
E637: 5D                                LD      E,L
E638: C5                                PUSH    BC
E639: CD A1 E5                          CALL    0E5A1h
E63C: C1                                POP     BC
E63D: E1                                POP     HL

                                        ; Referenced from 0E64Fh
                                        ; --- START PROC 0E63Eh ---
E63E: 10 F5                      0E63Eh:        DJNZ    0E635h
E640: C9                                RET

                                        ; Referenced from 0E65Bh, 0E680h, 0E6AAh
                                        ; --- START PROC 0E641h ---
E641: 21 F9 00                   0E641h:        LD      HL,00F9h    ; address or value?
E644: 36 01                             LD      (HL),01h
E646: 2B                                DEC     HL
E647: AF                                XOR     A
E648: 77                                LD      (HL),A
E649: 2B                                DEC     HL
E64A: 77                                LD      (HL),A
E64B: 2B                                DEC     HL
E64C: 36 C2                             LD      (HL),0C2h
E64E: 41                                LD      B,C
E64F: 18 ED                             JR      0E63Eh

                                        ; Referenced from 0FFA9h
                                        ; Entry Point
                                        ; --- START PROC 0E651h ---
E651: 7E                         0E651h:        LD      A,(HL)
E652: E6 E0                             AND     0E0h
E654: FE C0                             CP      0C0h
E656: C0                                RET     NZ
E657: D5                                PUSH    DE
E658: E5                                PUSH    HL
E659: 0E 11                             LD      C,11h
E65B: CD 41 E6                          CALL    0E641h
E65E: D1                                POP     DE
E65F: D5                                PUSH    DE
E660: C5                                PUSH    BC
E661: CD E5 E4                          CALL    0E4E5h
E664: C1                                POP     BC
E665: E1                                POP     HL
E666: D1                                POP     DE
E667: C8                                RET     Z
E668: F0                                RET     P
E669: D5                                PUSH    DE
E66A: C5                                PUSH    BC
E66B: 11 D0 00                          LD      DE,00D0h        ; address or value?
E66E: CD CF E4                          CALL    0E4CFh
E671: C1                                POP     BC
E672: D1                                POP     DE
E673: AF                                XOR     A
E674: 12                                LD      (DE),A
E675: 13                                INC     DE
E676: 12                                LD      (DE),A
E677: CD 7B E6                          CALL    0E67Bh
E67A: 1B                                DEC     DE

                                        ; Referenced from 0E677h
                                        ; --- START PROC 0E67Bh ---
E67B: 06 08                      0E67Bh:        LD      B,08h

                                        ; Referenced from 0E69Bh
E67D: 0D                         0E67Dh:        DEC     C
E67E: C5                                PUSH    BC
E67F: D5                                PUSH    DE
E680: CD 41 E6                          CALL    0E641h
E683: E5                                PUSH    HL
E684: 11 D0 00                          LD      DE,00D0h        ; address or value?
E687: CD E5 E4                          CALL    0E4E5h
E68A: E1                                POP     HL
E68B: FA 9E E6                          JP      M,0E69Eh
E68E: 11 D0 00                          LD      DE,00D0h        ; address or value?
E691: CD 97 E5                          CALL    0E597h
E694: D1                                POP     DE
E695: 1A                                LD      A,(DE)
E696: 07                                RLCA
E697: CB C7                             SET     0,A

                                        ; Referenced from 0E6A1h
E699: 12                         0E699h:        LD      (DE),A
E69A: C1                                POP     BC
E69B: 10 E0                             DJNZ    0E67Dh
E69D: C9                                RET

                                        ; Referenced from 0E68Bh
E69E: D1                         0E69Eh:        POP     DE
E69F: 1A                                LD      A,(DE)
E6A0: 07                                RLCA
E6A1: 18 F6                             JR      0E699h

                                        ; Referenced from 0D854h, 0FFAFh, 0F206h, 0F223h
                                        ; --- START PROC 0E6A3h ---
E6A3: EB                         0E6A3h:        EX      DE,HL
E6A4: CD 77 E4                          CALL    0E477h
E6A7: E5                                PUSH    HL
E6A8: 0E 01                             LD      C,01h
E6AA: CD 41 E6                          CALL    0E641h
E6AD: 1A                                LD      A,(DE)
E6AE: 47                                LD      B,A
E6AF: 13                                INC     DE
E6B0: 1A                                LD      A,(DE)
E6B1: 4F                                LD      C,A
E6B2: 78                                LD      A,B
E6B3: D1                                POP     DE
E6B4: CD B8 E6                          CALL    0E6B8h
E6B7: 79                                LD      A,C

                                        ; Referenced from 0FFACh, 0E6B4h
                                        ; --- START PROC 0E6B8h ---
E6B8: 06 08                      0E6B8h:        LD      B,08h

                                        ; Referenced from 0E6D1h
E6BA: C5                         0E6BAh:        PUSH    BC
E6BB: F5                                PUSH    AF
E6BC: CB 47                             BIT     0,A
E6BE: 28 07                             JR      Z,0E6C7h
E6C0: D5                                PUSH    DE
E6C1: E5                                PUSH    HL
E6C2: CD A1 E5                          CALL    0E5A1h
E6C5: E1                                POP     HL
E6C6: D1                                POP     DE

                                        ; Referenced from 0E6BEh
E6C7: 06 01                      0E6C7h:        LD      B,01h
E6C9: D5                                PUSH    DE
E6CA: CD 35 E6                          CALL    0E635h
E6CD: D1                                POP     DE
E6CE: F1                                POP     AF
E6CF: C1                                POP     BC
E6D0: 0F                                RRCA
E6D1: 10 E7                             DJNZ    0E6BAh
E6D3: C9                                RET

                                        ; Referenced from 0D7B4h, 0FF94h
                                        ; Entry Point
                                        ; --- START PROC 0E6D4h ---
E6D4: 3A 02 01                   0E6D4h:        LD      A,(0102h)
E6D7: CB 47                             BIT     0,A
E6D9: 20 05                             JR      NZ,0E6E0h
E6DB: 2A 00 01                          LD      HL,(0100h)
E6DE: 36 FF                             LD      (HL),0FFh

                                        ; Referenced from 0E6D9h, 0E733h
                                        ; --- START PROC 0E6E0h ---
E6E0: CD D1 E1                   0E6E0h:        CALL    0E1D1h
E6E3: 2A FA 00                          LD      HL,(00FAh)
E6E6: ED 4B FC 00                       LD      BC,(00FCh)
E6EA: CD 5F E2                          CALL    0E25Fh
E6ED: 21 C7 00                          LD      HL,00C7h        ; address or value?
E6F0: CD 77 E2                          CALL    0E277h
E6F3: 06 50                             LD      B,50h   ; 'P'
E6F5: 78                                LD      A,B
E6F6: 32 CB 00                          LD      (00CBh),A
E6F9: CD 3D E2                          CALL    0E23Dh
E6FC: 21 B0 B0                          LD      HL,0B0B0h       ; address or value?

                                        ; Referenced from 0E776h
                                        ; --- START PROC 0E6FFh ---
E6FF: C3 BE E1                   0E6FFh:        JP      0E1BEh

                                        ; Referenced from 0D798h, 0FF9Ah
                                        ; --- START PROC 0E702h ---
E702: 2A FA 00                   0E702h:        LD      HL,(00FAh)
E705: ED 5B FC 00                       LD      DE,(00FCh)
E709: 19                                ADD     HL,DE
E70A: 3A 02 01                          LD      A,(0102h)
E70D: CB 47                             BIT     0,A
E70F: 28 2D                             JR      Z,0E73Eh
E711: ED 5B 00 01                       LD      DE,(0100h)
E715: A7                                AND     A
E716: ED 52                             SBC     HL,DE
E718: 28 19                             JR      Z,0E733h

                                        ; Referenced from 0E74Ch, 0E74Eh, 0E73Ch
E71A: 2A 03 01                   0E71Ah:        LD      HL,(0103h)
E71D: ED 5B 00 01                       LD      DE,(0100h)
E721: ED 4B FE 00                       LD      BC,(00FEh)
E725: ED B0                             LDIR
E727: ED 53 00 01                       LD      (0100h),DE
E72B: 2A 05 01                          LD      HL,(0105h)
E72E: 23                                INC     HL
E72F: 22 05 01                          LD      (0105h),HL
E732: C9                                RET

                                        ; Referenced from 0E718h, 0E756h
E733: CD E0 E6                   0E733h:        CALL    0E6E0h
E736: 2A FA 00                          LD      HL,(00FAh)
E739: 22 00 01                          LD      (0100h),HL
E73C: 18 DC                             JR      0E71Ah

                                        ; Referenced from 0E70Fh
E73E: ED 4B FE 00                0E73Eh:        LD      BC,(00FEh)
E742: ED 5B 00 01                       LD      DE,(0100h)
E746: A7                                AND     A
E747: ED 52                             SBC     HL,DE
E749: 37                                SCF
E74A: ED 42                             SBC     HL,BC
E74C: 28 CC                             JR      Z,0E71Ah
E74E: F2 1A E7                          JP      P,0E71Ah
E751: 2A 00 01                          LD      HL,(0100h)
E754: 36 FF                             LD      (HL),0FFh
E756: 18 DB                             JR      0E733h

                                        ; Referenced from 0E783h
                                        ; --- START PROC 0E758h ---
E758: CD 8B E1                   0E758h:        CALL    0E18Bh
E75B: 2A 07 01                          LD      HL,(0107h)
E75E: ED 4B 09 01                       LD      BC,(0109h)
E762: CD 72 E1                          CALL    0E172h
E765: CD 44 E1                          CALL    0E144h
E768: 21 C7 00                          LD      HL,00C7h        ; address or value?
E76B: BE                                CP      (HL)
E76C: 2A 14 01                          LD      HL,(0114h)
E76F: 28 02                             JR      Z,0E773h
E771: D1                                POP     DE
E772: E5                                PUSH    HL

                                        ; Referenced from 0E76Fh
E773: 21 A0 A0                   0E773h:        LD      HL,0A0A0h   ; address or value?
E776: 18 87                             JR      0E6FFh

                                        ; Referenced from 0D80Bh, 0FF97h
                                        ; --- START PROC 0E778h ---
E778: 2A 0D 01                   0E778h:        LD      HL,(010Dh)
E77B: 01 00 00                          LD      BC,0000h        ; address or value?
E77E: A7                                AND     A
E77F: ED 42                             SBC     HL,BC
E781: 20 09                             JR      NZ,0E78Ch
E783: CD 58 E7                          CALL    0E758h
E786: 2A 07 01                          LD      HL,(0107h)
E789: 22 0D 01                          LD      (010Dh),HL

                                        ; Referenced from 0E781h
E78C: 2A 0D 01                   0E78Ch:        LD      HL,(010Dh)
E78F: ED 5B 10 01                       LD      DE,(0110h)
E793: 3A 0F 01                          LD      A,(010Fh)
E796: CB 47                             BIT     0,A
E798: 20 27                             JR      NZ,0E7C1h
E79A: CB BE                             RES     7,(HL)

                                        ; Referenced from 0E7A0h
E79C: ED A0                      0E79Ch:        LDI
E79E: CB 7E                             BIT     7,(HL)
E7A0: 28 FA                             JR      Z,0E79Ch
E7A2: EB                                EX      DE,HL
E7A3: ED 4B 10 01                       LD      BC,(0110h)
E7A7: A7                                AND     A
E7A8: ED 42                             SBC     HL,BC
E7AA: 22 0B 01                          LD      (010Bh),HL
E7AD: EB                                EX      DE,HL
E7AE: 7E                                LD      A,(HL)
E7AF: FE FF                             CP      0FFh

                                        ; Referenced from 0E7D4h
E7B1: 20 03                      0E7B1h:        JR      NZ,0E7B6h
E7B3: 21 00 00                          LD      HL,0000h        ; address or value?

                                        ; Referenced from 0E7B1h
E7B6: 22 0D 01                   0E7B6h:        LD      (010Dh),HL
E7B9: 2A 12 01                          LD      HL,(0112h)
E7BC: 23                                INC     HL
E7BD: 22 12 01                          LD      (0112h),HL
E7C0: C9                                RET

                                        ; Referenced from 0E798h
E7C1: ED 4B 0B 01                0E7C1h:        LD      BC,(010Bh)
E7C5: ED B0                             LDIR
E7C7: EB                                EX      DE,HL
E7C8: 2A 07 01                          LD      HL,(0107h)
E7CB: ED 4B 09 01                       LD      BC,(0109h)
E7CF: 09                                ADD     HL,BC
E7D0: A7                                AND     A
E7D1: ED 52                             SBC     HL,DE
E7D3: EB                                EX      DE,HL
E7D4: 18 DB                             JR      0E7B1h

                                        ; Referenced from 0E7F0h
                                        ; Entry Point
                                        ; --- START PROC 0E7D6h ---
E7D6: 21 16 01                   0E7D6h:        LD      HL,0116h    ; address or value?
E7D9: 01 00 06                          LD      BC,0600h        ; address or value?

                                        ; Referenced from 0E7EEh
E7DC: 7E                         0E7DCh:        LD      A,(HL)
E7DD: FE 20                             CP      20h     ; ' '
E7DF: 28 0B                             JR      Z,0E7ECh
E7E1: E6 0F                             AND     0Fh
E7E3: 5F                                LD      E,A
E7E4: 79                                LD      A,C
E7E5: 07                                RLCA
E7E6: 07                                RLCA
E7E7: 07                                RLCA
E7E8: 07                                RLCA
E7E9: B3                                OR      E
E7EA: D3 DF                             OUT     (0DFh),A

                                        ; Referenced from 0E7DFh
E7EC: 0C                         0E7ECh:        INC     C
E7ED: 23                                INC     HL
E7EE: 10 EC                             DJNZ    0E7DCh
E7F0: 18 E4                             JR      0E7D6h

                                        ; Entry Point
                                        ; --- START PROC 0E7F2h ---
E7F2: 21 16 01                   0E7F2h:        LD      HL,0116h    ; address or value?
E7F5: 01 05 00                          LD      BC,0005h        ; address or value?

                                        ; Referenced from 0D760h
                                        ; --- START PROC 0E7F8h ---
E7F8: 54                         0E7F8h:        LD      D,H
E7F9: 5D                                LD      E,L
E7FA: 13                                INC     DE
E7FB: 36 20                             LD      (HL),20h        ; ' '
E7FD: ED B0                             LDIR
E7FF: C9                                RET

                                        ; Referenced from 0E843h
                                        ; Entry Point
                                        ; --- START PROC 0E800h ---
E800: CB AE                      0E800h:        RES     5,(HL)
E802: EB                                EX      DE,HL
E803: CB AE                             RES     5,(HL)
E805: 18 43                             JR      0E84Ah

                                        ; Referenced from 0FF91h
                                        ; Entry Point
                                        ; --- START PROC 0E807h ---
E807: 7E                         0E807h:        LD      A,(HL)
E808: E6 C0                             AND     0C0h
E80A: FE C0                             CP      0C0h
E80C: C0                                RET     NZ
E80D: 1A                                LD      A,(DE)
E80E: E6 C0                             AND     0C0h
E810: FE C0                             CP      0C0h
E812: C0                                RET     NZ
E813: 7E                                LD      A,(HL)
E814: E6 1F                             AND     1Fh
E816: 3C                                INC     A
E817: CB 27                             SLA     A
E819: 32 B4 00                          LD      (00B4h),A
E81C: ED 53 F8 00                       LD      (00F8h),DE
E820: 22 F6 00                          LD      (00F6h),HL
E823: EB                                EX      DE,HL
E824: 11 D0 00                          LD      DE,00D0h        ; address or value?
E827: CD CF E4                          CALL    0E4CFh
E82A: 2A F8 00                          LD      HL,(00F8h)
E82D: CD 77 E4                          CALL    0E477h
E830: 2A F6 00                          LD      HL,(00F6h)
E833: 7E                                LD      A,(HL)
E834: E6 20                             AND     20h     ; ' '
E836: 47                                LD      B,A
E837: 3A D0 00                          LD      A,(00D0h)
E83A: E6 20                             AND     20h     ; ' '
E83C: B8                                CP      B
E83D: 11 D0 00                          LD      DE,00D0h        ; address or value?
E840: 2A F8 00                          LD      HL,(00F8h)
E843: 28 BB                             JR      Z,0E800h
E845: CB EE                             SET     5,(HL)
E847: EB                                EX      DE,HL
E848: CB EE                             SET     5,(HL)

                                        ; Referenced from 0E805h
                                        ; --- START PROC 0E84Ah ---
E84A: 2A F6 00                   0E84Ah:        LD      HL,(00F6h)
E84D: 06 00                             LD      B,00h
E84F: 3A B4 00                          LD      A,(00B4h)
E852: CB 3F                             SRL     A
E854: 4F                                LD      C,A
E855: 09                                ADD     HL,BC
E856: 22 F6 00                          LD      (00F6h),HL
E859: AF                                XOR     A
E85A: 32 B5 00                          LD      (00B5h),A

                                        ; Referenced from 0E8A9h
E85D: 3A B4 00                   0E85Dh:        LD      A,(00B4h)
E860: FE 00                             CP      00h
E862: C8                                RET     Z
E863: 3D                                DEC     A
E864: 32 B4 00                          LD      (00B4h),A
E867: ED 5B F6 00                       LD      DE,(00F6h)
E86B: 1A                                LD      A,(DE)
E86C: 21 B5 00                          LD      HL,00B5h        ; address or value?
E86F: CB 7E                             BIT     7,(HL)
E871: 28 38                             JR      Z,0E8ABh
E873: CB BE                             RES     7,(HL)
E875: CB 3F                             SRL     A
E877: CB 3F                             SRL     A
E879: CB 3F                             SRL     A
E87B: CB 3F                             SRL     A
E87D: 1B                                DEC     DE
E87E: ED 53 F6 00                       LD      (00F6h),DE

                                        ; Referenced from 0E8AFh
E882: FE 00                      0E882h:        CP      00h
E884: 28 0F                             JR      Z,0E895h
E886: 47                                LD      B,A

                                        ; Referenced from 0E893h
E887: C5                         0E887h:        PUSH    BC
E888: 21 D0 00                          LD      HL,00D0h        ; address or value?
E88B: ED 5B F8 00                       LD      DE,(00F8h)
E88F: CD A1 E5                          CALL    0E5A1h
E892: C1                                POP     BC
E893: 10 F2                             DJNZ    0E887h

                                        ; Referenced from 0E884h
E895: 3A D0 00                   0E895h:        LD      A,(00D0h)
E898: E6 1F                             AND     1Fh
E89A: 3C                                INC     A
E89B: 4F                                LD      C,A
E89C: 06 00                             LD      B,00h
E89E: 21 D2 00                          LD      HL,00D2h        ; address or value?
E8A1: 09                                ADD     HL,BC
E8A2: 41                                LD      B,C
E8A3: AF                                XOR     A

                                        ; Referenced from 0E8A7h
E8A4: 2B                         0E8A4h:        DEC     HL
E8A5: ED 6F                             RLD
E8A7: 10 FB                             DJNZ    0E8A4h
E8A9: 18 B2                             JR      0E85Dh

                                        ; Referenced from 0E871h
E8AB: CB FE                      0E8ABh:        SET     7,(HL)
E8AD: E6 0F                             AND     0Fh
E8AF: 18 D1                             JR      0E882h

                                        ; Referenced from 0FF8Eh
                                        ; Entry Point
                                        ; --- START PROC 0E8B1h ---
E8B1: 0A                         0E8B1h:        LD      A,(BC)
E8B2: E6 C0                             AND     0C0h
E8B4: FE C0                             CP      0C0h
E8B6: C0                                RET     NZ
E8B7: 7E                                LD      A,(HL)
E8B8: E6 C0                             AND     0C0h
E8BA: FE C0                             CP      0C0h
E8BC: C0                                RET     NZ
E8BD: 1A                                LD      A,(DE)
E8BE: E6 C0                             AND     0C0h
E8C0: FE C0                             CP      0C0h
E8C2: C0                                RET     NZ
E8C3: 22 F6 00                          LD      (00F6h),HL
E8C6: ED 53 F8 00                       LD      (00F8h),DE
E8CA: ED 43 B0 00                       LD      (00B0h),BC
E8CE: 1A                                LD      A,(DE)
E8CF: CB 27                             SLA     A
E8D1: E6 40                             AND     40h     ; '@'
E8D3: 5F                                LD      E,A
E8D4: 7E                                LD      A,(HL)
E8D5: CB 27                             SLA     A
E8D7: CB 27                             SLA     A
E8D9: E6 80                             AND     80h
E8DB: B3                                OR      E
E8DC: 32 B5 00                          LD      (00B5h),A
E8DF: CB AE                             RES     5,(HL)
E8E1: 2A F8 00                          LD      HL,(00F8h)
E8E4: CB AE                             RES     5,(HL)
E8E6: 60                                LD      H,B
E8E7: 69                                LD      L,C
E8E8: CD 77 E4                          CALL    0E477h
E8EB: AF                                XOR     A
E8EC: 5F                                LD      E,A

                                        ; Referenced from 0E907h
E8ED: 47                         0E8EDh:        LD      B,A
E8EE: 2A F8 00                          LD      HL,(00F8h)
E8F1: 7E                                LD      A,(HL)
E8F2: E6 1F                             AND     1Fh
E8F4: 4F                                LD      C,A
E8F5: AF                                XOR     A
E8F6: 0C                                INC     C
E8F7: 23                                INC     HL
E8F8: ED 6F                             RLD
E8FA: 20 0D                             JR      NZ,0E909h
E8FC: ED 67                             RRD
E8FE: 09                                ADD     HL,BC
E8FF: 41                                LD      B,C

                                        ; Referenced from 0E903h
E900: 2B                         0E900h:        DEC     HL
E901: ED 6F                             RLD
E903: 10 FB                             DJNZ    0E900h
E905: 1C                                INC     E
E906: AF                                XOR     A
E907: 18 E4                             JR      0E8EDh

                                        ; Referenced from 0E8FAh
E909: ED 67                      0E909h:        RRD
E90B: 7B                                LD      A,E
E90C: 32 B4 00                          LD      (00B4h),A

                                        ; Referenced from 0E949h, 0E96Eh
E90F: ED 5B F6 00                0E90Fh:        LD      DE,(00F6h)
E913: 2A F8 00                          LD      HL,(00F8h)
E916: CD 97 E5                          CALL    0E597h
E919: 2A F6 00                          LD      HL,(00F6h)
E91C: CB 6E                             BIT     5,(HL)
E91E: 20 2B                             JR      NZ,0E94Bh
E920: 3A B4 00                          LD      A,(00B4h)
E923: 47                                LD      B,A
E924: 21 D1 00                          LD      HL,00D1h        ; address or value?
E927: 3E 01                             LD      A,01h
E929: CB 40                             BIT     0,B
E92B: 28 02                             JR      Z,0E92Fh
E92D: 3E 10                             LD      A,10h

                                        ; Referenced from 0E92Bh
E92F: 77                         0E92Fh:        LD      (HL),A
E930: CB 38                             SRL     B
E932: 48                                LD      C,B
E933: 04                                INC     B

                                        ; Referenced from 0E937h
E934: 23                         0E934h:        INC     HL
E935: 36 00                             LD      (HL),00h
E937: 10 FB                             DJNZ    0E934h
E939: 3E C0                             LD      A,0C0h
E93B: B1                                OR      C
E93C: 32 D0 00                          LD      (00D0h),A
E93F: 21 D0 00                          LD      HL,00D0h        ; address or value?
E942: ED 5B B0 00                       LD      DE,(00B0h)
E946: CD A1 E5                          CALL    0E5A1h
E949: 18 C4                             JR      0E90Fh

                                        ; Referenced from 0E91Eh
E94B: 2A F8 00                   0E94Bh:        LD      HL,(00F8h)
E94E: ED 5B F6 00                       LD      DE,(00F6h)
E952: CD A1 E5                          CALL    0E5A1h
E955: 3A B4 00                          LD      A,(00B4h)
E958: FE 00                             CP      00h
E95A: 28 14                             JR      Z,0E970h
E95C: 3D                                DEC     A
E95D: 32 B4 00                          LD      (00B4h),A
E960: 2A F8 00                          LD      HL,(00F8h)
E963: 7E                                LD      A,(HL)
E964: E6 1F                             AND     1Fh
E966: 3C                                INC     A
E967: 47                                LD      B,A
E968: AF                                XOR     A

                                        ; Referenced from 0E96Ch
E969: 23                         0E969h:        INC     HL
E96A: ED 67                             RRD
E96C: 10 FB                             DJNZ    0E969h
E96E: 18 9F                             JR      0E90Fh

                                        ; Referenced from 0E95Ah
E970: 3A B5 00                   0E970h:        LD      A,(00B5h)
E973: 47                                LD      B,A
E974: CB 78                             BIT     7,B
E976: 28 05                             JR      Z,0E97Dh
E978: 2A F6 00                          LD      HL,(00F6h)
E97B: CB EE                             SET     5,(HL)

                                        ; Referenced from 0E976h
E97D: CB 70                      0E97Dh:        BIT     6,B
E97F: 28 05                             JR      Z,0E986h
E981: 2A F8 00                          LD      HL,(00F8h)
E984: CB EE                             SET     5,(HL)

                                        ; Referenced from 0E97Fh
E986: 78                         0E986h:        LD      A,B
E987: E6 C0                             AND     0C0h
E989: C8                                RET     Z
E98A: FE C0                             CP      0C0h
E98C: C8                                RET     Z
E98D: 2A B0 00                          LD      HL,(00B0h)
E990: CB EE                             SET     5,(HL)
E992: C9                                RET

                                        ; Referenced from 0FF8Bh
                                        ; Entry Point
                                        ; --- START PROC 0E993h ---
E993: 1A                         0E993h:        LD      A,(DE)
E994: E6 1F                             AND     1Fh
E996: 3C                                INC     A
E997: 4F                                LD      C,A
E998: 06 00                             LD      B,00h
E99A: EB                                EX      DE,HL
E99B: 09                                ADD     HL,BC
E99C: EB                                EX      DE,HL
E99D: 3E 20                             LD      A,20h   ; ' '

                                        ; Referenced from 0E9A3h
E99F: BE                         0E99Fh:        CP      (HL)
E9A0: 20 03                             JR      NZ,0E9A5h
E9A2: 2B                                DEC     HL
E9A3: 18 FA                             JR      0E99Fh

                                        ; Referenced from 0E9A0h, 0E9ABh
E9A5: ED A8                      0E9A5h:        LDD
E9A7: E2 B8 E9                          JP      PO,0E9B8h
E9AA: BE                                CP      (HL)
E9AB: 20 F8                             JR      NZ,0E9A5h
E9AD: 21 A5 EC                          LD      HL,0ECA5h       ; address or value?

                                        ; Referenced from 0E9B6h
E9B0: ED A8                      0E9B0h:        LDD
E9B2: E2 B8 E9                          JP      PO,0E9B8h
E9B5: 23                                INC     HL
E9B6: 18 F8                             JR      0E9B0h

                                        ; Referenced from 0E9A7h, 0E9B2h
E9B8: EB                         0E9B8h:        EX      DE,HL
E9B9: C9                                RET

                                        ; Referenced from 0FF88h
                                        ; --- START PROC 0E9BAh ---
E9BA: 2A 1C 01                   0E9BAh:        LD      HL,(011Ch)
E9BD: CB FE                             SET     7,(HL)
E9BF: 3E CE                             LD      A,0CEh
E9C1: BE                                CP      (HL)
E9C2: 20 0A                             JR      NZ,0E9CEh
E9C4: 36 31                             LD      (HL),31h        ; '1'
E9C6: 3A 23 01                          LD      A,(0123h)
E9C9: FE 00                             CP      00h
E9CB: C4 3A EA                          CALL    NZ,0EA3Ah

                                        ; Referenced from 0E9C2h
E9CE: 2A 1C 01                   0E9CEh:        LD      HL,(011Ch)
E9D1: 06 00                             LD      B,00h
E9D3: 3A 20 01                          LD      A,(0120h)
E9D6: 4F                                LD      C,A
E9D7: 3E 20                             LD      A,20h   ; ' '
E9D9: 09                                ADD     HL,BC

                                        ; Referenced from 0E9DDh
E9DA: 2B                         0E9DAh:        DEC     HL
E9DB: 0B                                DEC     BC
E9DC: BE                                CP      (HL)
E9DD: 28 FB                             JR      Z,0E9DAh
E9DF: CB 7E                             BIT     7,(HL)
E9E1: 28 01                             JR      Z,0E9E4h
E9E3: 03                                INC     BC

                                        ; Referenced from 0E9E1h
E9E4: 41                         0E9E4h:        LD      B,C
E9E5: 2A 1C 01                          LD      HL,(011Ch)

                                        ; Referenced from 0E9F1h
E9E8: 23                         0E9E8h:        INC     HL
E9E9: 7E                                LD      A,(HL)
E9EA: C5                                PUSH    BC
E9EB: E5                                PUSH    HL
E9EC: CD 58 EA                          CALL    0EA58h
E9EF: E1                                POP     HL
E9F0: C1                                POP     BC
E9F1: 10 F5                             DJNZ    0E9E8h
E9F3: 3E 0D                             LD      A,0Dh
E9F5: CD 58 EA                          CALL    0EA58h
E9F8: 2A 1C 01                          LD      HL,(011Ch)
E9FB: 7E                                LD      A,(HL)
E9FC: E6 0F                             AND     0Fh
E9FE: 47                                LD      B,A
E9FF: CD 21 EA                          CALL    0EA21h
EA02: 21 24 01                          LD      HL,0124h        ; address or value?
EA05: CB 7E                             BIT     7,(HL)
EA07: 28 12                             JR      Z,0EA1Bh

                                        ; Referenced from 0FF85h
                                        ; --- START PROC 0EA09h ---
EA09: 2A 1C 01                   0EA09h:        LD      HL,(011Ch)
EA0C: 23                                INC     HL
EA0D: 36 20                             LD      (HL),20h        ; ' '
EA0F: 54                                LD      D,H
EA10: 5D                                LD      E,L
EA11: 13                                INC     DE
EA12: 3A 20 01                          LD      A,(0120h)
EA15: 4F                                LD      C,A
EA16: 06 00                             LD      B,00h
EA18: 0B                                DEC     BC
EA19: ED B0                             LDIR

                                        ; Referenced from 0EA07h
                                        ; --- START PROC 0EA1Bh ---
EA1B: 2A 1C 01                   0EA1Bh:        LD      HL,(011Ch)
EA1E: 36 31                             LD      (HL),31h        ; '1'
EA20: C9                                RET

                                        ; Referenced from 0FF82h, 0E9FFh
                                        ; --- START PROC 0EA21h ---
EA21: 04                         0EA21h:        INC     B

                                        ; Referenced from 0EA38h
EA22: 10 01                      0EA22h:        DJNZ    0EA25h
EA24: C9                                RET

                                        ; Referenced from 0EA22h
EA25: C5                         0EA25h:        PUSH    BC
EA26: 3E 0A                             LD      A,0Ah
EA28: CD 58 EA                          CALL    0EA58h
EA2B: 3A 23 01                          LD      A,(0123h)
EA2E: 3C                                INC     A
EA2F: 32 23 01                          LD      (0123h),A
EA32: C1                                POP     BC
EA33: 57                                LD      D,A
EA34: 3A 22 01                          LD      A,(0122h)
EA37: BA                                CP      D
EA38: 20 E8                             JR      NZ,0EA22h

                                        ; Referenced from 0FF7Fh, 0EA52h, 0E9CBh
                                        ; --- START PROC 0EA3Ah ---
EA3A: 3A 23 01                   0EA3Ah:        LD      A,(0123h)
EA3D: 47                                LD      B,A
EA3E: 3A 21 01                          LD      A,(0121h)
EA41: F5                                PUSH    AF
EA42: C5                                PUSH    BC
EA43: 3E 0A                             LD      A,0Ah
EA45: CD 58 EA                          CALL    0EA58h
EA48: 3A 23 01                          LD      A,(0123h)
EA4B: 3C                                INC     A
EA4C: 32 23 01                          LD      (0123h),A
EA4F: C1                                POP     BC
EA50: F1                                POP     AF
EA51: 90                                SUB     B
EA52: 20 E6                             JR      NZ,0EA3Ah
EA54: 32 23 01                          LD      (0123h),A
EA57: C9                                RET

                                        ; Referenced from 0FF7Ch, 0EB7Bh, 0EB84h, 0EB89h, 0EA45h, 0EA28h, 0E9ECh, 0E9F5h
                                        ; --- START PROC 0EA58h ---
EA58: 21 24 01                   0EA58h:        LD      HL,0124h    ; address or value?
EA5B: CB 46                             BIT     0,(HL)
EA5D: 20 7E                             JR      NZ,0EADDh
EA5F: FE 0A                             CP      0Ah
EA61: CA 40 EC                          JP      Z,0EC40h
EA64: FE 07                             CP      07h
EA66: 28 75                             JR      Z,0EADDh
EA68: FE 0D                             CP      0Dh
EA6A: 20 0A                             JR      NZ,0EA76h
EA6C: CD 8D EA                          CALL    0EA8Dh
EA6F: 21 C4 AB                          LD      HL,0ABC4h       ; address or value?
EA72: 22 1E 01                          LD      (011Eh),HL
EA75: C9                                RET

                                        ; Referenced from 0EA6Ah
EA76: 2A 1E 01                   0EA76h:        LD      HL,(011Eh)
EA79: 57                                LD      D,A
EA7A: 3E FA                             LD      A,0FAh
EA7C: BD                                CP      L
EA7D: 7A                                LD      A,D
EA7E: 20 07                             JR      NZ,0EA87h
EA80: 2E C4                             LD      L,0C4h
EA82: E5                                PUSH    HL
EA83: CD 40 EC                          CALL    0EC40h
EA86: E1                                POP     HL

                                        ; Referenced from 0EA7Eh
EA87: 77                         0EA87h:        LD      (HL),A
EA88: 23                                INC     HL
EA89: 22 1E 01                          LD      (011Eh),HL
EA8C: C9                                RET

                                        ; Referenced from 0FF79h, 0EA6Ch
                                        ; --- START PROC 0EA8Dh ---
EA8D: 3E 50                      0EA8Dh:        LD      A,50h   ; 'P'

                                        ; Referenced from 0FF76h
                                        ; --- START PROC 0EA8Fh ---
EA8F: 32 B2 00                   0EA8Fh:        LD      (00B2h),A

                                        ; Referenced from 0EAADh
EA92: 21 98 00                   0EA92h:        LD      HL,0098h    ; address or value?
EA95: CB 7E                             BIT     7,(HL)
EA97: 20 16                             JR      NZ,0EAAFh
EA99: 21 F9 AB                          LD      HL,0ABF9h       ; address or value?
EA9C: CB FE                             SET     7,(HL)
EA9E: E5                                PUSH    HL
EA9F: 3E 30                             LD      A,30h   ; '0'
EAA1: 32 B3 00                          LD      (00B3h),A
EAA4: CD F5 E2                          CALL    0E2F5h
EAA7: E1                                POP     HL
EAA8: CB BE                             RES     7,(HL)
EAAA: CD F5 E2                          CALL    0E2F5h
EAAD: 18 E3                             JR      0EA92h

                                        ; Referenced from 0EA97h
EAAF: 7E                         0EAAFh:        LD      A,(HL)
EAB0: CB BF                             RES     7,A
EAB2: 77                                LD      (HL),A
EAB3: E5                                PUSH    HL
EAB4: 21 A6 EC                          LD      HL,0ECA6h       ; address or value?
EAB7: 01 09 00                          LD      BC,0009h        ; address or value?
EABA: ED B1                             CPIR
EABC: E1                                POP     HL
EABD: C0                                RET     NZ
EABE: CB FE                             SET     7,(HL)
EAC0: E6 0F                             AND     0Fh
EAC2: CB 27                             SLA     A
EAC4: CB 27                             SLA     A
EAC6: CB 27                             SLA     A
EAC8: 32 B3 00                          LD      (00B3h),A
EACB: CD F5 E2                          CALL    0E2F5h
EACE: C9                                RET

                                        ; Referenced from 0EAEAh, 0EB00h
                                        ; --- START PROC 0EACFh ---
EACF: F5                         0EACFh:        PUSH    AF
EAD0: C5                                PUSH    BC
EAD1: 21 06 0C                          LD      HL,0C06h        ; address or value?
EAD4: 22 B2 00                          LD      (00B2h),HL
EAD7: CD F5 E2                          CALL    0E2F5h
EADA: C1                                POP     BC
EADB: F1                                POP     AF
EADC: C9                                RET

                                        ; Referenced from 0FF73h, 0EA5Dh, 0EA66h
                                        ; --- START PROC 0EADDh ---
EADD: CB FF                      0EADDh:        SET     7,A
EADF: 32 C8 00                          LD      (00C8h),A
EAE2: 06 09                             LD      B,09h
EAE4: DB D9                             IN      A,(0D9h)
EAE6: CB FF                             SET     7,A

                                        ; Referenced from 0EAFAh
EAE8: D3 D9                      0EAE8h:        OUT     (0D9h),A
EAEA: CD CF EA                          CALL    0EACFh
EAED: 21 C8 00                          LD      HL,00C8h        ; address or value?
EAF0: CB 46                             BIT     0,(HL)
EAF2: CB FF                             SET     7,A
EAF4: 28 02                             JR      Z,0EAF8h
EAF6: CB BF                             RES     7,A

                                        ; Referenced from 0EAF4h
EAF8: CB 0E                      0EAF8h:        RRC     (HL)
EAFA: 10 EC                             DJNZ    0EAE8h
EAFC: CB BF                             RES     7,A
EAFE: D3 D9                             OUT     (0D9h),A
EB00: CD CF EA                          CALL    0EACFh
EB03: C9                                RET

                                        ; Referenced from 0FF70h, 0F232h, 0F1C6h
                                        ; --- START PROC 0EB04h ---
EB04: E5                         0EB04h:        PUSH    HL
EB05: 1B                                DEC     DE
EB06: DD E5                             PUSH    IX
EB08: DD 21 C9 00                       LD      IX,00C9h        ; address or value?
EB0C: DD CB 00 86                       RES     0,(IX+00h)
EB10: 7E                                LD      A,(HL)
EB11: E6 1F                             AND     1Fh
EB13: 3C                                INC     A
EB14: 4F                                LD      C,A
EB15: 06 03                             LD      B,03h

                                        ; Referenced from 0EB1Bh
EB17: 0C                         0EB17h:        INC     C
EB18: 90                                SUB     B
EB19: 28 03                             JR      Z,0EB1Eh
EB1B: F2 17 EB                          JP      P,0EB17h

                                        ; Referenced from 0EB19h
EB1E: 80                         0EB1Eh:        ADD     A,B
EB1F: 0D                                DEC     C
EB20: 47                                LD      B,A

                                        ; Referenced from 0EB3Eh
EB21: 23                         0EB21h:        INC     HL
EB22: 13                                INC     DE
EB23: 7E                                LD      A,(HL)

                                        ; Referenced from 0EB45h
EB24: DD CB 00 46                0EB24h:        BIT     0,(IX+00h)
EB28: 20 10                             JR      NZ,0EB3Ah
EB2A: FE 30                             CP      30h     ; '0'
EB2C: 28 0A                             JR      Z,0EB38h
EB2E: FE 2E                             CP      2Eh     ; '.'
EB30: 28 06                             JR      Z,0EB38h
EB32: DD CB 00 C6                       SET     0,(IX+00h)
EB36: 18 02                             JR      0EB3Ah

                                        ; Referenced from 0EB2Ch, 0EB30h
EB38: 3E 20                      0EB38h:        LD      A,20h   ; ' '

                                        ; Referenced from 0EB28h, 0EB36h
EB3A: 12                         0EB3Ah:        LD      (DE),A
EB3B: 0D                                DEC     C
EB3C: 28 09                             JR      Z,0EB47h
EB3E: 10 E1                             DJNZ    0EB21h
EB40: 3E 2E                             LD      A,2Eh   ; '.'
EB42: 06 04                             LD      B,04h
EB44: 13                                INC     DE
EB45: 18 DD                             JR      0EB24h

                                        ; Referenced from 0EB3Ch
EB47: DD E1                      0EB47h:        POP     IX
EB49: E1                                POP     HL
EB4A: 13                                INC     DE
EB4B: CB 6E                             BIT     5,(HL)
EB4D: C8                                RET     Z
EB4E: 3E 2D                             LD      A,2Dh   ; '-'
EB50: 12                                LD      (DE),A
EB51: C9                                RET

                                        ; Referenced from 0FF6Dh
                                        ; Entry Point
                                        ; --- START PROC 0EB52h ---
EB52: 21 C4 AB                   0EB52h:        LD      HL,0ABC4h   ; address or value?

                                        ; Referenced from 0FF6Ah
                                        ; --- START PROC 0EB55h ---
EB55: 11 00 AC                   0EB55h:        LD      DE,0AC00h   ; address or value?

                                        ; Referenced from 0FF67h
                                        ; --- START PROC 0EB58h ---
EB58: CB FE                      0EB58h:        SET     7,(HL)
EB5A: E5                                PUSH    HL
EB5B: EB                                EX      DE,HL
EB5C: 3E 20                             LD      A,20h   ; ' '

                                        ; Referenced from 0EB60h
EB5E: 2B                         0EB5Eh:        DEC     HL
EB5F: BE                                CP      (HL)
EB60: 28 FC                             JR      Z,0EB5Eh
EB62: CB 7E                             BIT     7,(HL)
EB64: 06 01                             LD      B,01h
EB66: 20 05                             JR      NZ,0EB6Dh
EB68: A7                                AND     A
EB69: 23                                INC     HL
EB6A: ED 52                             SBC     HL,DE
EB6C: 45                                LD      B,L

                                        ; Referenced from 0EB66h
EB6D: E1                         0EB6Dh:        POP     HL
EB6E: CB BE                             RES     7,(HL)
EB70: CD 76 EB                          CALL    0EB76h
EB73: C3 40 EC                          JP      0EC40h

                                        ; Referenced from 0EB70h
                                        ; --- START PROC 0EB76h ---
EB76: 2B                         0EB76h:        DEC     HL

                                        ; Referenced from 0EB80h
EB77: 23                         0EB77h:        INC     HL
EB78: 7E                                LD      A,(HL)
EB79: E5                                PUSH    HL
EB7A: C5                                PUSH    BC
EB7B: CD 58 EA                          CALL    0EA58h
EB7E: C1                                POP     BC
EB7F: E1                                POP     HL
EB80: 10 F5                             DJNZ    0EB77h
EB82: 3E 0D                             LD      A,0Dh
EB84: CD 58 EA                          CALL    0EA58h
EB87: 3E 0A                             LD      A,0Ah
EB89: CD 58 EA                          CALL    0EA58h
EB8C: C9                                RET

EB8D: FF                         0EB8Dh:        DB      0FFh
EB8E: FF                                DB      0FFh
EB8F: FF                                DB      0FFh
EB90: FF                                DB      0FFh
EB91: FF                                DB      0FFh
EB92: FF                                DB      0FFh
EB93: FF                                DB      0FFh
EB94: FF                                DB      0FFh
EB95: FF                                DB      0FFh
EB96: FF                                DB      0FFh
EB97: FF                                DB      0FFh
EB98: FF                                DB      0FFh
EB99: FF                                DB      0FFh
EB9A: FF                                DB      0FFh
EB9B: FF                                DB      0FFh
EB9C: FF                                DB      0FFh
EB9D: FF                                DB      0FFh
EB9E: FF                                DB      0FFh
EB9F: FF                                DB      0FFh
EBA0: FF                                DB      0FFh
EBA1: FF                                DB      0FFh
EBA2: FF                                DB      0FFh
EBA3: FF                                DB      0FFh
EBA4: FF                                DB      0FFh
EBA5: FF                                DB      0FFh
EBA6: FF                                DB      0FFh
EBA7: FF                                DB      0FFh
EBA8: FF                                DB      0FFh
EBA9: FF                                DB      0FFh
EBAA: FF                                DB      0FFh
EBAB: FF                                DB      0FFh
EBAC: FF                                DB      0FFh
EBAD: FF                                DB      0FFh
EBAE: FF                                DB      0FFh
EBAF: FF                                DB      0FFh
EBB0: FF                                DB      0FFh
EBB1: FF                                DB      0FFh
EBB2: FF                                DB      0FFh
EBB3: FF                                DB      0FFh
EBB4: FF                                DB      0FFh
EBB5: FF                                DB      0FFh
EBB6: FF                                DB      0FFh
EBB7: FF                                DB      0FFh
EBB8: FF                                DB      0FFh
EBB9: FF                                DB      0FFh
EBBA: FF                                DB      0FFh
EBBB: FF                                DB      0FFh
EBBC: FF                                DB      0FFh
EBBD: FF                                DB      0FFh
EBBE: FF                                DB      0FFh
EBBF: FF                                DB      0FFh
EBC0: FF                                DB      0FFh
EBC1: FF                                DB      0FFh
EBC2: FF                                DB      0FFh
EBC3: FF                                DB      0FFh
EBC4: FF                                DB      0FFh
EBC5: FF                                DB      0FFh
EBC6: FF                                DB      0FFh
EBC7: FF                                DB      0FFh
EBC8: FF                                DB      0FFh
EBC9: FF                                DB      0FFh
EBCA: FF                                DB      0FFh
EBCB: FF                                DB      0FFh
EBCC: FF                                DB      0FFh
EBCD: FF                                DB      0FFh
EBCE: FF                                DB      0FFh
EBCF: FF                                DB      0FFh
EBD0: FF                                DB      0FFh
EBD1: FF                                DB      0FFh
EBD2: FF                                DB      0FFh
EBD3: FF                                DB      0FFh
EBD4: FF                                DB      0FFh
EBD5: FF                                DB      0FFh
EBD6: FF                                DB      0FFh
EBD7: FF                                DB      0FFh
EBD8: FF                                DB      0FFh
EBD9: FF                                DB      0FFh
EBDA: FF                                DB      0FFh
EBDB: FF                                DB      0FFh
EBDC: FF                                DB      0FFh
EBDD: FF                                DB      0FFh
EBDE: FF                                DB      0FFh
EBDF: FF                                DB      0FFh
EBE0: FF                                DB      0FFh
EBE1: FF                                DB      0FFh
EBE2: FF                                DB      0FFh
EBE3: FF                                DB      0FFh
EBE4: FF                                DB      0FFh
EBE5: FF                                DB      0FFh
EBE6: FF                                DB      0FFh
EBE7: FF                                DB      0FFh
EBE8: FF                                DB      0FFh
EBE9: FF                                DB      0FFh
EBEA: FF                                DB      0FFh
EBEB: FF                                DB      0FFh
EBEC: FF                                DB      0FFh
EBED: FF                                DB      0FFh
EBEE: FF                                DB      0FFh
EBEF: FF                                DB      0FFh
EBF0: FF                                DB      0FFh
EBF1: FF                                DB      0FFh
EBF2: FF                                DB      0FFh
EBF3: FF                                DB      0FFh
EBF4: FF                                DB      0FFh
EBF5: FF                                DB      0FFh
EBF6: FF                                DB      0FFh
EBF7: FF                                DB      0FFh
EBF8: FF                                DB      0FFh
EBF9: FF                                DB      0FFh
EBFA: FF                                DB      0FFh
EBFB: FF                                DB      0FFh
EBFC: FF                                DB      0FFh
EBFD: FF                                DB      0FFh
EBFE: FF                                DB      0FFh
EBFF: FF                                DB      0FFh


                                        ; Referenced from 0FFF4h, 0EFC5h, 0EE4Eh, 0EDFDh
                                        ; --- START PROC 0EC00h ---
EC00: 78                         0EC00h:        LD      A,B
EC01: FE 00                             CP      00h
EC03: C8                                RET     Z

                                        ; Referenced from 0EC14h
EC04: CD 17 EC                   0EC04h:        CALL    0EC17h
EC07: 17                                RLA
EC08: 17                                RLA
EC09: 17                                RLA
EC0A: 17                                RLA
EC0B: E6 F0                             AND     0F0h
EC0D: 4F                                LD      C,A
EC0E: CD 17 EC                          CALL    0EC17h
EC11: B1                                OR      C
EC12: 12                                LD      (DE),A
EC13: 13                                INC     DE
EC14: 10 EE                             DJNZ    0EC04h
EC16: C9                                RET

                                        ; Referenced from 0EC04h, 0EC0Eh
                                        ; --- START PROC 0EC17h ---
EC17: 7E                         0EC17h:        LD      A,(HL)
EC18: D6 30                             SUB     30h     ; '0'
EC1A: FE 0A                             CP      0Ah
EC1C: 38 02                             JR      C,0EC20h
EC1E: D6 07                             SUB     07h

                                        ; Referenced from 0EC1Ch
EC20: 23                         0EC20h:        INC     HL
EC21: C9                                RET

                                        ; Referenced from 0EE6Bh, 0EE81h, 0FFF1h, 0EC31h, 0EF2Ah
                                        ; --- START PROC 0EC22h ---
EC22: 1A                         0EC22h:        LD      A,(DE)
EC23: 1F                                RRA
EC24: 1F                                RRA
EC25: 1F                                RRA
EC26: 1F                                RRA
EC27: CD 34 EC                          CALL    0EC34h
EC2A: 23                                INC     HL
EC2B: 1A                                LD      A,(DE)
EC2C: CD 34 EC                          CALL    0EC34h
EC2F: 23                                INC     HL
EC30: 13                                INC     DE
EC31: 10 EF                             DJNZ    0EC22h
EC33: C9                                RET

                                        ; Referenced from 0EC27h, 0EC2Ch
                                        ; --- START PROC 0EC34h ---
EC34: E6 0F                      0EC34h:        AND     0Fh
EC36: FE 0A                             CP      0Ah
EC38: 38 02                             JR      C,0EC3Ch
EC3A: C6 07                             ADD     A,07h

                                        ; Referenced from 0EC38h
EC3C: C6 30                      0EC3Ch:        ADD     A,30h   ; '0'
EC3E: 77                                LD      (HL),A
EC3F: C9                                RET

                                        ; Referenced from 0D21Ah, 0D298h, 0D7BAh, 0D7C8h, 0D7D8h, 0D833h, 0EB73h, 0FFFAh, 0D192h, 0D5F6h, 0D630h, 0D657h, 0EE9Ch, 0EFD5h, 0EF0Fh, 0EF1Bh, 0EA61h, 0D742h, 0EA83h
                                        ; --- START PROC 0EC40h ---
EC40: 21 40 A8                   0EC40h:        LD      HL,0A840h   ; address or value?
EC43: 11 00 A8                          LD      DE,0A800h       ; address or value?
EC46: 01 C0 03                          LD      BC,03C0h        ; address or value?
EC49: ED B0                             LDIR

                                        ; Referenced from 0E2C0h, 0ED3Fh, 0FFFDh, 0D1B7h, 0D3F7h, 0D65Ah, 0EF86h, 0D6EFh
                                        ; --- START PROC 0EC4Bh ---
EC4B: 21 C0 AB                   0EC4Bh:        LD      HL,0ABC0h   ; address or value?
EC4E: 06 3F                             LD      B,3Fh   ; '?'

                                        ; Referenced from 0EC53h
EC50: 36 20                      0EC50h:        LD      (HL),20h    ; ' '
EC52: 23                                INC     HL
EC53: 10 FB                             DJNZ    0EC50h
EC55: C9                                RET

                                        ; Referenced from 0EF06h, 0EF18h
                                        ; Entry Point
                                        ; --- START PROC 0EC56h ---
EC56: 06 0C                      0EC56h:        LD      B,0Ch
EC58: DD 21 7E 00                       LD      IX,007Eh        ; address or value?

                                        ; Referenced from 0EC6Ch
                                        ; --- START PROC 0EC5Ch ---
EC5C: DD 23                      0EC5Ch:        INC     IX
EC5E: DD 23                             INC     IX

                                        ; Referenced from 0EE76h, 0EE8Ah, 0EE06h
                                        ; --- START PROC 0EC60h ---
EC60: DD 7E 00                   0EC60h:        LD      A,(IX+00h)
EC63: DD 4E 01                          LD      C,(IX+01h)
EC66: DD 77 01                          LD      (IX+01h),A
EC69: DD 71 00                          LD      (IX+00h),C
EC6C: 10 EE                             DJNZ    0EC5Ch
EC6E: C9                                RET

                                        ; Referenced from 0E08Fh, 0ED07h, 0FFE8h, 0EE9Fh, 0EF44h
                                        ; --- START PROC 0EC6Fh ---
EC6F: 21 00 A8                   0EC6Fh:        LD      HL,0A800h   ; address or value?
EC72: 11 00 AC                          LD      DE,0AC00h       ; address or value?
EC75: 06 00                             LD      B,00h
EC77: CD 80 EC                          CALL    0EC80h
EC7A: CD 80 EC                          CALL    0EC80h
EC7D: CD 80 EC                          CALL    0EC80h

                                        ; Referenced from 0D479h, 0FFEBh, 0EC87h, 0EC77h, 0EC7Ah, 0EC7Dh, 0EEF4h
                                        ; --- START PROC 0EC80h ---
EC80: 4E                         0EC80h:        LD      C,(HL)
EC81: 1A                                LD      A,(DE)
EC82: 77                                LD      (HL),A
EC83: 79                                LD      A,C
EC84: 12                                LD      (DE),A
EC85: 23                                INC     HL
EC86: 13                                INC     DE
EC87: 10 F7                             DJNZ    0EC80h
EC89: C9                                RET

                                        ; Referenced from 0E032h, 0E08Ch, 0E092h, 0E29Ch, 0ED3Ch, 0F2ADh, 0D18Fh, 0E00Fh, 0FFEEh
                                        ; --- START PROC 0EC8Ah ---
EC8A: 21 00 A8                   0EC8Ah:        LD      HL,0A800h   ; address or value?
EC8D: 11 01 A8                          LD      DE,0A801h       ; address or value?
EC90: 36 20                             LD      (HL),20h        ; ' '
EC92: 01 FF 03                          LD      BC,03FFh        ; address or value?
EC95: ED B0                             LDIR
EC97: C9                                RET

                                        ; Referenced from 0E376h, 0ED49h, 0FFF7h, 0F1D9h, 0EC9Dh, 0EF9Fh, 0F06Ah, 0F173h
                                        ; --- START PROC 0EC98h ---
EC98: 3A 98 00                   0EC98h:        LD      A,(0098h)
EC9B: CB 7F                             BIT     7,A
EC9D: 28 F9                             JR      Z,0EC98h
EC9F: CB BF                             RES     7,A
ECA1: 32 98 00                          LD      (0098h),A
ECA4: C9                                RET

ECA5: 30 31 32 33 34 35 36 37    0ECA5h:        DB      "0123456789ABCDEF"
ECAD: 38 39 41 42 43 44 45 46

                                        ; Entry Point
                                        ; --- START PROC 0ECB5h ---
ECB5: F5                         0ECB5h:        PUSH    AF
ECB6: 3A 98 00                          LD      A,(0098h)
ECB9: FE 9B                             CP      9Bh
ECBB: 28 0B                             JR      Z,0ECC8h
ECBD: DB CD                             IN      A,(0CDh)
ECBF: CB FF                             SET     7,A
ECC1: FE 9B                             CP      9Bh
ECC3: 28 07                             JR      Z,0ECCCh

                                        ; Referenced from 0ECE1h
ECC5: 32 98 00                   0ECC5h:        LD      (0098h),A

                                        ; Referenced from 0ECBBh
ECC8: F1                         0ECC8h:        POP     AF
ECC9: FB                                EI
ECCA: ED 4D                             RETI

                                        ; Referenced from 0ECC3h
ECCC: 22 8A 00                   0ECCCh:        LD      (008Ah),HL
ECCF: E1                                POP     HL
ECD0: 22 84 00                          LD      (0084h),HL
ECD3: E1                                POP     HL
ECD4: 22 80 00                          LD      (0080h),HL
ECD7: ED 73 82 00                       LD      (0082h),SP
ECDB: 21 E3 EC                          LD      HL,0ECE3h       ; address or value?
ECDE: E5                                PUSH    HL
ECDF: 3B                                DEC     SP
ECE0: 3B                                DEC     SP
ECE1: 18 E2                             JR      0ECC5h

                                        ; Entry Point
                                        ; --- START PROC 0ECE3h ---
ECE3: ED 43 86 00                0ECE3h:        LD      (0086h),BC
ECE7: ED 53 88 00                       LD      (0088h),DE
ECEB: 08                                EX      AF,AF'
ECEC: F5                                PUSH    AF
ECED: E1                                POP     HL
ECEE: 22 90 00                          LD      (0090h),HL
ECF1: 08                                EX      AF,AF'
ECF2: D9                                EXX
ECF3: ED 43 92 00                       LD      (0092h),BC
ECF7: ED 53 94 00                       LD      (0094h),DE
ECFB: 22 96 00                          LD      (0096h),HL
ECFE: D9                                EXX
ECFF: DD 22 8C 00                       LD      (008Ch),IX
ED03: FD 22 8E 00                       LD      (008Eh),IY
ED07: CD 6F EC                          CALL    0EC6Fh
ED0A: CD 6C EF                          CALL    0EF6Ch
ED0D: 18 33                             JR      0ED42h

                                        ; Referenced from 0ED39h, 0E00Ah
                                        ; --- START PROC 0ED0Fh ---
ED0F: 21 B5 EC                   0ED0Fh:        LD      HL,0ECB5h   ; address or value?
ED12: 22 70 00                          LD      (0070h),HL
ED15: 21 98 00                          LD      HL,0098h        ; address or value?
ED18: 36 00                             LD      (HL),00h
ED1A: 23                                INC     HL
ED1B: 36 C3                             LD      (HL),0C3h
ED1D: 06 14                             LD      B,14h
ED1F: 23                                INC     HL
ED20: 23                                INC     HL

                                        ; Referenced from 0ED24h
ED21: 23                         0ED21h:        INC     HL
ED22: 36 76                             LD      (HL),76h        ; 'v'
ED24: 10 FB                             DJNZ    0ED21h
ED26: FB                                EI
ED27: ED 5E                             IM      2
ED29: 3E 4F                             LD      A,4Fh   ; 'O'
ED2B: D3 CF                             OUT     (0CFh),A
ED2D: 3E 87                             LD      A,87h
ED2F: D3 CF                             OUT     (0CFh),A
ED31: AF                                XOR     A
ED32: ED 47                             LD      I,A
ED34: 3E 70                             LD      A,70h   ; 'p'
ED36: D3 CF                             OUT     (0CFh),A
ED38: C9                                RET

                                        ; Entry Point
                                        ; --- START PROC 0ED39h ---
ED39: CD 0F ED                   0ED39h:        CALL    0ED0Fh
ED3C: CD 8A EC                          CALL    0EC8Ah

                                        ; Referenced from 0EDC2h, 0EFA4h, 0EF1Eh, 0EE2Ch
                                        ; --- START PROC 0ED3Fh ---
ED3F: CD 4B EC                   0ED3Fh:        CALL    0EC4Bh

                                        ; Referenced from 0ED0Dh, 0EE09h
                                        ; --- START PROC 0ED42h ---
ED42: 21 C4 AB                   0ED42h:        LD      HL,0ABC4h   ; address or value?

                                        ; Referenced from 0EE62h, 0EE0Dh
ED45: 06 00                      0ED45h:        LD      B,00h

                                        ; Referenced from 0EE24h, 0EDE1h
ED47: CB FE                      0ED47h:        SET     7,(HL)

                                        ; Referenced from 0ED85h, 0ED99h, 0EDA0h, 0EDB3h
ED49: CD 98 EC                   0ED49h:        CALL    0EC98h
ED4C: FE 50                             CP      50h     ; 'P'
ED4E: CA 58 EE                          JP      Z,0EE58h
ED51: FE 54                             CP      54h     ; 'T'
ED53: CA A5 EE                          JP      Z,0EEA5h
ED56: FE 4D                             CP      4Dh     ; 'M'

                                        ; Referenced from 0ED5Dh
ED58: CA 70 EE                   0ED58h:        JP      Z,0EE70h
ED5B: FE 48                             CP      48h     ; 'H'
ED5D: 28 F9                             JR      Z,0ED58h
ED5F: FE 4B                             CP      4Bh     ; 'K'
ED61: CA 03 E0                          JP      Z,0E003h
ED64: FE 56                             CP      56h     ; 'V'
ED66: CA 75 EF                          JP      Z,0EF75h
ED69: FE 47                             CP      47h     ; 'G'
ED6B: CA 70 EE                          JP      Z,0EE70h
ED6E: FE 58                             CP      58h     ; 'X'
ED70: CA 30 EF                          JP      Z,0EF30h
ED73: FE 1B                             CP      1Bh
ED75: CA D6 EE                          JP      Z,0EED6h
ED78: FE 0D                             CP      0Dh
ED7A: CA 27 EE                          JP      Z,0EE27h
ED7D: FE 3C                             CP      3Ch     ; '<'
ED7F: CA 0C EE                          JP      Z,0EE0Ch
ED82: 78                                LD      A,B
ED83: FE 30                             CP      30h     ; '0'
ED85: 28 C2                             JR      Z,0ED49h
ED87: 3A 98 00                          LD      A,(0098h)
ED8A: FE 3E                             CP      3Eh     ; '>'
ED8C: CA 15 EE                          JP      Z,0EE15h
ED8F: D9                                EXX
ED90: 21 A5 EC                          LD      HL,0ECA5h       ; address or value?
ED93: 01 10 00                          LD      BC,0010h        ; address or value?
ED96: ED B1                             CPIR
ED98: D9                                EXX
ED99: 20 AE                             JR      NZ,0ED49h
ED9B: 3A C4 AB                          LD      A,(0ABC4h)
ED9E: CB 7F                             BIT     7,A
EDA0: 20 A7                             JR      NZ,0ED49h
EDA2: FE 48                             CP      48h     ; 'H'
EDA4: 3A 98 00                          LD      A,(0098h)
EDA7: 20 2E                             JR      NZ,0EDD7h
EDA9: D9                                EXX
EDAA: 21 AF EC                          LD      HL,0ECAFh       ; address or value?
EDAD: 01 06 00                          LD      BC,0006h        ; address or value?
EDB0: ED B1                             CPIR
EDB2: D9                                EXX
EDB3: 28 94                             JR      Z,0ED49h
EDB5: 77                                LD      (HL),A
EDB6: E6 0F                             AND     0Fh
EDB8: CB 27                             SLA     A
EDBA: 11 9C 00                          LD      DE,009Ch        ; address or value?
EDBD: 83                                ADD     A,E
EDBE: 5F                                LD      E,A
EDBF: 1A                                LD      A,(DE)
EDC0: FE 76                             CP      76h     ; 'v'
EDC2: C2 3F ED                          JP      NZ,0ED3Fh
EDC5: 2A 9A 00                          LD      HL,(009Ah)
EDC8: 7E                                LD      A,(HL)
EDC9: 12                                LD      (DE),A
EDCA: 36 76                             LD      (HL),76h        ; 'v'
EDCC: 13                                INC     DE
EDCD: 23                                INC     HL
EDCE: 7E                                LD      A,(HL)
EDCF: 12                                LD      (DE),A
EDD0: 3A CB AB                          LD      A,(0ABCBh)
EDD3: 77                                LD      (HL),A
EDD4: C3 1B EF                          JP      0EF1Bh

                                        ; Referenced from 0EDA7h
EDD7: 77                         0EDD7h:        LD      (HL),A
EDD8: 04                                INC     B
EDD9: 3A C4 AB                          LD      A,(0ABC4h)
EDDC: FE 50                             CP      50h     ; 'P'
EDDE: 28 04                             JR      Z,0EDE4h

                                        ; Referenced from 0EE1Dh, 0EE21h, 0EDE6h
EDE0: 23                         0EDE0h:        INC     HL
EDE1: C3 47 ED                          JP      0ED47h

                                        ; Referenced from 0EDDEh
EDE4: CB 50                      0EDE4h:        BIT     2,B
EDE6: 28 F8                             JR      Z,0EDE0h
EDE8: 01 35 00                          LD      BC,0035h        ; address or value?
EDEB: 21 CA AB                          LD      HL,0ABCAh       ; address or value?
EDEE: 11 CB AB                          LD      DE,0ABCBh       ; address or value?
EDF1: 36 20                             LD      (HL),20h        ; ' '
EDF3: ED B0                             LDIR
EDF5: 11 9A 00                          LD      DE,009Ah        ; address or value?
EDF8: 06 02                             LD      B,02h
EDFA: 21 C6 AB                          LD      HL,0ABC6h       ; address or value?
EDFD: CD 00 EC                          CALL    0EC00h
EE00: 06 01                             LD      B,01h
EE02: DD 21 9A 00                       LD      IX,009Ah        ; address or value?
EE06: CD 60 EC                          CALL    0EC60h
EE09: C3 42 ED                          JP      0ED42h

                                        ; Referenced from 0ED7Fh
EE0C: 05                         0EE0Ch:        DEC     B
EE0D: FA 45 ED                          JP      M,0ED45h
EE10: CB BE                             RES     7,(HL)
EE12: 2B                                DEC     HL
EE13: 18 0F                             JR      0EE24h

                                        ; Referenced from 0ED8Ch
EE15: CB BE                      0EE15h:        RES     7,(HL)
EE17: 04                                INC     B
EE18: 3A C4 AB                          LD      A,(0ABC4h)
EE1B: FE 50                             CP      50h     ; 'P'
EE1D: 20 C1                             JR      NZ,0EDE0h
EE1F: CB 50                             BIT     2,B
EE21: 20 BD                             JR      NZ,0EDE0h
EE23: 05                                DEC     B

                                        ; Referenced from 0EE13h
EE24: C3 47 ED                   0EE24h:        JP      0ED47h

                                        ; Referenced from 0ED7Ah
EE27: 3A C4 AB                   0EE27h:        LD      A,(0ABC4h)
EE2A: FE 54                             CP      54h     ; 'T'
EE2C: C2 3F ED                          JP      NZ,0ED3Fh
EE2F: CB 40                             BIT     0,B
EE31: 28 01                             JR      Z,0EE34h
EE33: 2B                                DEC     HL

                                        ; Referenced from 0EE31h
EE34: CB 38                      0EE34h:        SRL     B
EE36: 3E FF                             LD      A,0FFh
EE38: 32 FF AB                          LD      (0ABFFh),A

                                        ; Referenced from 0EE43h
EE3B: 7E                         0EE3Bh:        LD      A,(HL)
EE3C: FE FF                             CP      0FFh
EE3E: 28 05                             JR      Z,0EE45h
EE40: 36 20                             LD      (HL),20h        ; ' '
EE42: 23                                INC     HL
EE43: 18 F6                             JR      0EE3Bh

                                        ; Referenced from 0EE3Eh
EE45: 36 20                      0EE45h:        LD      (HL),20h    ; ' '
EE47: ED 5B 9A 00                       LD      DE,(009Ah)
EE4B: 21 CB AB                          LD      HL,0ABCBh       ; address or value?
EE4E: CD 00 EC                          CALL    0EC00h

                                        ; Referenced from 0EE6Eh
EE51: ED 53 9A 00                0EE51h:        LD      (009Ah),DE
EE55: C3 1B EF                          JP      0EF1Bh

                                        ; Referenced from 0ED4Eh
EE58: CB BE                      0EE58h:        RES     7,(HL)
EE5A: 21 C6 AB                          LD      HL,0ABC6h       ; address or value?

                                        ; Referenced from 0EE97h
EE5D: 32 C4 AB                   0EE5Dh:        LD      (0ABC4h),A
EE60: FE 4D                             CP      4Dh     ; 'M'
EE62: C2 45 ED                          JP      NZ,0ED45h
EE65: ED 5B 9A 00                       LD      DE,(009Ah)
EE69: 06 18                             LD      B,18h
EE6B: CD 22 EC                          CALL    0EC22h
EE6E: 18 E1                             JR      0EE51h

                                        ; Referenced from 0ED58h, 0ED6Bh, 0EEADh, 0EEB7h, 0EED3h
EE70: 06 01                      0EE70h:        LD      B,01h
EE72: DD 21 9A 00                       LD      IX,009Ah        ; address or value?
EE76: CD 60 EC                          CALL    0EC60h
EE79: 06 02                             LD      B,02h
EE7B: 21 C6 AB                          LD      HL,0ABC6h       ; address or value?
EE7E: 11 9A 00                          LD      DE,009Ah        ; address or value?
EE81: CD 22 EC                          CALL    0EC22h
EE84: 06 01                             LD      B,01h
EE86: DD 21 9A 00                       LD      IX,009Ah        ; address or value?
EE8A: CD 60 EC                          CALL    0EC60h
EE8D: CB BE                             RES     7,(HL)
EE8F: 21 CB AB                          LD      HL,0ABCBh       ; address or value?
EE92: 3A 98 00                          LD      A,(0098h)
EE95: FE 47                             CP      47h     ; 'G'
EE97: 20 C4                             JR      NZ,0EE5Dh
EE99: 32 C4 AB                          LD      (0ABC4h),A
EE9C: CD 40 EC                          CALL    0EC40h
EE9F: CD 6F EC                          CALL    0EC6Fh
EEA2: C3 99 00                          JP      0099h

                                        ; Referenced from 0ED53h
EEA5: 3A C4 AB                   0EEA5h:        LD      A,(0ABC4h)
EEA8: FE D0                             CP      0D0h
EEAA: 3A 98 00                          LD      A,(0098h)
EEAD: 28 C1                             JR      Z,0EE70h
EEAF: 3A 84 AB                          LD      A,(0AB84h)
EEB2: FE 4D                             CP      4Dh     ; 'M'
EEB4: 3A 98 00                          LD      A,(0098h)
EEB7: 20 B7                             JR      NZ,0EE70h
EEB9: E5                                PUSH    HL
EEBA: 11 18 00                          LD      DE,0018h        ; address or value?
EEBD: 2A 9A 00                          LD      HL,(009Ah)
EEC0: ED 52                             SBC     HL,DE
EEC2: 22 9A 00                          LD      (009Ah),HL
EEC5: C5                                PUSH    BC
EEC6: 21 8B AB                          LD      HL,0AB8Bh       ; address or value?
EEC9: 11 CB AB                          LD      DE,0ABCBh       ; address or value?
EECC: 01 36 00                          LD      BC,0036h        ; address or value?
EECF: ED B0                             LDIR
EED1: C1                                POP     BC
EED2: E1                                POP     HL
EED3: C3 70 EE                          JP      0EE70h

                                        ; Referenced from 0ED75h
EED6: 2A 80 00                   0EED6h:        LD      HL,(0080h)
EED9: 2B                                DEC     HL
EEDA: 7E                                LD      A,(HL)
EEDB: FE 76                             CP      76h     ; 'v'
EEDD: 20 22                             JR      NZ,0EF01h
EEDF: 22 80 00                          LD      (0080h),HL
EEE2: E5                                PUSH    HL
EEE3: D1                                POP     DE
EEE4: 23                                INC     HL
EEE5: 7E                                LD      A,(HL)
EEE6: 32 EA AB                          LD      (0ABEAh),A
EEE9: E6 0F                             AND     0Fh
EEEB: 21 9C 00                          LD      HL,009Ch        ; address or value?
EEEE: CB 27                             SLA     A
EEF0: 85                                ADD     A,L
EEF1: 6F                                LD      L,A
EEF2: 06 02                             LD      B,02h
EEF4: CD 80 EC                          CALL    0EC80h
EEF7: 3E 3D                             LD      A,3Dh   ; '='
EEF9: 32 E9 AB                          LD      (0ABE9h),A
EEFC: 3E 48                             LD      A,48h   ; 'H'
EEFE: 32 E8 AB                          LD      (0ABE8h),A

                                        ; Referenced from 0EEDDh
EF01: 3E 49                      0EF01h:        LD      A,49h   ; 'I'
EF03: 32 C4 AB                          LD      (0ABC4h),A
EF06: CD 56 EC                          CALL    0EC56h
EF09: 11 80 00                          LD      DE,0080h        ; address or value?
EF0C: CD 21 EF                          CALL    0EF21h
EF0F: CD 40 EC                          CALL    0EC40h
EF12: 11 8C 00                          LD      DE,008Ch        ; address or value?
EF15: CD 21 EF                          CALL    0EF21h
EF18: CD 56 EC                          CALL    0EC56h

                                        ; Referenced from 0EDD4h, 0EE55h
EF1B: CD 40 EC                   0EF1Bh:        CALL    0EC40h

                                        ; Referenced from 0EF83h
                                        ; --- START PROC 0EF1Eh ---
EF1E: C3 3F ED                   0EF1Eh:        JP      0ED3Fh

                                        ; Referenced from 0EF0Ch, 0EF15h
                                        ; --- START PROC 0EF21h ---
EF21: 21 C6 AB                   0EF21h:        LD      HL,0ABC6h   ; address or value?

                                        ; Referenced from 0EF2Eh
EF24: 7D                         0EF24h:        LD      A,L
EF25: FE E4                             CP      0E4h
EF27: C8                                RET     Z
EF28: 06 02                             LD      B,02h
EF2A: CD 22 EC                          CALL    0EC22h
EF2D: 23                                INC     HL
EF2E: 18 F4                             JR      0EF24h

                                        ; Referenced from 0ED70h
                                        ; --- START PROC 0EF30h ---
EF30: 08                         0EF30h:        EX      AF,AF'
EF31: 2A 90 00                          LD      HL,(0090h)
EF34: E5                                PUSH    HL
EF35: F1                                POP     AF
EF36: 08                                EX      AF,AF'
EF37: D9                                EXX
EF38: ED 4B 92 00                       LD      BC,(0092h)
EF3C: ED 5B 94 00                       LD      DE,(0094h)
EF40: 2A 96 00                          LD      HL,(0096h)
EF43: D9                                EXX
EF44: CD 6F EC                          CALL    0EC6Fh
EF47: DD 2A 8C 00                       LD      IX,(008Ch)
EF4B: FD 2A 8E 00                       LD      IY,(008Eh)
EF4F: 2A 84 00                          LD      HL,(0084h)
EF52: E5                                PUSH    HL
EF53: F1                                POP     AF
EF54: ED 4B 86 00                       LD      BC,(0086h)
EF58: ED 5B 88 00                       LD      DE,(0088h)
EF5C: 2A 80 00                          LD      HL,(0080h)
EF5F: 22 9A 00                          LD      (009Ah),HL
EF62: ED 7B 82 00                       LD      SP,(0082h)
EF66: 2A 8A 00                          LD      HL,(008Ah)
EF69: C3 99 00                          JP      0099h

                                        ; Referenced from 0ED0Ah, 0E007h
                                        ; --- START PROC 0EF6Ch ---
EF6C: 3E 90                      0EF6Ch:        LD      A,90h
EF6E: D3 DF                             OUT     (0DFh),A
EF70: 3E F0                             LD      A,0F0h
EF72: D3 DF                             OUT     (0DFh),A
EF74: C9                                RET

                                        ; Referenced from 0ED66h
                                        ; --- START PROC 0EF75h ---
EF75: DD 21 7E 00                0EF75h:        LD      IX,007Eh    ; address or value?
EF79: 21 DB EF                          LD      HL,0EFDBh       ; address or value?

                                        ; Referenced from 0EFA9h, 0EFD9h
EF7C: 3E 56                      0EF7Ch:        LD      A,56h   ; 'V'
EF7E: DD 23                             INC     IX
EF80: DD 23                             INC     IX
EF82: BE                                CP      (HL)
EF83: 28 99                             JR      Z,0EF1Eh
EF85: E5                                PUSH    HL
EF86: CD 4B EC                          CALL    0EC4Bh
EF89: E1                                POP     HL
EF8A: 32 C4 AB                          LD      (0ABC4h),A
EF8D: 11 C6 AB                          LD      DE,0ABC6h       ; address or value?
EF90: 01 03 00                          LD      BC,0003h        ; address or value?
EF93: ED B0                             LDIR
EF95: 3E 3D                             LD      A,3Dh   ; '='
EF97: 12                                LD      (DE),A
EF98: 06 04                             LD      B,04h
EF9A: 13                                INC     DE

                                        ; Referenced from 0EFBAh
EF9B: 13                         0EF9Bh:        INC     DE
EF9C: 3E A0                             LD      A,0A0h
EF9E: 12                                LD      (DE),A

                                        ; Referenced from 0EFB7h
EF9F: CD 98 EC                   0EF9Fh:        CALL    0EC98h
EFA2: FE 0D                             CP      0Dh
EFA4: CA 3F ED                          JP      Z,0ED3Fh
EFA7: FE 20                             CP      20h     ; ' '
EFA9: 28 D1                             JR      Z,0EF7Ch
EFAB: E5                                PUSH    HL
EFAC: C5                                PUSH    BC
EFAD: 21 A5 EC                          LD      HL,0ECA5h       ; address or value?
EFB0: 01 10 00                          LD      BC,0010h        ; address or value?
EFB3: ED B1                             CPIR
EFB5: C1                                POP     BC
EFB6: E1                                POP     HL
EFB7: 20 E6                             JR      NZ,0EF9Fh
EFB9: 12                                LD      (DE),A
EFBA: 10 DF                             DJNZ    0EF9Bh
EFBC: E5                                PUSH    HL
EFBD: 21 CB AB                          LD      HL,0ABCBh       ; address or value?
EFC0: DD E5                             PUSH    IX
EFC2: D1                                POP     DE
EFC3: 06 02                             LD      B,02h
EFC5: CD 00 EC                          CALL    0EC00h
EFC8: DD 7E 00                          LD      A,(IX+00h)
EFCB: DD 46 01                          LD      B,(IX+01h)
EFCE: DD 77 01                          LD      (IX+01h),A
EFD1: 78                                LD      A,B
EFD2: DD 77 00                          LD      (IX+00h),A
EFD5: CD 40 EC                          CALL    0EC40h
EFD8: E1                                POP     HL
EFD9: 18 A1                             JR      0EF7Ch

EFDB: 50 43 20 53 50 20 41 46    0EFDBh:        DB      "PC SP AF BC DE HL IX IY AF'BC'DE'HL'V0123456789-"
EFE3: 20 42 43 20 44 45 20 48
EFEB: 4C 20 49 58 20 49 59 20
EFF3: 41 46 27 42 43 27 44 45
EFFB: 27 48 4C 27 56 30 31 32
F003: 33 34 35 36 37 38 39 2D
F00B: FF                                DB      0FFh
F00C: FF                                DB      0FFh
F00D: FF                                DB      0FFh


                                        ; Referenced from 0F045h, 0F036h
                                        ; --- START PROC 0F00Eh ---
F00E: 2A 2F 01                   0F00Eh:        LD      HL,(012Fh)
F011: 3E FF                             LD      A,0FFh
F013: BE                                CP      (HL)
F014: C8                                RET     Z
F015: 11 25 01                          LD      DE,0125h        ; address or value?
F018: 01 06 00                          LD      BC,0006h        ; address or value?
F01B: ED B0                             LDIR
F01D: 3A 25 01                          LD      A,(0125h)
F020: CB 5F                             BIT     3,A
F022: CD 62 F1                          CALL    0F162h
F025: CB 67                             BIT     4,A
F027: CD 62 F1                          CALL    0F162h
F02A: 22 2F 01                          LD      (012Fh),HL
F02D: 3E 01                             LD      A,01h
F02F: B7                                OR      A
F030: C9                                RET

                                        ; Referenced from 0F075h, 0F1A0h
                                        ; --- START PROC 0F031h ---
F031: E1                         0F031h:        POP     HL
F032: E5                                PUSH    HL
F033: 22 2F 01                          LD      (012Fh),HL

                                        ; Referenced from 0F03Eh
F036: CD 0E F0                   0F036h:        CALL    0F00Eh
F039: 28 05                             JR      Z,0F040h
F03B: CD 4D F1                          CALL    0F14Dh
F03E: 18 F6                             JR      0F036h

                                        ; Referenced from 0F039h
                                        ; --- START PROC 0F040h ---
F040: E1                         0F040h:        POP     HL

                                        ; Referenced from 0F289h, 0F238h, 0F1E4h, 0FF64h
                                        ; --- START PROC 0F041h ---
F041: E5                         0F041h:        PUSH    HL
F042: 22 2F 01                          LD      (012Fh),HL

                                        ; Referenced from 0F14Ah
                                        ; --- START PROC 0F045h ---
F045: CD 0E F0                   0F045h:        CALL    0F00Eh
F048: 20 02                             JR      NZ,0F04Ch
F04A: E1                                POP     HL
F04B: C9                                RET

                                        ; Referenced from 0F048h
F04C: 3A 25 01                   0F04Ch:        LD      A,(0125h)
F04F: CB 47                             BIT     0,A
F051: CA 6C F1                          JP      Z,0F16Ch
F054: CB 5F                             BIT     3,A
F056: C2 85 F1                          JP      NZ,0F185h

                                        ; Referenced from 0F147h, 0F071h, 0F1AAh
                                        ; --- START PROC 0F059h ---
F059: CD 4D F1                   0F059h:        CALL    0F14Dh
F05C: AF                                XOR     A
F05D: 32 CF 00                          LD      (00CFh),A
F060: 2A 27 01                          LD      HL,(0127h)
F063: 57                                LD      D,A
F064: 3A 26 01                          LD      A,(0126h)
F067: 5F                                LD      E,A

                                        ; Referenced from 0F084h, 0F092h, 0F099h, 0F09Eh, 0F0A7h, 0F0B8h
F068: 36 A0                      0F068h:        LD      (HL),0A0h
F06A: CD 98 EC                          CALL    0EC98h
F06D: CB BE                             RES     7,(HL)
F06F: FE 1A                             CP      1Ah
F071: 28 E6                             JR      Z,0F059h
F073: FE 01                             CP      01h
F075: 28 BA                             JR      Z,0F031h
F077: FE 7F                             CP      7Fh     ; ''
F079: 28 19                             JR      Z,0F094h
F07B: FE 0D                             CP      0Dh
F07D: CA BF F0                          JP      Z,0F0BFh
F080: 47                                LD      B,A
F081: 7B                                LD      A,E
F082: FE 00                             CP      00h
F084: 28 E2                             JR      Z,0F068h
F086: 3A 25 01                          LD      A,(0125h)
F089: CB 4F                             BIT     1,A
F08B: 78                                LD      A,B
F08C: 20 12                             JR      NZ,0F0A0h

                                        ; Referenced from 0F0BDh
F08E: 77                         0F08Eh:        LD      (HL),A
F08F: 23                                INC     HL
F090: 14                                INC     D
F091: 1D                                DEC     E
F092: 18 D4                             JR      0F068h

                                        ; Referenced from 0F079h
F094: AF                         0F094h:        XOR     A
F095: 32 CF 00                          LD      (00CFh),A
F098: 82                                ADD     A,D
F099: 28 CD                             JR      Z,0F068h
F09B: 2B                                DEC     HL
F09C: 15                                DEC     D
F09D: 1C                                INC     E
F09E: 18 C8                             JR      0F068h

                                        ; Referenced from 0F08Ch
F0A0: 47                         0F0A0h:        LD      B,A
F0A1: 3A CF 00                          LD      A,(00CFh)
F0A4: FE 2D                             CP      2Dh     ; '-'
F0A6: 78                                LD      A,B
F0A7: 28 BF                             JR      Z,0F068h
F0A9: E5                                PUSH    HL
F0AA: 21 00 F0                          LD      HL,0F000h       ; address or value?
F0AD: 01 0A 00                          LD      BC,000Ah        ; address or value?
F0B0: 14                                INC     D
F0B1: 15                                DEC     D
F0B2: 28 01                             JR      Z,0F0B5h
F0B4: 03                                INC     BC

                                        ; Referenced from 0F0B2h
F0B5: ED B1                      0F0B5h:        CPIR
F0B7: E1                                POP     HL
F0B8: 20 AE                             JR      NZ,0F068h
F0BA: 32 CF 00                          LD      (00CFh),A
F0BD: 18 CF                             JR      0F08Eh

                                        ; Referenced from 0F07Dh, 0F1A5h
                                        ; --- START PROC 0F0BFh ---
F0BF: 3A 25 01                   0F0BFh:        LD      A,(0125h)
F0C2: CB 4F                             BIT     1,A
F0C4: CD CD F1                          CALL    0F1CDh
F0C7: 2A 27 01                          LD      HL,(0127h)
F0CA: 20 08                             JR      NZ,0F0D4h
F0CC: ED 5B 29 01                       LD      DE,(0129h)
F0D0: ED B0                             LDIR
F0D2: 18 5F                             JR      0F133h

                                        ; Referenced from 0F0CAh
F0D4: 09                         0F0D4h:        ADD     HL,BC
F0D5: 41                                LD      B,C

                                        ; Referenced from 0F0DCh
F0D6: 2B                         0F0D6h:        DEC     HL
F0D7: 7E                                LD      A,(HL)
F0D8: FE 20                             CP      20h     ; ' '
F0DA: 20 02                             JR      NZ,0F0DEh
F0DC: 10 F8                             DJNZ    0F0D6h

                                        ; Referenced from 0F0DAh
F0DE: 11 D0 00                   0F0DEh:        LD      DE,00D0h    ; address or value?
F0E1: CD EB F4                          CALL    0F4EBh
F0E4: EB                                EX      DE,HL
F0E5: 11 DC 00                          LD      DE,00DCh        ; address or value?
F0E8: CD 7A F5                          CALL    0F57Ah
F0EB: 2A 29 01                          LD      HL,(0129h)
F0EE: EB                                EX      DE,HL
F0EF: 3A 25 01                          LD      A,(0125h)
F0F2: CB 57                             BIT     2,A
F0F4: 20 05                             JR      NZ,0F0FBh
F0F6: CD AC E4                          CALL    0E4ACh
F0F9: 18 08                             JR      0F103h

                                        ; Referenced from 0F0F4h
F0FB: 21 D0 00                   0F0FBh:        LD      HL,00D0h    ; address or value?
F0FE: 01 06 00                          LD      BC,0006h        ; address or value?
F101: ED B0                             LDIR

                                        ; Referenced from 0F0F9h
F103: 3A 25 01                   0F103h:        LD      A,(0125h)
F106: CB 6F                             BIT     5,A
F108: 28 29                             JR      Z,0F133h
F10A: CD 4D F1                          CALL    0F14Dh
F10D: 21 EB 00                          LD      HL,00EBh        ; address or value?
F110: CD C9 F1                          CALL    0F1C9h
F113: 0B                                DEC     BC
F114: B7                                OR      A
F115: ED 42                             SBC     HL,BC
F117: 41                                LD      B,C
F118: CB 77                             BIT     6,A
F11A: 28 0C                             JR      Z,0F128h

                                        ; Referenced from 0F126h
F11C: 0D                         0F11Ch:        DEC     C
F11D: 0D                                DEC     C
F11E: 0D                                DEC     C
F11F: 28 07                             JR      Z,0F128h
F121: FA 28 F1                          JP      M,0F128h
F124: 05                                DEC     B
F125: 23                                INC     HL
F126: 18 F4                             JR      0F11Ch

                                        ; Referenced from 0F11Ah, 0F11Fh, 0F121h
F128: 3A DC 00                   0F128h:        LD      A,(00DCh)
F12B: E6 E0                             AND     0E0h
F12D: 05                                DEC     B
F12E: B0                                OR      B
F12F: 77                                LD      (HL),A
F130: CD BE F1                          CALL    0F1BEh

                                        ; Referenced from 0F0D2h, 0F108h
F133: 3A 25 01                   0F133h:        LD      A,(0125h)
F136: CB 67                             BIT     4,A
F138: 28 10                             JR      Z,0F14Ah
F13A: 21 42 F1                          LD      HL,0F142h       ; address or value?
F13D: E5                                PUSH    HL
F13E: 2A 2D 01                          LD      HL,(012Dh)
F141: E9                                JP      (HL)

                                        ; Entry Point
                                        ; --- START PROC 0F142h ---
F142: F5                         0F142h:        PUSH    AF
F143: DC 4D F1                          CALL    C,0F14Dh
F146: F1                                POP     AF
F147: DA 59 F0                          JP      C,0F059h

                                        ; Referenced from 0F138h, 0F171h, 0F17Dh
                                        ; --- START PROC 0F14Ah ---
F14A: C3 45 F0                   0F14Ah:        JP      0F045h

                                        ; Referenced from 0F143h, 0F059h, 0F03Bh, 0F17Ah, 0F1ADh, 0F10Ah
                                        ; --- START PROC 0F14Dh ---
F14D: F5                         0F14Dh:        PUSH    AF
F14E: 2A 27 01                          LD      HL,(0127h)
F151: 36 20                             LD      (HL),20h        ; ' '
F153: 54                                LD      D,H
F154: 5D                                LD      E,L
F155: CD CD F1                          CALL    0F1CDh
F158: 0B                                DEC     BC
F159: AF                                XOR     A
F15A: B9                                CP      C
F15B: 28 03                             JR      Z,0F160h
F15D: 13                                INC     DE
F15E: ED B0                             LDIR

                                        ; Referenced from 0F15Bh
F160: F1                         0F160h:        POP     AF
F161: C9                                RET

                                        ; Referenced from 0F022h, 0F027h
                                        ; --- START PROC 0F162h ---
F162: 28 05                      0F162h:        JR      Z,0F169h
F164: ED A0                             LDI
F166: ED A0                             LDI
F168: C9                                RET

                                        ; Referenced from 0F162h
F169: 13                         0F169h:        INC     DE
F16A: 13                                INC     DE
F16B: C9                                RET

                                        ; Referenced from 0F051h
                                        ; --- START PROC 0F16Ch ---
F16C: CD B5 F1                   0F16Ch:        CALL    0F1B5h
F16F: CB 4F                             BIT     1,A
F171: 28 D7                             JR      Z,0F14Ah
F173: CD 98 EC                          CALL    0EC98h
F176: FE 0D                             CP      0Dh
F178: 28 05                             JR      Z,0F17Fh
F17A: CD 4D F1                          CALL    0F14Dh
F17D: 18 CB                             JR      0F14Ah

                                        ; Referenced from 0F178h
F17F: 2A 2B 01                   0F17Fh:        LD      HL,(012Bh)
F182: D1                                POP     DE
F183: D1                                POP     DE
F184: E9                                JP      (HL)

                                        ; Referenced from 0F056h, 0F1B3h
                                        ; --- START PROC 0F185h ---
F185: 21 50 50                   0F185h:        LD      HL,5050h    ; address or value?
F188: 22 B2 00                          LD      (00B2h),HL
F18B: 2A 2B 01                          LD      HL,(012Bh)
F18E: CD B8 F1                          CALL    0F1B8h
F191: CD F5 E2                          CALL    0E2F5h
F194: 21 98 00                          LD      HL,0098h        ; address or value?
F197: CB 7E                             BIT     7,(HL)
F199: 28 12                             JR      Z,0F1ADh
F19B: CB BE                             RES     7,(HL)
F19D: 7E                                LD      A,(HL)
F19E: FE 01                             CP      01h
F1A0: CA 31 F0                          JP      Z,0F031h
F1A3: FE 0D                             CP      0Dh
F1A5: CA BF F0                          JP      Z,0F0BFh
F1A8: FE 1A                             CP      1Ah
F1AA: CA 59 F0                          JP      Z,0F059h

                                        ; Referenced from 0F199h
F1AD: CD 4D F1                   0F1ADh:        CALL    0F14Dh
F1B0: CD F5 E2                          CALL    0E2F5h
F1B3: 18 D0                             JR      0F185h

                                        ; Referenced from 0F16Ch
                                        ; --- START PROC 0F1B5h ---
F1B5: 2A 29 01                   0F1B5h:        LD      HL,(0129h)

                                        ; Referenced from 0F18Eh
                                        ; --- START PROC 0F1B8h ---
F1B8: CD C9 F1                   0F1B8h:        CALL    0F1C9h
F1BB: ED B0                             LDIR
F1BD: C9                                RET

                                        ; Referenced from 0F130h
                                        ; --- START PROC 0F1BEh ---
F1BE: 3A 25 01                   0F1BEh:        LD      A,(0125h)
F1C1: CB 77                             BIT     6,A
F1C3: CA F2 E5                          JP      Z,0E5F2h
F1C6: C3 04 EB                          JP      0EB04h

                                        ; Referenced from 0F110h, 0F1B8h
                                        ; --- START PROC 0F1C9h ---
F1C9: ED 5B 27 01                0F1C9h:        LD      DE,(0127h)

                                        ; Referenced from 0F155h, 0F0C4h
                                        ; --- START PROC 0F1CDh ---
F1CD: ED 4B 26 01                0F1CDh:        LD      BC,(0126h)
F1D1: 06 00                             LD      B,00h
F1D3: C9                                RET

F1D4: FF                         0F1D4h:        DB      0FFh
F1D5: FF                                DB      0FFh
F1D6: FF                                DB      0FFh
F1D7: FF                                DB      0FFh
F1D8: FF                                DB      0FFh


                                        ; Referenced from 0E020h, 0E2DAh, 0FF5Eh
                                        ; --- START PROC 0F1D9h ---
F1D9: CD 98 EC                   0F1D9h:        CALL    0EC98h
F1DC: C3 03 E0                          JP      0E003h

                                        ; Referenced from 0E01Dh
                                        ; --- START PROC 0F1DFh ---
F1DF: ED B0                      0F1DFh:        LDIR
F1E1: 21 F9 F2                          LD      HL,0F2F9h       ; address or value?
F1E4: CD 41 F0                          CALL    0F041h
F1E7: 3A 24 01                          LD      A,(0124h)
F1EA: CD 3D F2                          CALL    0F23Dh
F1ED: 21 D2 00                          LD      HL,00D2h        ; address or value?
F1F0: 36 44                             LD      (HL),44h        ; 'D'
F1F2: 21 D8 00                          LD      HL,00D8h        ; address or value?
F1F5: 36 C2                             LD      (HL),0C2h
F1F7: 3A 21 01                          LD      A,(0121h)
F1FA: 3C                                INC     A
F1FB: 21 DD 00                          LD      HL,00DDh        ; address or value?
F1FE: 36 00                             LD      (HL),00h
F200: 2B                                DEC     HL
F201: 77                                LD      (HL),A
F202: 11 D8 00                          LD      DE,00D8h        ; address or value?
F205: D5                                PUSH    DE
F206: CD A3 E6                          CALL    0E6A3h
F209: E1                                POP     HL
F20A: 11 D2 00                          LD      DE,00D2h        ; address or value?
F20D: CD AC E4                          CALL    0E4ACh
F210: 11 A0 AB                          LD      DE,0ABA0h       ; address or value?
F213: 01 00 03                          LD      BC,0300h        ; address or value?
F216: 21 D5 00                          LD      HL,00D5h        ; address or value?
F219: CD FD E5                          CALL    0E5FDh
F21C: 11 D8 00                          LD      DE,00D8h        ; address or value?
F21F: 21 31 01                          LD      HL,0131h        ; address or value?
F222: D5                                PUSH    DE
F223: CD A3 E6                          CALL    0E6A3h
F226: E1                                POP     HL
F227: 11 D2 00                          LD      DE,00D2h        ; address or value?
F22A: D5                                PUSH    DE
F22B: CD AC E4                          CALL    0E4ACh
F22E: E1                                POP     HL
F22F: 11 B5 AB                          LD      DE,0ABB5h       ; address or value?
F232: CD 04 EB                          CALL    0EB04h

                                        ; Referenced from 0F23Bh
                                        ; --- START PROC 0F235h ---
F235: 21 54 F3                   0F235h:        LD      HL,0F354h   ; address or value?

                                        ; Referenced from 0F25Eh, 0F29Bh
                                        ; --- START PROC 0F238h ---
F238: CD 41 F0                   0F238h:        CALL    0F041h
F23B: 18 F8                             JR      0F235h

                                        ; Referenced from 0F258h, 0F1EAh
                                        ; --- START PROC 0F23Dh ---
F23D: 11 8F AB                   0F23Dh:        LD      DE,0AB8Fh   ; address or value?
F240: 01 03 00                          LD      BC,0003h        ; address or value?
F243: 21 64 F4                          LD      HL,0F464h       ; address or value?
F246: CB 47                             BIT     0,A
F248: 20 03                             JR      NZ,0F24Dh
F24A: 21 67 F4                          LD      HL,0F467h       ; address or value?

                                        ; Referenced from 0F248h
F24D: ED B0                      0F24Dh:        LDIR
F24F: C9                                RET

                                        ; Entry Point
                                        ; --- START PROC 0F250h ---
F250: 3A 24 01                   0F250h:        LD      A,(0124h)
F253: EE 01                             XOR     01h
F255: 32 24 01                          LD      (0124h),A
F258: CD 3D F2                          CALL    0F23Dh
F25B: 21 74 F3                          LD      HL,0F374h       ; address or value?
F25E: 18 D8                             JR      0F238h

                                        ; Entry Point
                                        ; --- START PROC 0F260h ---
F260: 3A 21 01                   0F260h:        LD      A,(0121h)
F263: FE 2F                             CP      2Fh     ; '/'
F265: 28 0B                             JR      Z,0F272h
F267: FE 41                             CP      41h     ; 'A'
F269: 28 14                             JR      Z,0F27Fh
F26B: 3E 2F                             LD      A,2Fh   ; '/'
F26D: 21 34 38                          LD      HL,3834h        ; address or value?
F270: 18 05                             JR      0F277h

                                        ; Referenced from 0F265h
F272: 3E 41                      0F272h:        LD      A,41h   ; 'A'
F274: 21 36 36                          LD      HL,3636h        ; address or value?

                                        ; Referenced from 0F270h, 0F284h
F277: 22 A1 AB                   0F277h:        LD      (0ABA1h),HL
F27A: 21 7C F3                          LD      HL,0F37Ch       ; address or value?
F27D: 18 14                             JR      0F293h

                                        ; Referenced from 0F269h
F27F: 3E 47                      0F27Fh:        LD      A,47h   ; 'G'
F281: 21 37 32                          LD      HL,3237h        ; address or value?
F284: 18 F1                             JR      0F277h

                                        ; Entry Point
                                        ; --- START PROC 0F286h ---
F286: 21 79 F4                   0F286h:        LD      HL,0F479h   ; address or value?
F289: CD 41 F0                          CALL    0F041h
F28C: 21 84 F3                          LD      HL,0F384h       ; address or value?
F28F: 3A F4 00                          LD      A,(00F4h)
F292: 3D                                DEC     A

                                        ; Referenced from 0F27Dh
                                        ; --- START PROC 0F293h ---
F293: 32 21 01                   0F293h:        LD      (0121h),A
F296: D6 05                             SUB     05h
F298: 32 22 01                          LD      (0122h),A
F29B: 18 9B                             JR      0F238h

                                        ; Entry Point
                                        ; --- START PROC 0F29Dh ---
F29D: 3A F5 00                   0F29Dh:        LD      A,(00F5h)
F2A0: FE 00                             CP      00h
F2A2: 37                                SCF
F2A3: C0                                RET     NZ
F2A4: 3A F4 00                          LD      A,(00F4h)
F2A7: FE 00                             CP      00h
F2A9: 37                                SCF
F2AA: C8                                RET     Z
F2AB: 3F                                CCF
F2AC: C9                                RET

                                        ; Entry Point
                                        ; --- START PROC 0F2ADh ---
F2AD: CD 8A EC                   0F2ADh:        CALL    0EC8Ah
F2B0: 2A C5 00                          LD      HL,(00C5h)
F2B3: AF                                XOR     A
F2B4: BC                                CP      H
F2B5: 20 06                             JR      NZ,0F2BDh
F2B7: BD                                CP      L
F2B8: 20 03                             JR      NZ,0F2BDh
F2BA: C3 03 E0                          JP      0E003h

                                        ; Referenced from 0F2B5h, 0F2B8h
                                        ; --- START PROC 0F2BDh ---
F2BD: E9                         0F2BDh:        JP      (HL)

                                        ; Referenced from 0E000h
                                        ; --- START PROC 0F2BEh ---
F2BE: 21 00 00                   0F2BEh:        LD      HL,0000h    ; address or value?
F2C1: 11 55 AA                          LD      DE,0AA55h       ; address or value?

                                        ; Referenced from 0F2D1h
F2C4: 7A                         0F2C4h:        LD      A,D
F2C5: 77                                LD      (HL),A
F2C6: BE                                CP      (HL)
F2C7: 20 0A                             JR      NZ,0F2D3h
F2C9: 7B                                LD      A,E
F2CA: 77                                LD      (HL),A
F2CB: BE                                CP      (HL)
F2CC: 20 05                             JR      NZ,0F2D3h
F2CE: 36 FF                             LD      (HL),0FFh
F2D0: 23                                INC     HL
F2D1: 18 F1                             JR      0F2C4h

                                        ; Referenced from 0F2C7h, 0F2CCh
F2D3: 22 31 01                   0F2D3h:        LD      (0131h),HL
F2D6: 3E 01                             LD      A,01h
F2D8: 32 24 01                          LD      (0124h),A
F2DB: 3E 2F                             LD      A,2Fh   ; '/'
F2DD: 32 21 01                          LD      (0121h),A
F2E0: D6 05                             SUB     05h
F2E2: 32 22 01                          LD      (0122h),A
F2E5: 21 38 00                          LD      HL,0038h        ; address or value?
F2E8: 36 C3                             LD      (HL),0C3h
F2EA: 22 39 00                          LD      (0039h),HL
F2ED: 21 00 00                          LD      HL,0000h        ; address or value?
F2F0: 22 C5 00                          LD      (00C5h),HL
F2F3: C3 03 E0                          JP      0E003h

F2F6: 3D                         0F2F6h:        DB      3Dh     ; '='
F2F7: 3D                                DB      3Dh     ; '='
F2F8: 3E                                DB      3Eh     ; '>'
F2F9: 00                                DB      00h
F2FA: 1A                                DB      1Ah
F2FB: 12                                DB      12h
F2FC: A8                                DB      0A8h
F2FD: AD                                DB      0ADh
F2FE: F3                                DB      0F3h
F2FF: 00                                DB      00h
F300: 11                                DB      11h
F301: 8A                                DB      8Ah
F302: A8                                DB      0A8h
F303: C7                                DB      0C7h
F304: F3                                DB      0F3h
F305: 00                                DB      00h
F306: 10                                DB      10h
F307: CA                                DB      0CAh
F308: A8                                DB      0A8h
F309: FF                                DB      0FFh
F30A: F3                                DB      0F3h
F30B: 00                                DB      00h
F30C: 13                                DB      13h
F30D: 0A                                DB      0Ah
F30E: A9                                DB      0A9h
F30F: D8                                DB      0D8h
F310: F3                                DB      0F3h
F311: 00                                DB      00h
F312: 14                                DB      14h
F313: 4A                                DB      4Ah     ; 'J'
F314: A9                                DB      0A9h
F315: EB                                DB      0EBh
F316: F3                                DB      0F3h
F317: 00                                DB      00h
F318: 0E                                DB      0Eh
F319: 8A                                DB      8Ah
F31A: A9                                DB      0A9h
F31B: 22                                DB      22h     ; '"'
F31C: F4                                DB      0F4h
F31D: 00                                DB      00h
F31E: 11                                DB      11h
F31F: CA                                DB      0CAh
F320: A9                                DB      0A9h
F321: 30                                DB      30h     ; '0'
F322: F4                                DB      0F4h
F323: 00                                DB      00h
F324: 0F                                DB      0Fh
F325: 0A                                DB      0Ah
F326: AA                                DB      0AAh
F327: 6A                                DB      6Ah     ; 'j'
F328: F4                                DB      0F4h
F329: 00                                DB      00h
F32A: 0C                                DB      0Ch
F32B: 4A                                DB      4Ah     ; 'J'
F32C: AA                                DB      0AAh
F32D: 41                                DB      41h     ; 'A'
F32E: F4                                DB      0F4h
F32F: 00                                DB      00h
F330: 13                                DB      13h
F331: 8A                                DB      8Ah
F332: AA                                DB      0AAh
F333: 0F                                DB      0Fh
F334: F4                                DB      0F4h
F335: 00                                DB      00h
F336: 0C                                DB      0Ch
F337: CA                                DB      0CAh
F338: AA                                DB      0AAh
F339: 82                                DB      82h
F33A: F4                                DB      0F4h
F33B: 00                                DB      00h
F33C: 08                                DB      08h
F33D: 86                                DB      86h
F33E: AB                                DB      0ABh
F33F: 4D                                DB      4Dh     ; 'M'
F340: F4                                DB      0F4h
F341: 00                                DB      00h
F342: 07                                DB      07h
F343: 99                                DB      99h
F344: AB                                DB      0ABh
F345: 55                                DB      55h     ; 'U'
F346: F4                                DB      0F4h
F347: 00                                DB      00h
F348: 08                                DB      08h
F349: AC                                DB      0ACh
F34A: AB                                DB      0ABh
F34B: 5C                                DB      5Ch     ; '\'
F34C: F4                                DB      0F4h
F34D: FF                                DB      0FFh
F34E: FF                                DB      0FFh
F34F: FF                                DB      0FFh
F350: FF                                DB      0FFh
F351: FF                                DB      0FFh
F352: FF                                DB      0FFh
F353: FF                                DB      0FFh
F354: 0A                                DB      0Ah
F355: 03                                DB      03h
F356: 86                                DB      86h
F357: A8                                DB      0A8h
F358: F6                                DB      0F6h
F359: F2                                DB      0F2h
F35A: 32                                DB      32h     ; '2'
F35B: E0                                DB      0E0h
F35C: 0A                                DB      0Ah
F35D: 03                                DB      03h
F35E: C6                                DB      0C6h
F35F: A8                                DB      0A8h
F360: F6                                DB      0F6h
F361: F2                                DB      0F2h
F362: 23                                DB      23h     ; '#'
F363: E0                                DB      0E0h
F364: 0A                                DB      0Ah
F365: 03                                DB      03h
F366: 06                                DB      06h
F367: A9                                DB      0A9h
F368: F6                                DB      0F6h
F369: F2                                DB      0F2h
F36A: 9C                                DB      9Ch
F36B: E2                                DB      0E2h
F36C: 0A                                DB      0Ah
F36D: 03                                DB      03h
F36E: 46                                DB      46h     ; 'F'
F36F: A9                                DB      0A9h
F370: F6                                DB      0F6h
F371: F2                                DB      0F2h
F372: AD                                DB      0ADh
F373: F2                                DB      0F2h
F374: 0A                                DB      0Ah
F375: 03                                DB      03h
F376: 86                                DB      86h
F377: A9                                DB      0A9h
F378: F6                                DB      0F6h
F379: F2                                DB      0F2h
F37A: 50                                DB      50h     ; 'P'
F37B: F2                                DB      0F2h
F37C: 0A                                DB      0Ah
F37D: 03                                DB      03h
F37E: C6                                DB      0C6h
F37F: A9                                DB      0A9h
F380: F6                                DB      0F6h
F381: F2                                DB      0F2h
F382: 60                                DB      60h     ; '`'
F383: F2                                DB      0F2h
F384: 0A                                DB      0Ah
F385: 03                                DB      03h
F386: 06                                DB      06h
F387: AA                                DB      0AAh
F388: F6                                DB      0F6h
F389: F2                                DB      0F2h
F38A: 86                                DB      86h
F38B: F2                                DB      0F2h
F38C: 0A                                DB      0Ah
F38D: 03                                DB      03h
F38E: 46                                DB      46h     ; 'F'
F38F: AA                                DB      0AAh
F390: F6                                DB      0F6h
F391: F2                                DB      0F2h
F392: 00                                DB      00h
F393: E0                                DB      0E0h
F394: 0A                                DB      0Ah
F395: 03                                DB      03h
F396: 86                                DB      86h
F397: AA                                DB      0AAh
F398: F6                                DB      0F6h
F399: F2                                DB      0F2h
F39A: 00                                DB      00h
F39B: D0                                DB      0D0h
F39C: 0A                                DB      0Ah
F39D: 03                                DB      03h
F39E: C6                                DB      0C6h
F39F: AA                                DB      0AAh
F3A0: F6                                DB      0F6h
F3A1: F2                                DB      0F2h
F3A2: 74                                DB      74h     ; 't'
F3A3: D8                                DB      0D8h
F3A4: FF                                DB      0FFh
F3A5: FF                                DB      0FFh
F3A6: FF                                DB      0FFh
F3A7: FF                                DB      0FFh
F3A8: FF                                DB      0FFh
F3A9: FF                                DB      0FFh
F3AA: FF                                DB      0FFh
F3AB: FF                                DB      0FFh
F3AC: FF                                DB      0FFh
F3AD: 53 20 55 20 50 20 45 20           DB      "S U P E R    C H I L D / ZLETTURA PROGRAMMASCRITTURA PROGRAMMAESECUZIONE PROGRAMMAMONITOR-DEBUGGERTEXT EDITOR CON IQFPRINTER ON/O"
F3B5: 52 20 20 20 20 43 20 48
F3BD: 20 49 20 4C 20 44 20 2F
F3C5: 20 5A 4C 45 54 54 55 52
F3CD: 41 20 50 52 4F 47 52 41
F3D5: 4D 4D 41 53 43 52 49 54
F3DD: 54 55 52 41 20 50 52 4F
F3E5: 47 52 41 4D 4D 41 45 53
F3ED: 45 43 55 5A 49 4F 4E 45
F3F5: 20 50 52 4F 47 52 41 4D
F3FD: 4D 41 4D 4F 4E 49 54 4F
F405: 52 2D 44 45 42 55 47 47
F40D: 45 52 54 45 58 54 20 45
F415: 44 49 54 4F 52 20 43 4F
F41D: 4E 20 49 51 46 50 52 49
F425: 4E 54 45 52 20 4F 4E 2F
F42D: 4F
F42E: 46 46 44 49 4D 45 4E 53           DB      "FFDIMENSIONE MODULOSYSTEM RESETPRINTER:MODULO:MEMORIA:ON OFFMODULO SPECIALE"
F436: 49 4F 4E 45 20 4D 4F 44
F43E: 55 4C 4F 53 59 53 54 45
F446: 4D 20 52 45 53 45 54 50
F44E: 52 49 4E 54 45 52 3A 4D
F456: 4F 44 55 4C 4F 3A 4D 45
F45E: 4D 4F 52 49 41 3A 4F 4E
F466: 20 4F 46 46 4D 4F 44 55
F46E: 4C 4F 20 53 50 45 43 49
F476: 41 4C 45
F479: 17                                DB      17h
F47A: 03                                DB      03h
F47B: A1                                DB      0A1h
F47C: AB                                DB      0ABh
F47D: F4                                DB      0F4h
F47E: 00                                DB      00h
F47F: 9D                                DB      9Dh
F480: F2                                DB      0F2h
F481: FF                                DB      0FFh
F482: 44 55 4D 50 20 50 52 4F           DB      "DUMP PROGRAM"
F48A: 47 52 41 4D
F48E: FF                                DB      0FFh
F48F: FF                                DB      0FFh
F490: FF                                DB      0FFh
F491: 01                                DB      01h
F492: 00                                DB      00h
F493: 00                                DB      00h
F494: 00                                DB      00h
F495: 00                                DB      00h
F496: 00                                DB      00h
F497: 0A                                DB      0Ah
F498: 00                                DB      00h
F499: 00                                DB      00h
F49A: 00                                DB      00h
F49B: 00                                DB      00h
F49C: 00                                DB      00h
F49D: 64                                DB      64h     ; 'd'
F49E: 00                                DB      00h
F49F: 00                                DB      00h
F4A0: 00                                DB      00h
F4A1: 00                                DB      00h
F4A2: 00                                DB      00h
F4A3: E8                                DB      0E8h
F4A4: 03                                DB      03h
F4A5: 00                                DB      00h
F4A6: 00                                DB      00h
F4A7: 00                                DB      00h
F4A8: 00                                DB      00h
F4A9: 10                                DB      10h
F4AA: 27                                DB      27h     ; '''
F4AB: 00                                DB      00h
F4AC: 00                                DB      00h
F4AD: 00                                DB      00h
F4AE: 00                                DB      00h
F4AF: A0                                DB      0A0h
F4B0: 86                                DB      86h
F4B1: 01                                DB      01h
F4B2: 00                                DB      00h
F4B3: 00                                DB      00h
F4B4: 00                                DB      00h
F4B5: 40                                DB      40h     ; '@'
F4B6: 42                                DB      42h     ; 'B'
F4B7: 0F                                DB      0Fh
F4B8: 00                                DB      00h
F4B9: 00                                DB      00h
F4BA: 00                                DB      00h
F4BB: 80                                DB      80h
F4BC: 96                                DB      96h
F4BD: 98                                DB      98h
F4BE: 00                                DB      00h
F4BF: 00                                DB      00h
F4C0: 00                                DB      00h
F4C1: 00                                DB      00h
F4C2: E1                                DB      0E1h
F4C3: F5                                DB      0F5h
F4C4: 05                                DB      05h
F4C5: 00                                DB      00h
F4C6: 00                                DB      00h
F4C7: 00                                DB      00h
F4C8: CA                                DB      0CAh
F4C9: 9A                                DB      9Ah
F4CA: 3B                                DB      3Bh     ; ';'
F4CB: 00                                DB      00h
F4CC: 00                                DB      00h
F4CD: 00                                DB      00h
F4CE: E4                                DB      0E4h
F4CF: 0B                                DB      0Bh
F4D0: 54                                DB      54h     ; 'T'
F4D1: 02                                DB      02h
F4D2: 00                                DB      00h
F4D3: 00                                DB      00h
F4D4: E8                                DB      0E8h
F4D5: 76                                DB      76h     ; 'v'
F4D6: 48                                DB      48h     ; 'H'
F4D7: 17                                DB      17h
F4D8: 00                                DB      00h
F4D9: 00                                DB      00h
F4DA: 10                                DB      10h
F4DB: A5                                DB      0A5h
F4DC: D4                                DB      0D4h
F4DD: E8                                DB      0E8h
F4DE: 00                                DB      00h
F4DF: 00                                DB      00h
F4E0: A0                                DB      0A0h
F4E1: 72                                DB      72h     ; 'r'
F4E2: 4E                                DB      4Eh     ; 'N'
F4E3: 18                                DB      18h
F4E4: 09                                DB      09h
F4E5: 00                                DB      00h
F4E6: 40                                DB      40h     ; '@'
F4E7: 7A                                DB      7Ah     ; 'z'
F4E8: 10                                DB      10h
F4E9: F3                                DB      0F3h
F4EA: 5A                                DB      5Ah     ; 'Z'


                                        ; Referenced from 0FF5Bh, 0F0E1h
                                        ; --- START PROC 0F4EBh ---
F4EB: DD E5                      0F4EBh:        PUSH    IX
F4ED: D5                                PUSH    DE
F4EE: E5                                PUSH    HL
F4EF: 7E                                LD      A,(HL)
F4F0: 32 EF 00                          LD      (00EFh),A
F4F3: E5                                PUSH    HL
F4F4: DD E1                             POP     IX
F4F6: DD 23                             INC     IX
F4F8: 3E 10                             LD      A,10h
F4FA: 32 EE 00                          LD      (00EEh),A
F4FD: 62                                LD      H,D
F4FE: 6B                                LD      L,E
F4FF: AF                                XOR     A
F500: 2B                                DEC     HL
F501: 06 06                             LD      B,06h

                                        ; Referenced from 0F505h
F503: 23                         0F503h:        INC     HL
F504: 77                                LD      (HL),A
F505: 10 FC                             DJNZ    0F503h
F507: 21 8B F4                          LD      HL,0F48Bh       ; address or value?

                                        ; Referenced from 0F539h, 0F542h
F50A: 3A EE 00                   0F50Ah:        LD      A,(00EEh)
F50D: 3D                                DEC     A
F50E: 20 0F                             JR      NZ,0F51Fh
F510: DD E1                             POP     IX

                                        ; Referenced from 0F535h
F512: 3A EF 00                   0F512h:        LD      A,(00EFh)
F515: FE 2D                             CP      2Dh     ; '-'
F517: CC 44 F5                          CALL    Z,0F544h
F51A: E1                                POP     HL
F51B: D1                                POP     DE
F51C: DD E1                             POP     IX
F51E: C9                                RET

                                        ; Referenced from 0F50Eh
F51F: 32 EE 00                   0F51Fh:        LD      (00EEh),A
F522: 01 06 00                          LD      BC,0006h        ; address or value?
F525: 09                                ADD     HL,BC

                                        ; Referenced from 0F52Dh, 0F531h
F526: DD 2B                      0F526h:        DEC     IX
F528: DD 7E 00                          LD      A,(IX+00h)
F52B: FE 2D                             CP      2Dh     ; '-'
F52D: 28 F7                             JR      Z,0F526h
F52F: FE 2E                             CP      2Eh     ; '.'
F531: 28 F3                             JR      Z,0F526h
F533: FE 20                             CP      20h     ; ' '
F535: 28 DB                             JR      Z,0F512h
F537: E6 0F                             AND     0Fh
F539: 28 CF                             JR      Z,0F50Ah
F53B: 4F                                LD      C,A

                                        ; Referenced from 0F540h
F53C: CD 5C F5                   0F53Ch:        CALL    0F55Ch
F53F: 0D                                DEC     C
F540: 20 FA                             JR      NZ,0F53Ch
F542: 18 C6                             JR      0F50Ah

                                        ; Referenced from 0F700h, 0F70Bh, 0F651h, 0F65Ch, 0F690h, 0F792h, 0F7A3h, 0F59Eh, 0F517h
                                        ; --- START PROC 0F544h ---
F544: 06 06                      0F544h:        LD      B,06h
F546: D5                                PUSH    DE

                                        ; Referenced from 0F54Bh
F547: 1A                         0F547h:        LD      A,(DE)
F548: 2F                                CPL
F549: 12                                LD      (DE),A
F54A: 13                                INC     DE
F54B: 10 FA                             DJNZ    0F547h
F54D: D1                                POP     DE
F54E: D5                                PUSH    DE
F54F: 1A                                LD      A,(DE)
F550: 3C                                INC     A
F551: 12                                LD      (DE),A
F552: 06 05                             LD      B,05h

                                        ; Referenced from 0F558h
F554: 13                         0F554h:        INC     DE
F555: 1A                                LD      A,(DE)
F556: CE 00                             ADC     A,00h
F558: 10 FA                             DJNZ    0F554h
F55A: D1                                POP     DE
F55B: C9                                RET

                                        ; Referenced from 0F749h, 0FF55h, 0F671h, 0F74Eh, 0F5BBh, 0F53Ch
                                        ; --- START PROC 0F55Ch ---
F55C: D5                         0F55Ch:        PUSH    DE
F55D: E5                                PUSH    HL
F55E: 06 06                             LD      B,06h
F560: B7                                OR      A

                                        ; Referenced from 0F566h
F561: 1A                         0F561h:        LD      A,(DE)
F562: 8E                                ADC     A,(HL)
F563: 12                                LD      (DE),A
F564: 23                                INC     HL
F565: 13                                INC     DE
F566: 10 F9                             DJNZ    0F561h
F568: E1                                POP     HL
F569: D1                                POP     DE
F56A: C9                                RET

                                        ; Referenced from 0F73Eh, 0F7E2h, 0FF52h, 0F5ADh
                                        ; --- START PROC 0F56Bh ---
F56B: D5                         0F56Bh:        PUSH    DE
F56C: E5                                PUSH    HL
F56D: 06 06                             LD      B,06h
F56F: B7                                OR      A

                                        ; Referenced from 0F575h
F570: 1A                         0F570h:        LD      A,(DE)
F571: 9E                                SBC     A,(HL)
F572: 12                                LD      (DE),A
F573: 23                                INC     HL
F574: 13                                INC     DE
F575: 10 F9                             DJNZ    0F570h
F577: E1                                POP     HL
F578: D1                                POP     DE
F579: C9                                RET

                                        ; Referenced from 0FF58h, 0F0E8h
                                        ; --- START PROC 0F57Ah ---
F57A: DD E5                      0F57Ah:        PUSH    IX
F57C: AF                                XOR     A
F57D: 32 EE 00                          LD      (00EEh),A
F580: D5                                PUSH    DE
F581: DD E1                             POP     IX
F583: E5                                PUSH    HL
F584: D5                                PUSH    DE
F585: 11 D6 00                          LD      DE,00D6h        ; address or value?
F588: 01 06 00                          LD      BC,0006h        ; address or value?
F58B: ED B0                             LDIR
F58D: D1                                POP     DE
F58E: D5                                PUSH    DE
F58F: 21 DB 00                          LD      HL,00DBh        ; address or value?
F592: CB 7E                             BIT     7,(HL)
F594: 21 D6 00                          LD      HL,00D6h        ; address or value?
F597: EB                                EX      DE,HL
F598: 36 4E                             LD      (HL),4Eh        ; 'N'
F59A: 28 06                             JR      Z,0F5A2h
F59C: CB EE                             SET     5,(HL)
F59E: CD 44 F5                          CALL    0F544h
F5A1: AF                                XOR     A

                                        ; Referenced from 0F59Ah
F5A2: 06 0F                      0F5A2h:        LD      B,0Fh

                                        ; Referenced from 0F5A6h
F5A4: 23                         0F5A4h:        INC     HL
F5A5: 77                                LD      (HL),A
F5A6: 10 FC                             DJNZ    0F5A4h
F5A8: 21 E5 F4                          LD      HL,0F4E5h       ; address or value?

                                        ; Referenced from 0F5CDh
F5AB: DD 23                      0F5ABh:        INC     IX

                                        ; Referenced from 0F5B9h
F5AD: CD 6B F5                   0F5ADh:        CALL    0F56Bh
F5B0: 38 09                             JR      C,0F5BBh
F5B2: DD 7E 00                          LD      A,(IX+00h)
F5B5: 3C                                INC     A
F5B6: DD 77 00                          LD      (IX+00h),A
F5B9: 18 F2                             JR      0F5ADh

                                        ; Referenced from 0F5B0h
F5BB: CD 5C F5                   0F5BBh:        CALL    0F55Ch
F5BE: 01 06 00                          LD      BC,0006h        ; address or value?
F5C1: B7                                OR      A
F5C2: ED 42                             SBC     HL,BC
F5C4: 3A EE 00                          LD      A,(00EEh)
F5C7: 3C                                INC     A
F5C8: 32 EE 00                          LD      (00EEh),A
F5CB: FE 0F                             CP      0Fh
F5CD: 20 DC                             JR      NZ,0F5ABh
F5CF: 06 0F                             LD      B,0Fh
F5D1: DD E5                             PUSH    IX
F5D3: E1                                POP     HL

                                        ; Referenced from 0F5D9h
F5D4: 7E                         0F5D4h:        LD      A,(HL)
F5D5: F6 30                             OR      30h     ; '0'
F5D7: 77                                LD      (HL),A
F5D8: 2B                                DEC     HL
F5D9: 10 F9                             DJNZ    0F5D4h
F5DB: D1                                POP     DE
F5DC: E1                                POP     HL
F5DD: DD E1                             POP     IX
F5DF: C9                                RET

                                        ; Referenced from 0FF4Fh
                                        ; Entry Point
                                        ; --- START PROC 0F5E0h ---
F5E0: 22 D4 00                   0F5E0h:        LD      (00D4h),HL
F5E3: ED 53 D2 00                       LD      (00D2h),DE
F5E7: 11 DC 00                          LD      DE,00DCh        ; address or value?
F5EA: 01 06 00                          LD      BC,0006h        ; address or value?
F5ED: ED B0                             LDIR
F5EF: 2A D2 00                          LD      HL,(00D2h)
F5F2: 11 D6 00                          LD      DE,00D6h        ; address or value?
F5F5: 01 06 00                          LD      BC,0006h        ; address or value?
F5F8: ED B0                             LDIR
F5FA: AF                                XOR     A
F5FB: 32 EF 00                          LD      (00EFh),A
F5FE: 21 E2 00                          LD      HL,00E2h        ; address or value?
F601: CD AB F6                          CALL    0F6ABh
F604: 3E 30                             LD      A,30h   ; '0'
F606: 32 EE 00                          LD      (00EEh),A
F609: 21 E1 00                          LD      HL,00E1h        ; address or value?

                                        ; Referenced from 0F61Ah
F60C: 7E                         0F60Ch:        LD      A,(HL)
F60D: FE 00                             CP      00h
F60F: 20 29                             JR      NZ,0F63Ah
F611: 2B                                DEC     HL
F612: 3A EE 00                          LD      A,(00EEh)
F615: D6 08                             SUB     08h
F617: 32 EE 00                          LD      (00EEh),A
F61A: 20 F0                             JR      NZ,0F60Ch
F61C: 21 D6 00                          LD      HL,00D6h        ; address or value?
F61F: CD AB F6                          CALL    0F6ABh
F622: ED 5B D2 00                       LD      DE,(00D2h)
F626: 21 D6 00                          LD      HL,00D6h        ; address or value?
F629: 01 06 00                          LD      BC,0006h        ; address or value?
F62C: ED B0                             LDIR
F62E: C9                                RET

                                        ; Referenced from 0F643h
F62F: CB 7F                      0F62Fh:        BIT     7,A
F631: 28 16                             JR      Z,0F649h

                                        ; Referenced from 0F647h
F633: 3E 2D                      0F633h:        LD      A,2Dh   ; '-'
F635: 32 EF 00                          LD      (00EFh),A
F638: 18 0F                             JR      0F649h

                                        ; Referenced from 0F60Fh
F63A: 21 DB 00                   0F63Ah:        LD      HL,00DBh    ; address or value?
F63D: 11 E1 00                          LD      DE,00E1h        ; address or value?
F640: 1A                                LD      A,(DE)
F641: CB 7E                             BIT     7,(HL)
F643: 28 EA                             JR      Z,0F62Fh
F645: CB 7F                             BIT     7,A
F647: 28 EA                             JR      Z,0F633h

                                        ; Referenced from 0F631h, 0F638h
F649: 21 DB 00                   0F649h:        LD      HL,00DBh    ; address or value?
F64C: 11 D6 00                          LD      DE,00D6h        ; address or value?
F64F: CB 7E                             BIT     7,(HL)
F651: C4 44 F5                          CALL    NZ,0F544h
F654: 11 DC 00                          LD      DE,00DCh        ; address or value?
F657: 21 E1 00                          LD      HL,00E1h        ; address or value?
F65A: CB 7E                             BIT     7,(HL)
F65C: C4 44 F5                          CALL    NZ,0F544h

                                        ; Referenced from 0F686h
F65F: 06 06                      0F65Fh:        LD      B,06h
F661: 21 E1 00                          LD      HL,00E1h        ; address or value?

                                        ; Referenced from 0F667h
F664: CB 1E                      0F664h:        RR      (HL)
F666: 2B                                DEC     HL
F667: 10 FB                             DJNZ    0F664h
F669: 30 09                             JR      NC,0F674h
F66B: 21 D6 00                          LD      HL,00D6h        ; address or value?
F66E: 11 E2 00                          LD      DE,00E2h        ; address or value?
F671: CD 5C F5                          CALL    0F55Ch

                                        ; Referenced from 0F669h
F674: 21 D6 00                   0F674h:        LD      HL,00D6h    ; address or value?
F677: 06 06                             LD      B,06h
F679: B7                                OR      A

                                        ; Referenced from 0F67Dh
F67A: CB 16                      0F67Ah:        RL      (HL)
F67C: 23                                INC     HL
F67D: 10 FB                             DJNZ    0F67Ah
F67F: 3A EE 00                          LD      A,(00EEh)
F682: 3D                                DEC     A
F683: 32 EE 00                          LD      (00EEh),A
F686: 20 D7                             JR      NZ,0F65Fh
F688: 3A EF 00                          LD      A,(00EFh)
F68B: FE 2D                             CP      2Dh     ; '-'
F68D: 21 E2 00                          LD      HL,00E2h        ; address or value?
F690: CC 44 F5                          CALL    Z,0F544h
F693: 21 E7 00                          LD      HL,00E7h        ; address or value?
F696: CD 0B F8                          CALL    0F80Bh
F699: 21 E2 00                          LD      HL,00E2h        ; address or value?
F69C: ED 5B D2 00                       LD      DE,(00D2h)
F6A0: D5                                PUSH    DE
F6A1: 01 06 00                          LD      BC,0006h        ; address or value?
F6A4: ED B0                             LDIR
F6A6: D1                                POP     DE
F6A7: 2A D4 00                          LD      HL,(00D4h)
F6AA: C9                                RET

                                        ; Referenced from 0F601h, 0F61Fh
                                        ; --- START PROC 0F6ABh ---
F6AB: 36 00                      0F6ABh:        LD      (HL),00h
F6AD: 54                                LD      D,H
F6AE: 5D                                LD      E,L
F6AF: 13                                INC     DE
F6B0: 01 05 00                          LD      BC,0005h        ; address or value?
F6B3: ED B0                             LDIR
F6B5: C9                                RET

                                        ; Referenced from 0FF4Ch
                                        ; Entry Point
                                        ; --- START PROC 0F6B6h ---
F6B6: ED 53 D2 00                0F6B6h:        LD      (00D2h),DE
F6BA: 22 D4 00                          LD      (00D4h),HL
F6BD: AF                                XOR     A
F6BE: 32 EF 00                          LD      (00EFh),A
F6C1: 21 DC 00                          LD      HL,00DCh        ; address or value?
F6C4: 77                                LD      (HL),A
F6C5: 54                                LD      D,H
F6C6: 5D                                LD      E,L
F6C7: 13                                INC     DE
F6C8: 01 17 00                          LD      BC,0017h        ; address or value?
F6CB: ED B0                             LDIR
F6CD: 2A D2 00                          LD      HL,(00D2h)
F6D0: 01 06 00                          LD      BC,0006h        ; address or value?
F6D3: 11 D6 00                          LD      DE,00D6h        ; address or value?
F6D6: ED B0                             LDIR
F6D8: EB                                EX      DE,HL
F6D9: CB C6                             SET     0,(HL)
F6DB: 2A D4 00                          LD      HL,(00D4h)
F6DE: 01 06 00                          LD      BC,0006h        ; address or value?
F6E1: 11 E2 00                          LD      DE,00E2h        ; address or value?
F6E4: ED B0                             LDIR
F6E6: 21 DB 00                          LD      HL,00DBh        ; address or value?
F6E9: 7E                                LD      A,(HL)
F6EA: 32 F0 00                          LD      (00F0h),A
F6ED: CB 7E                             BIT     7,(HL)
F6EF: 21 E7 00                          LD      HL,00E7h        ; address or value?
F6F2: 28 75                             JR      Z,0F769h
F6F4: CB 7E                             BIT     7,(HL)
F6F6: 28 75                             JR      Z,0F76Dh

                                        ; Referenced from 0F76Bh, 0F772h
F6F8: 21 DB 00                   0F6F8h:        LD      HL,00DBh    ; address or value?
F6FB: 11 D6 00                          LD      DE,00D6h        ; address or value?
F6FE: CB 7E                             BIT     7,(HL)
F700: C4 44 F5                          CALL    NZ,0F544h
F703: 21 E7 00                          LD      HL,00E7h        ; address or value?
F706: 11 E2 00                          LD      DE,00E2h        ; address or value?
F709: CB 7E                             BIT     7,(HL)
F70B: C4 44 F5                          CALL    NZ,0F544h
F70E: 21 DB 00                          LD      HL,00DBh        ; address or value?
F711: CD 74 F7                          CALL    0F774h
F714: 28 74                             JR      Z,0F78Ah
F716: 51                                LD      D,C
F717: 21 E7 00                          LD      HL,00E7h        ; address or value?
F71A: CD 74 F7                          CALL    0F774h
F71D: 28 6B                             JR      Z,0F78Ah
F71F: 79                                LD      A,C
F720: 92                                SUB     D
F721: FA 8A F7                          JP      M,0F78Ah
F724: 32 EE 00                          LD      (00EEh),A
F727: 28 0F                             JR      Z,0F738h
F729: 4F                                LD      C,A

                                        ; Referenced from 0F736h
F72A: B7                         0F72Ah:        OR      A
F72B: 06 0C                             LD      B,0Ch
F72D: 21 DC 00                          LD      HL,00DCh        ; address or value?

                                        ; Referenced from 0F733h
F730: CB 16                      0F730h:        RL      (HL)
F732: 23                                INC     HL
F733: 10 FB                             DJNZ    0F730h
F735: 0D                                DEC     C
F736: 20 F2                             JR      NZ,0F72Ah

                                        ; Referenced from 0F727h, 0F74Ch, 0F767h
F738: 21 E2 00                   0F738h:        LD      HL,00E2h    ; address or value?
F73B: 11 D6 00                          LD      DE,00D6h        ; address or value?
F73E: CD 6B F5                          CALL    0F56Bh
F741: 38 0B                             JR      C,0F74Eh
F743: 21 DC 00                          LD      HL,00DCh        ; address or value?
F746: 11 E8 00                          LD      DE,00E8h        ; address or value?
F749: CD 5C F5                          CALL    0F55Ch
F74C: 18 EA                             JR      0F738h

                                        ; Referenced from 0F741h
F74E: CD 5C F5                   0F74Eh:        CALL    0F55Ch
F751: 3A EE 00                          LD      A,(00EEh)
F754: FE 00                             CP      00h
F756: 28 32                             JR      Z,0F78Ah
F758: 3D                                DEC     A
F759: 32 EE 00                          LD      (00EEh),A
F75C: B7                                OR      A
F75D: 06 0C                             LD      B,0Ch
F75F: 21 E7 00                          LD      HL,00E7h        ; address or value?

                                        ; Referenced from 0F765h
F762: CB 1E                      0F762h:        RR      (HL)
F764: 2B                                DEC     HL
F765: 10 FB                             DJNZ    0F762h
F767: 18 CF                             JR      0F738h

                                        ; Referenced from 0F6F2h
F769: CB 7E                      0F769h:        BIT     7,(HL)
F76B: 28 8B                             JR      Z,0F6F8h

                                        ; Referenced from 0F6F6h
F76D: 3E 2D                      0F76Dh:        LD      A,2Dh   ; '-'
F76F: 32 EF 00                          LD      (00EFh),A
F772: 18 84                             JR      0F6F8h

                                        ; Referenced from 0F711h, 0F71Ah
                                        ; --- START PROC 0F774h ---
F774: 0E 00                      0F774h:        LD      C,00h

                                        ; Referenced from 0F783h
F776: 7E                         0F776h:        LD      A,(HL)
F777: FE 00                             CP      00h
F779: 20 0A                             JR      NZ,0F785h
F77B: 2B                                DEC     HL
F77C: 79                                LD      A,C
F77D: C6 08                             ADD     A,08h
F77F: 4F                                LD      C,A
F780: FE 30                             CP      30h     ; '0'
F782: C8                                RET     Z
F783: 18 F1                             JR      0F776h

                                        ; Referenced from 0F779h, 0F788h
F785: 17                         0F785h:        RLA
F786: D8                                RET     C
F787: 0C                                INC     C
F788: 18 FB                             JR      0F785h

                                        ; Referenced from 0F714h, 0F71Dh, 0F721h, 0F756h
                                        ; --- START PROC 0F78Ah ---
F78A: 11 D6 00                   0F78Ah:        LD      DE,00D6h    ; address or value?
F78D: 21 F0 00                          LD      HL,00F0h        ; address or value?
F790: CB 7E                             BIT     7,(HL)
F792: C4 44 F5                          CALL    NZ,0F544h
F795: 21 DB 00                          LD      HL,00DBh        ; address or value?
F798: CD 0B F8                          CALL    0F80Bh
F79B: 11 E8 00                          LD      DE,00E8h        ; address or value?
F79E: 3A EF 00                          LD      A,(00EFh)
F7A1: FE 2D                             CP      2Dh     ; '-'
F7A3: CC 44 F5                          CALL    Z,0F544h
F7A6: 21 ED 00                          LD      HL,00EDh        ; address or value?
F7A9: CD 0B F8                          CALL    0F80Bh
F7AC: 21 E8 00                          LD      HL,00E8h        ; address or value?
F7AF: ED 5B D2 00                       LD      DE,(00D2h)
F7B3: 01 06 00                          LD      BC,0006h        ; address or value?
F7B6: ED B0                             LDIR
F7B8: ED 5B D4 00                       LD      DE,(00D4h)
F7BC: 21 D6 00                          LD      HL,00D6h        ; address or value?
F7BF: 01 06 00                          LD      BC,0006h        ; address or value?
F7C2: ED B0                             LDIR
F7C4: 2A D4 00                          LD      HL,(00D4h)
F7C7: ED 5B D2 00                       LD      DE,(00D2h)
F7CB: C9                                RET

                                        ; Referenced from 0FF49h
                                        ; Entry Point
                                        ; --- START PROC 0F7CCh ---
F7CC: 22 D4 00                   0F7CCh:        LD      (00D4h),HL
F7CF: ED 53 D2 00                       LD      (00D2h),DE
F7D3: EB                                EX      DE,HL
F7D4: 11 D6 00                          LD      DE,00D6h        ; address or value?
F7D7: 01 06 00                          LD      BC,0006h        ; address or value?
F7DA: ED B0                             LDIR
F7DC: 11 D6 00                          LD      DE,00D6h        ; address or value?
F7DF: 2A D4 00                          LD      HL,(00D4h)
F7E2: CD 6B F5                          CALL    0F56Bh
F7E5: 3A DB 00                          LD      A,(00DBh)
F7E8: CB 7F                             BIT     7,A
F7EA: 20 15                             JR      NZ,0F801h
F7EC: 21 D6 00                          LD      HL,00D6h        ; address or value?
F7EF: AF                                XOR     A
F7F0: 06 06                             LD      B,06h

                                        ; Referenced from 0F7F6h
F7F2: BE                         0F7F2h:        CP      (HL)
F7F3: 20 08                             JR      NZ,0F7FDh
F7F5: 23                                INC     HL
F7F6: 10 FA                             DJNZ    0F7F2h
F7F8: 3E 02                             LD      A,02h
F7FA: 3D                                DEC     A
F7FB: 18 05                             JR      0F802h

                                        ; Referenced from 0F7F3h
F7FD: 3E 02                      0F7FDh:        LD      A,02h
F7FF: 18 01                             JR      0F802h

                                        ; Referenced from 0F7EAh
F801: AF                         0F801h:        XOR     A

                                        ; Referenced from 0F7FBh, 0F7FFh
F802: 3D                         0F802h:        DEC     A
F803: 2A D4 00                          LD      HL,(00D4h)
F806: ED 5B D2 00                       LD      DE,(00D2h)
F80A: C9                                RET

                                        ; Referenced from 0F696h, 0F798h, 0F7A9h
                                        ; --- START PROC 0F80Bh ---
F80B: 3E FF                      0F80Bh:        LD      A,0FFh
F80D: 06 05                             LD      B,05h

                                        ; Referenced from 0F812h
F80F: BE                         0F80Fh:        CP      (HL)
F810: C0                                RET     NZ
F811: 2B                                DEC     HL
F812: 10 FB                             DJNZ    0F80Fh
F814: 3C                                INC     A
F815: BE                                CP      (HL)
F816: C0                                RET     NZ
F817: 54                                LD      D,H
F818: 5D                                LD      E,L
F819: 13                                INC     DE
F81A: 77                                LD      (HL),A
F81B: 01 05 00                          LD      BC,0005h        ; address or value?
F81E: ED B0                             LDIR
F820: C9                                RET

F821: FF                         0F821h:        DB      0FFh
F822: FF                                DB      0FFh
F823: FF                                DB      0FFh
F824: FF                                DB      0FFh
F825: FF                                DB      0FFh
F826: FF                                DB      0FFh
F827: FF                                DB      0FFh
F828: FF                                DB      0FFh
F829: FF                                DB      0FFh
F82A: FF                                DB      0FFh
F82B: FF                                DB      0FFh
F82C: FF                                DB      0FFh
F82D: FF                                DB      0FFh
F82E: FF                                DB      0FFh
F82F: FF                                DB      0FFh
F830: FF                                DB      0FFh
F831: FF                                DB      0FFh
F832: FF                                DB      0FFh
F833: FF                                DB      0FFh
F834: FF                                DB      0FFh
F835: FF                                DB      0FFh
F836: FF                                DB      0FFh
F837: FF                                DB      0FFh
F838: FF                                DB      0FFh
F839: FF                                DB      0FFh
F83A: FF                                DB      0FFh
F83B: FF                                DB      0FFh
F83C: FF                                DB      0FFh
F83D: FF                                DB      0FFh
F83E: FF                                DB      0FFh
F83F: FF                                DB      0FFh
F840: FF                                DB      0FFh
F841: FF                                DB      0FFh
F842: FF                                DB      0FFh
F843: FF                                DB      0FFh
F844: FF                                DB      0FFh
F845: FF                                DB      0FFh
F846: FF                                DB      0FFh
F847: FF                                DB      0FFh
F848: FF                                DB      0FFh
F849: FF                                DB      0FFh
F84A: FF                                DB      0FFh
F84B: FF                                DB      0FFh
F84C: FF                                DB      0FFh
F84D: FF                                DB      0FFh
F84E: FF                                DB      0FFh
F84F: FF                                DB      0FFh
F850: FF                                DB      0FFh
F851: FF                                DB      0FFh
F852: FF                                DB      0FFh
F853: FF                                DB      0FFh
F854: FF                                DB      0FFh
F855: FF                                DB      0FFh
F856: FF                                DB      0FFh
F857: FF                                DB      0FFh
F858: FF                                DB      0FFh
F859: FF                                DB      0FFh
F85A: FF                                DB      0FFh
F85B: FF                                DB      0FFh
F85C: FF                                DB      0FFh
F85D: FF                                DB      0FFh
F85E: FF                                DB      0FFh
F85F: FF                                DB      0FFh
F860: FF                                DB      0FFh
F861: FF                                DB      0FFh
F862: FF                                DB      0FFh
F863: FF                                DB      0FFh
F864: FF                                DB      0FFh
F865: FF                                DB      0FFh
F866: FF                                DB      0FFh
F867: FF                                DB      0FFh
F868: FF                                DB      0FFh
F869: FF                                DB      0FFh
F86A: FF                                DB      0FFh
F86B: FF                                DB      0FFh
F86C: FF                                DB      0FFh
F86D: FF                                DB      0FFh
F86E: FF                                DB      0FFh
F86F: FF                                DB      0FFh
F870: FF                                DB      0FFh
F871: FF                                DB      0FFh
F872: FF                                DB      0FFh
F873: FF                                DB      0FFh
F874: FF                                DB      0FFh
F875: FF                                DB      0FFh
F876: FF                                DB      0FFh
F877: FF                                DB      0FFh
F878: FF                                DB      0FFh
F879: FF                                DB      0FFh
F87A: FF                                DB      0FFh
F87B: FF                                DB      0FFh
F87C: FF                                DB      0FFh
F87D: FF                                DB      0FFh
F87E: FF                                DB      0FFh
F87F: FF                                DB      0FFh
F880: FF                                DB      0FFh
F881: FF                                DB      0FFh
F882: FF                                DB      0FFh
F883: FF                                DB      0FFh
F884: FF                                DB      0FFh
F885: FF                                DB      0FFh
F886: FF                                DB      0FFh
F887: FF                                DB      0FFh
F888: FF                                DB      0FFh
F889: FF                                DB      0FFh
F88A: FF                                DB      0FFh
F88B: FF                                DB      0FFh
F88C: FF                                DB      0FFh
F88D: FF                                DB      0FFh
F88E: FF                                DB      0FFh
F88F: FF                                DB      0FFh
F890: FF                                DB      0FFh
F891: FF                                DB      0FFh
F892: FF                                DB      0FFh
F893: FF                                DB      0FFh
F894: FF                                DB      0FFh
F895: FF                                DB      0FFh
F896: FF                                DB      0FFh
F897: FF                                DB      0FFh
F898: FF                                DB      0FFh
F899: FF                                DB      0FFh
F89A: FF                                DB      0FFh
F89B: FF                                DB      0FFh
F89C: FF                                DB      0FFh
F89D: FF                                DB      0FFh
F89E: FF                                DB      0FFh
F89F: FF                                DB      0FFh
F8A0: FF                                DB      0FFh
F8A1: FF                                DB      0FFh
F8A2: FF                                DB      0FFh
F8A3: FF                                DB      0FFh
F8A4: FF                                DB      0FFh
F8A5: FF                                DB      0FFh
F8A6: FF                                DB      0FFh
F8A7: FF                                DB      0FFh
F8A8: FF                                DB      0FFh
F8A9: FF                                DB      0FFh
F8AA: FF                                DB      0FFh
F8AB: FF                                DB      0FFh
F8AC: FF                                DB      0FFh
F8AD: FF                                DB      0FFh
F8AE: FF                                DB      0FFh
F8AF: FF                                DB      0FFh
F8B0: FF                                DB      0FFh
F8B1: FF                                DB      0FFh
F8B2: FF                                DB      0FFh
F8B3: FF                                DB      0FFh
F8B4: FF                                DB      0FFh
F8B5: FF                                DB      0FFh
F8B6: FF                                DB      0FFh
F8B7: FF                                DB      0FFh
F8B8: FF                                DB      0FFh
F8B9: FF                                DB      0FFh
F8BA: FF                                DB      0FFh
F8BB: FF                                DB      0FFh
F8BC: FF                                DB      0FFh
F8BD: FF                                DB      0FFh
F8BE: FF                                DB      0FFh
F8BF: FF                                DB      0FFh
F8C0: FF                                DB      0FFh
F8C1: FF                                DB      0FFh
F8C2: FF                                DB      0FFh
F8C3: FF                                DB      0FFh
F8C4: FF                                DB      0FFh
F8C5: FF                                DB      0FFh
F8C6: FF                                DB      0FFh
F8C7: FF                                DB      0FFh
F8C8: FF                                DB      0FFh
F8C9: FF                                DB      0FFh
F8CA: FF                                DB      0FFh
F8CB: FF                                DB      0FFh
F8CC: FF                                DB      0FFh
F8CD: FF                                DB      0FFh
F8CE: FF                                DB      0FFh
F8CF: FF                                DB      0FFh
F8D0: FF                                DB      0FFh
F8D1: FF                                DB      0FFh
F8D2: FF                                DB      0FFh
F8D3: FF                                DB      0FFh
F8D4: FF                                DB      0FFh
F8D5: FF                                DB      0FFh
F8D6: FF                                DB      0FFh
F8D7: FF                                DB      0FFh
F8D8: FF                                DB      0FFh
F8D9: FF                                DB      0FFh
F8DA: FF                                DB      0FFh
F8DB: FF                                DB      0FFh
F8DC: FF                                DB      0FFh
F8DD: FF                                DB      0FFh
F8DE: FF                                DB      0FFh
F8DF: FF                                DB      0FFh
F8E0: FF                                DB      0FFh
F8E1: FF                                DB      0FFh
F8E2: FF                                DB      0FFh
F8E3: FF                                DB      0FFh
F8E4: FF                                DB      0FFh
F8E5: FF                                DB      0FFh
F8E6: FF                                DB      0FFh
F8E7: FF                                DB      0FFh
F8E8: FF                                DB      0FFh
F8E9: FF                                DB      0FFh
F8EA: FF                                DB      0FFh
F8EB: FF                                DB      0FFh
F8EC: FF                                DB      0FFh
F8ED: FF                                DB      0FFh
F8EE: FF                                DB      0FFh
F8EF: FF                                DB      0FFh
F8F0: FF                                DB      0FFh
F8F1: FF                                DB      0FFh
F8F2: FF                                DB      0FFh
F8F3: FF                                DB      0FFh
F8F4: FF                                DB      0FFh
F8F5: FF                                DB      0FFh
F8F6: FF                                DB      0FFh
F8F7: FF                                DB      0FFh
F8F8: FF                                DB      0FFh
F8F9: FF                                DB      0FFh
F8FA: FF                                DB      0FFh
F8FB: FF                                DB      0FFh
F8FC: FF                                DB      0FFh
F8FD: FF                                DB      0FFh
F8FE: FF                                DB      0FFh
F8FF: FF                                DB      0FFh
F900: FF                                DB      0FFh
F901: FF                                DB      0FFh
F902: FF                                DB      0FFh
F903: FF                                DB      0FFh
F904: FF                                DB      0FFh
F905: FF                                DB      0FFh
F906: FF                                DB      0FFh
F907: FF                                DB      0FFh
F908: FF                                DB      0FFh
F909: FF                                DB      0FFh
F90A: FF                                DB      0FFh
F90B: FF                                DB      0FFh
F90C: FF                                DB      0FFh
F90D: FF                                DB      0FFh
F90E: FF                                DB      0FFh
F90F: FF                                DB      0FFh
F910: FF                                DB      0FFh
F911: FF                                DB      0FFh
F912: FF                                DB      0FFh
F913: FF                                DB      0FFh
F914: FF                                DB      0FFh
F915: FF                                DB      0FFh
F916: FF                                DB      0FFh
F917: FF                                DB      0FFh
F918: FF                                DB      0FFh
F919: FF                                DB      0FFh
F91A: FF                                DB      0FFh
F91B: FF                                DB      0FFh
F91C: FF                                DB      0FFh
F91D: FF                                DB      0FFh
F91E: FF                                DB      0FFh
F91F: FF                                DB      0FFh
F920: FF                                DB      0FFh
F921: FF                                DB      0FFh
F922: FF                                DB      0FFh
F923: FF                                DB      0FFh
F924: FF                                DB      0FFh
F925: FF                                DB      0FFh
F926: FF                                DB      0FFh
F927: FF                                DB      0FFh
F928: FF                                DB      0FFh
F929: FF                                DB      0FFh
F92A: FF                                DB      0FFh
F92B: FF                                DB      0FFh
F92C: FF                                DB      0FFh
F92D: FF                                DB      0FFh
F92E: FF                                DB      0FFh
F92F: FF                                DB      0FFh
F930: FF                                DB      0FFh
F931: FF                                DB      0FFh
F932: FF                                DB      0FFh
F933: FF                                DB      0FFh
F934: FF                                DB      0FFh
F935: FF                                DB      0FFh
F936: FF                                DB      0FFh
F937: FF                                DB      0FFh
F938: FF                                DB      0FFh
F939: FF                                DB      0FFh
F93A: FF                                DB      0FFh
F93B: FF                                DB      0FFh
F93C: FF                                DB      0FFh
F93D: FF                                DB      0FFh
F93E: FF                                DB      0FFh
F93F: FF                                DB      0FFh
F940: FF                                DB      0FFh
F941: FF                                DB      0FFh
F942: FF                                DB      0FFh
F943: FF                                DB      0FFh
F944: FF                                DB      0FFh
F945: FF                                DB      0FFh
F946: FF                                DB      0FFh
F947: FF                                DB      0FFh
F948: FF                                DB      0FFh
F949: FF                                DB      0FFh
F94A: FF                                DB      0FFh
F94B: FF                                DB      0FFh
F94C: FF                                DB      0FFh
F94D: FF                                DB      0FFh
F94E: FF                                DB      0FFh
F94F: FF                                DB      0FFh
F950: FF                                DB      0FFh
F951: FF                                DB      0FFh
F952: FF                                DB      0FFh
F953: FF                                DB      0FFh
F954: FF                                DB      0FFh
F955: FF                                DB      0FFh
F956: FF                                DB      0FFh
F957: FF                                DB      0FFh
F958: FF                                DB      0FFh
F959: FF                                DB      0FFh
F95A: FF                                DB      0FFh
F95B: FF                                DB      0FFh
F95C: FF                                DB      0FFh
F95D: FF                                DB      0FFh
F95E: FF                                DB      0FFh
F95F: FF                                DB      0FFh
F960: FF                                DB      0FFh
F961: FF                                DB      0FFh
F962: FF                                DB      0FFh
F963: FF                                DB      0FFh
F964: FF                                DB      0FFh
F965: FF                                DB      0FFh
F966: FF                                DB      0FFh
F967: FF                                DB      0FFh
F968: FF                                DB      0FFh
F969: FF                                DB      0FFh
F96A: FF                                DB      0FFh
F96B: FF                                DB      0FFh
F96C: FF                                DB      0FFh
F96D: FF                                DB      0FFh
F96E: FF                                DB      0FFh
F96F: FF                                DB      0FFh
F970: FF                                DB      0FFh
F971: FF                                DB      0FFh
F972: FF                                DB      0FFh
F973: FF                                DB      0FFh
F974: FF                                DB      0FFh
F975: FF                                DB      0FFh
F976: FF                                DB      0FFh
F977: FF                                DB      0FFh
F978: FF                                DB      0FFh
F979: FF                                DB      0FFh
F97A: FF                                DB      0FFh
F97B: FF                                DB      0FFh
F97C: FF                                DB      0FFh
F97D: FF                                DB      0FFh
F97E: FF                                DB      0FFh
F97F: FF                                DB      0FFh
F980: FF                                DB      0FFh
F981: FF                                DB      0FFh
F982: FF                                DB      0FFh
F983: FF                                DB      0FFh
F984: FF                                DB      0FFh
F985: FF                                DB      0FFh
F986: FF                                DB      0FFh
F987: FF                                DB      0FFh
F988: FF                                DB      0FFh
F989: FF                                DB      0FFh
F98A: FF                                DB      0FFh
F98B: FF                                DB      0FFh
F98C: FF                                DB      0FFh
F98D: FF                                DB      0FFh
F98E: FF                                DB      0FFh
F98F: FF                                DB      0FFh
F990: FF                                DB      0FFh
F991: FF                                DB      0FFh
F992: FF                                DB      0FFh
F993: FF                                DB      0FFh
F994: FF                                DB      0FFh
F995: FF                                DB      0FFh
F996: FF                                DB      0FFh
F997: FF                                DB      0FFh
F998: FF                                DB      0FFh
F999: FF                                DB      0FFh
F99A: FF                                DB      0FFh
F99B: FF                                DB      0FFh
F99C: FF                                DB      0FFh
F99D: FF                                DB      0FFh
F99E: FF                                DB      0FFh
F99F: FF                                DB      0FFh
F9A0: FF                                DB      0FFh
F9A1: FF                                DB      0FFh
F9A2: FF                                DB      0FFh
F9A3: FF                                DB      0FFh
F9A4: FF                                DB      0FFh
F9A5: FF                                DB      0FFh
F9A6: FF                                DB      0FFh
F9A7: FF                                DB      0FFh
F9A8: FF                                DB      0FFh
F9A9: FF                                DB      0FFh
F9AA: FF                                DB      0FFh
F9AB: FF                                DB      0FFh
F9AC: FF                                DB      0FFh
F9AD: FF                                DB      0FFh
F9AE: FF                                DB      0FFh
F9AF: FF                                DB      0FFh
F9B0: FF                                DB      0FFh
F9B1: FF                                DB      0FFh
F9B2: FF                                DB      0FFh
F9B3: FF                                DB      0FFh
F9B4: FF                                DB      0FFh
F9B5: FF                                DB      0FFh
F9B6: FF                                DB      0FFh
F9B7: FF                                DB      0FFh
F9B8: FF                                DB      0FFh
F9B9: FF                                DB      0FFh
F9BA: FF                                DB      0FFh
F9BB: FF                                DB      0FFh
F9BC: FF                                DB      0FFh
F9BD: FF                                DB      0FFh
F9BE: FF                                DB      0FFh
F9BF: FF                                DB      0FFh
F9C0: FF                                DB      0FFh
F9C1: FF                                DB      0FFh
F9C2: FF                                DB      0FFh
F9C3: FF                                DB      0FFh
F9C4: FF                                DB      0FFh
F9C5: FF                                DB      0FFh
F9C6: FF                                DB      0FFh
F9C7: FF                                DB      0FFh
F9C8: FF                                DB      0FFh
F9C9: FF                                DB      0FFh
F9CA: FF                                DB      0FFh
F9CB: FF                                DB      0FFh
F9CC: FF                                DB      0FFh
F9CD: FF                                DB      0FFh
F9CE: FF                                DB      0FFh
F9CF: FF                                DB      0FFh
F9D0: FF                                DB      0FFh
F9D1: FF                                DB      0FFh
F9D2: FF                                DB      0FFh
F9D3: FF                                DB      0FFh
F9D4: FF                                DB      0FFh
F9D5: FF                                DB      0FFh
F9D6: FF                                DB      0FFh
F9D7: FF                                DB      0FFh
F9D8: FF                                DB      0FFh
F9D9: FF                                DB      0FFh
F9DA: FF                                DB      0FFh
F9DB: FF                                DB      0FFh
F9DC: FF                                DB      0FFh
F9DD: FF                                DB      0FFh
F9DE: FF                                DB      0FFh
F9DF: FF                                DB      0FFh
F9E0: FF                                DB      0FFh
F9E1: FF                                DB      0FFh
F9E2: FF                                DB      0FFh
F9E3: FF                                DB      0FFh
F9E4: FF                                DB      0FFh
F9E5: FF                                DB      0FFh
F9E6: FF                                DB      0FFh
F9E7: FF                                DB      0FFh
F9E8: FF                                DB      0FFh
F9E9: FF                                DB      0FFh
F9EA: FF                                DB      0FFh
F9EB: FF                                DB      0FFh
F9EC: FF                                DB      0FFh
F9ED: FF                                DB      0FFh
F9EE: FF                                DB      0FFh
F9EF: FF                                DB      0FFh
F9F0: FF                                DB      0FFh
F9F1: FF                                DB      0FFh
F9F2: FF                                DB      0FFh
F9F3: FF                                DB      0FFh
F9F4: FF                                DB      0FFh
F9F5: FF                                DB      0FFh
F9F6: FF                                DB      0FFh
F9F7: FF                                DB      0FFh
F9F8: FF                                DB      0FFh
F9F9: FF                                DB      0FFh
F9FA: FF                                DB      0FFh
F9FB: FF                                DB      0FFh
F9FC: FF                                DB      0FFh
F9FD: FF                                DB      0FFh
F9FE: FF                                DB      0FFh
F9FF: FF                                DB      0FFh
FA00: FF                                DB      0FFh
FA01: FF                                DB      0FFh
FA02: FF                                DB      0FFh
FA03: FF                                DB      0FFh
FA04: FF                                DB      0FFh
FA05: FF                                DB      0FFh
FA06: FF                                DB      0FFh
FA07: FF                                DB      0FFh
FA08: FF                                DB      0FFh
FA09: FF                                DB      0FFh
FA0A: FF                                DB      0FFh
FA0B: FF                                DB      0FFh
FA0C: FF                                DB      0FFh
FA0D: FF                                DB      0FFh
FA0E: FF                                DB      0FFh
FA0F: FF                                DB      0FFh
FA10: FF                                DB      0FFh
FA11: FF                                DB      0FFh
FA12: FF                                DB      0FFh
FA13: FF                                DB      0FFh
FA14: FF                                DB      0FFh
FA15: FF                                DB      0FFh
FA16: FF                                DB      0FFh
FA17: FF                                DB      0FFh
FA18: FF                                DB      0FFh
FA19: FF                                DB      0FFh
FA1A: FF                                DB      0FFh
FA1B: FF                                DB      0FFh
FA1C: FF                                DB      0FFh
FA1D: FF                                DB      0FFh
FA1E: FF                                DB      0FFh
FA1F: FF                                DB      0FFh
FA20: FF                                DB      0FFh
FA21: FF                                DB      0FFh
FA22: FF                                DB      0FFh
FA23: FF                                DB      0FFh
FA24: FF                                DB      0FFh
FA25: FF                                DB      0FFh
FA26: FF                                DB      0FFh
FA27: FF                                DB      0FFh
FA28: FF                                DB      0FFh
FA29: FF                                DB      0FFh
FA2A: FF                                DB      0FFh
FA2B: FF                                DB      0FFh
FA2C: FF                                DB      0FFh
FA2D: FF                                DB      0FFh
FA2E: FF                                DB      0FFh
FA2F: FF                                DB      0FFh
FA30: FF                                DB      0FFh
FA31: FF                                DB      0FFh
FA32: FF                                DB      0FFh
FA33: FF                                DB      0FFh
FA34: FF                                DB      0FFh
FA35: FF                                DB      0FFh
FA36: FF                                DB      0FFh
FA37: FF                                DB      0FFh
FA38: FF                                DB      0FFh
FA39: FF                                DB      0FFh
FA3A: FF                                DB      0FFh
FA3B: FF                                DB      0FFh
FA3C: FF                                DB      0FFh
FA3D: FF                                DB      0FFh
FA3E: FF                                DB      0FFh
FA3F: FF                                DB      0FFh
FA40: FF                                DB      0FFh
FA41: FF                                DB      0FFh
FA42: FF                                DB      0FFh
FA43: FF                                DB      0FFh
FA44: FF                                DB      0FFh
FA45: FF                                DB      0FFh
FA46: FF                                DB      0FFh
FA47: FF                                DB      0FFh
FA48: FF                                DB      0FFh
FA49: FF                                DB      0FFh
FA4A: FF                                DB      0FFh
FA4B: FF                                DB      0FFh
FA4C: FF                                DB      0FFh
FA4D: FF                                DB      0FFh
FA4E: FF                                DB      0FFh
FA4F: FF                                DB      0FFh
FA50: FF                                DB      0FFh
FA51: FF                                DB      0FFh
FA52: FF                                DB      0FFh
FA53: FF                                DB      0FFh
FA54: FF                                DB      0FFh
FA55: FF                                DB      0FFh
FA56: FF                                DB      0FFh
FA57: FF                                DB      0FFh
FA58: FF                                DB      0FFh
FA59: FF                                DB      0FFh
FA5A: FF                                DB      0FFh
FA5B: FF                                DB      0FFh
FA5C: FF                                DB      0FFh
FA5D: FF                                DB      0FFh
FA5E: FF                                DB      0FFh
FA5F: FF                                DB      0FFh
FA60: FF                                DB      0FFh
FA61: FF                                DB      0FFh
FA62: FF                                DB      0FFh
FA63: FF                                DB      0FFh
FA64: FF                                DB      0FFh
FA65: FF                                DB      0FFh
FA66: FF                                DB      0FFh
FA67: FF                                DB      0FFh
FA68: FF                                DB      0FFh
FA69: FF                                DB      0FFh
FA6A: FF                                DB      0FFh
FA6B: FF                                DB      0FFh
FA6C: FF                                DB      0FFh
FA6D: FF                                DB      0FFh
FA6E: FF                                DB      0FFh
FA6F: FF                                DB      0FFh
FA70: FF                                DB      0FFh
FA71: FF                                DB      0FFh
FA72: FF                                DB      0FFh
FA73: FF                                DB      0FFh
FA74: FF                                DB      0FFh
FA75: FF                                DB      0FFh
FA76: FF                                DB      0FFh
FA77: FF                                DB      0FFh
FA78: FF                                DB      0FFh
FA79: FF                                DB      0FFh
FA7A: FF                                DB      0FFh
FA7B: FF                                DB      0FFh
FA7C: FF                                DB      0FFh
FA7D: FF                                DB      0FFh
FA7E: FF                                DB      0FFh
FA7F: FF                                DB      0FFh
FA80: FF                                DB      0FFh
FA81: FF                                DB      0FFh
FA82: FF                                DB      0FFh
FA83: FF                                DB      0FFh
FA84: FF                                DB      0FFh
FA85: FF                                DB      0FFh
FA86: FF                                DB      0FFh
FA87: FF                                DB      0FFh
FA88: FF                                DB      0FFh
FA89: FF                                DB      0FFh
FA8A: FF                                DB      0FFh
FA8B: FF                                DB      0FFh
FA8C: FF                                DB      0FFh
FA8D: FF                                DB      0FFh
FA8E: FF                                DB      0FFh
FA8F: FF                                DB      0FFh
FA90: FF                                DB      0FFh
FA91: FF                                DB      0FFh
FA92: FF                                DB      0FFh
FA93: FF                                DB      0FFh
FA94: FF                                DB      0FFh
FA95: FF                                DB      0FFh
FA96: FF                                DB      0FFh
FA97: FF                                DB      0FFh
FA98: FF                                DB      0FFh
FA99: FF                                DB      0FFh
FA9A: FF                                DB      0FFh
FA9B: FF                                DB      0FFh
FA9C: FF                                DB      0FFh
FA9D: FF                                DB      0FFh
FA9E: FF                                DB      0FFh
FA9F: FF                                DB      0FFh
FAA0: FF                                DB      0FFh
FAA1: FF                                DB      0FFh
FAA2: FF                                DB      0FFh
FAA3: FF                                DB      0FFh
FAA4: FF                                DB      0FFh
FAA5: FF                                DB      0FFh
FAA6: FF                                DB      0FFh
FAA7: FF                                DB      0FFh
FAA8: FF                                DB      0FFh
FAA9: FF                                DB      0FFh
FAAA: FF                                DB      0FFh
FAAB: FF                                DB      0FFh
FAAC: FF                                DB      0FFh
FAAD: FF                                DB      0FFh
FAAE: FF                                DB      0FFh
FAAF: FF                                DB      0FFh
FAB0: FF                                DB      0FFh
FAB1: FF                                DB      0FFh
FAB2: FF                                DB      0FFh
FAB3: FF                                DB      0FFh
FAB4: FF                                DB      0FFh
FAB5: FF                                DB      0FFh
FAB6: FF                                DB      0FFh
FAB7: FF                                DB      0FFh
FAB8: FF                                DB      0FFh
FAB9: FF                                DB      0FFh
FABA: FF                                DB      0FFh
FABB: FF                                DB      0FFh
FABC: FF                                DB      0FFh
FABD: FF                                DB      0FFh
FABE: FF                                DB      0FFh
FABF: FF                                DB      0FFh
FAC0: FF                                DB      0FFh
FAC1: FF                                DB      0FFh
FAC2: FF                                DB      0FFh
FAC3: FF                                DB      0FFh
FAC4: FF                                DB      0FFh
FAC5: FF                                DB      0FFh
FAC6: FF                                DB      0FFh
FAC7: FF                                DB      0FFh
FAC8: FF                                DB      0FFh
FAC9: FF                                DB      0FFh
FACA: FF                                DB      0FFh
FACB: FF                                DB      0FFh
FACC: FF                                DB      0FFh
FACD: FF                                DB      0FFh
FACE: FF                                DB      0FFh
FACF: FF                                DB      0FFh
FAD0: FF                                DB      0FFh
FAD1: FF                                DB      0FFh
FAD2: FF                                DB      0FFh
FAD3: FF                                DB      0FFh
FAD4: FF                                DB      0FFh
FAD5: FF                                DB      0FFh
FAD6: FF                                DB      0FFh
FAD7: FF                                DB      0FFh
FAD8: FF                                DB      0FFh
FAD9: FF                                DB      0FFh
FADA: FF                                DB      0FFh
FADB: FF                                DB      0FFh
FADC: FF                                DB      0FFh
FADD: FF                                DB      0FFh
FADE: FF                                DB      0FFh
FADF: FF                                DB      0FFh
FAE0: FF                                DB      0FFh
FAE1: FF                                DB      0FFh
FAE2: FF                                DB      0FFh
FAE3: FF                                DB      0FFh
FAE4: FF                                DB      0FFh
FAE5: FF                                DB      0FFh
FAE6: FF                                DB      0FFh
FAE7: FF                                DB      0FFh
FAE8: FF                                DB      0FFh
FAE9: FF                                DB      0FFh
FAEA: FF                                DB      0FFh
FAEB: FF                                DB      0FFh
FAEC: FF                                DB      0FFh
FAED: FF                                DB      0FFh
FAEE: FF                                DB      0FFh
FAEF: FF                                DB      0FFh
FAF0: FF                                DB      0FFh
FAF1: FF                                DB      0FFh
FAF2: FF                                DB      0FFh
FAF3: FF                                DB      0FFh
FAF4: FF                                DB      0FFh
FAF5: FF                                DB      0FFh
FAF6: FF                                DB      0FFh
FAF7: FF                                DB      0FFh
FAF8: FF                                DB      0FFh
FAF9: FF                                DB      0FFh
FAFA: FF                                DB      0FFh
FAFB: FF                                DB      0FFh
FAFC: FF                                DB      0FFh
FAFD: FF                                DB      0FFh
FAFE: FF                                DB      0FFh
FAFF: FF                                DB      0FFh
FB00: FF                                DB      0FFh
FB01: FF                                DB      0FFh
FB02: FF                                DB      0FFh
FB03: FF                                DB      0FFh
FB04: FF                                DB      0FFh
FB05: FF                                DB      0FFh
FB06: FF                                DB      0FFh
FB07: FF                                DB      0FFh
FB08: FF                                DB      0FFh
FB09: FF                                DB      0FFh
FB0A: FF                                DB      0FFh
FB0B: FF                                DB      0FFh
FB0C: FF                                DB      0FFh
FB0D: FF                                DB      0FFh
FB0E: FF                                DB      0FFh
FB0F: FF                                DB      0FFh
FB10: FF                                DB      0FFh
FB11: FF                                DB      0FFh
FB12: FF                                DB      0FFh
FB13: FF                                DB      0FFh
FB14: FF                                DB      0FFh
FB15: FF                                DB      0FFh
FB16: FF                                DB      0FFh
FB17: FF                                DB      0FFh
FB18: FF                                DB      0FFh
FB19: FF                                DB      0FFh
FB1A: FF                                DB      0FFh
FB1B: FF                                DB      0FFh
FB1C: FF                                DB      0FFh
FB1D: FF                                DB      0FFh
FB1E: FF                                DB      0FFh
FB1F: FF                                DB      0FFh
FB20: FF                                DB      0FFh
FB21: FF                                DB      0FFh
FB22: FF                                DB      0FFh
FB23: FF                                DB      0FFh
FB24: FF                                DB      0FFh
FB25: FF                                DB      0FFh
FB26: FF                                DB      0FFh
FB27: FF                                DB      0FFh
FB28: FF                                DB      0FFh
FB29: FF                                DB      0FFh
FB2A: FF                                DB      0FFh
FB2B: FF                                DB      0FFh
FB2C: FF                                DB      0FFh
FB2D: FF                                DB      0FFh
FB2E: FF                                DB      0FFh
FB2F: FF                                DB      0FFh
FB30: FF                                DB      0FFh
FB31: FF                                DB      0FFh
FB32: FF                                DB      0FFh
FB33: FF                                DB      0FFh
FB34: FF                                DB      0FFh
FB35: FF                                DB      0FFh
FB36: FF                                DB      0FFh
FB37: FF                                DB      0FFh
FB38: FF                                DB      0FFh
FB39: FF                                DB      0FFh
FB3A: FF                                DB      0FFh
FB3B: FF                                DB      0FFh
FB3C: FF                                DB      0FFh
FB3D: FF                                DB      0FFh
FB3E: FF                                DB      0FFh
FB3F: FF                                DB      0FFh
FB40: FF                                DB      0FFh
FB41: FF                                DB      0FFh
FB42: FF                                DB      0FFh
FB43: FF                                DB      0FFh
FB44: FF                                DB      0FFh
FB45: FF                                DB      0FFh
FB46: FF                                DB      0FFh
FB47: FF                                DB      0FFh
FB48: FF                                DB      0FFh
FB49: FF                                DB      0FFh
FB4A: FF                                DB      0FFh
FB4B: FF                                DB      0FFh
FB4C: FF                                DB      0FFh
FB4D: FF                                DB      0FFh
FB4E: FF                                DB      0FFh
FB4F: FF                                DB      0FFh
FB50: FF                                DB      0FFh
FB51: FF                                DB      0FFh
FB52: FF                                DB      0FFh
FB53: FF                                DB      0FFh
FB54: FF                                DB      0FFh
FB55: FF                                DB      0FFh
FB56: FF                                DB      0FFh
FB57: FF                                DB      0FFh
FB58: FF                                DB      0FFh
FB59: FF                                DB      0FFh
FB5A: FF                                DB      0FFh
FB5B: FF                                DB      0FFh
FB5C: FF                                DB      0FFh
FB5D: FF                                DB      0FFh
FB5E: FF                                DB      0FFh
FB5F: FF                                DB      0FFh
FB60: FF                                DB      0FFh
FB61: FF                                DB      0FFh
FB62: FF                                DB      0FFh
FB63: FF                                DB      0FFh
FB64: FF                                DB      0FFh
FB65: FF                                DB      0FFh
FB66: FF                                DB      0FFh
FB67: FF                                DB      0FFh
FB68: FF                                DB      0FFh
FB69: FF                                DB      0FFh
FB6A: FF                                DB      0FFh
FB6B: FF                                DB      0FFh
FB6C: FF                                DB      0FFh
FB6D: FF                                DB      0FFh
FB6E: FF                                DB      0FFh
FB6F: FF                                DB      0FFh
FB70: FF                                DB      0FFh
FB71: FF                                DB      0FFh
FB72: FF                                DB      0FFh
FB73: FF                                DB      0FFh
FB74: FF                                DB      0FFh
FB75: FF                                DB      0FFh
FB76: FF                                DB      0FFh
FB77: FF                                DB      0FFh
FB78: FF                                DB      0FFh
FB79: FF                                DB      0FFh
FB7A: FF                                DB      0FFh
FB7B: FF                                DB      0FFh
FB7C: FF                                DB      0FFh
FB7D: FF                                DB      0FFh
FB7E: FF                                DB      0FFh
FB7F: FF                                DB      0FFh
FB80: FF                                DB      0FFh
FB81: FF                                DB      0FFh
FB82: FF                                DB      0FFh
FB83: FF                                DB      0FFh
FB84: FF                                DB      0FFh
FB85: FF                                DB      0FFh
FB86: FF                                DB      0FFh
FB87: FF                                DB      0FFh
FB88: FF                                DB      0FFh
FB89: FF                                DB      0FFh
FB8A: FF                                DB      0FFh
FB8B: FF                                DB      0FFh
FB8C: FF                                DB      0FFh
FB8D: FF                                DB      0FFh
FB8E: FF                                DB      0FFh
FB8F: FF                                DB      0FFh
FB90: FF                                DB      0FFh
FB91: FF                                DB      0FFh
FB92: FF                                DB      0FFh
FB93: FF                                DB      0FFh
FB94: FF                                DB      0FFh
FB95: FF                                DB      0FFh
FB96: FF                                DB      0FFh
FB97: FF                                DB      0FFh
FB98: FF                                DB      0FFh
FB99: FF                                DB      0FFh
FB9A: FF                                DB      0FFh
FB9B: FF                                DB      0FFh
FB9C: FF                                DB      0FFh
FB9D: FF                                DB      0FFh
FB9E: FF                                DB      0FFh
FB9F: FF                                DB      0FFh
FBA0: FF                                DB      0FFh
FBA1: FF                                DB      0FFh
FBA2: FF                                DB      0FFh
FBA3: FF                                DB      0FFh
FBA4: FF                                DB      0FFh
FBA5: FF                                DB      0FFh
FBA6: FF                                DB      0FFh
FBA7: FF                                DB      0FFh
FBA8: FF                                DB      0FFh
FBA9: FF                                DB      0FFh
FBAA: FF                                DB      0FFh
FBAB: FF                                DB      0FFh
FBAC: FF                                DB      0FFh
FBAD: FF                                DB      0FFh
FBAE: FF                                DB      0FFh
FBAF: FF                                DB      0FFh
FBB0: FF                                DB      0FFh
FBB1: FF                                DB      0FFh
FBB2: FF                                DB      0FFh
FBB3: FF                                DB      0FFh
FBB4: FF                                DB      0FFh
FBB5: FF                                DB      0FFh
FBB6: FF                                DB      0FFh
FBB7: FF                                DB      0FFh
FBB8: FF                                DB      0FFh
FBB9: FF                                DB      0FFh
FBBA: FF                                DB      0FFh
FBBB: FF                                DB      0FFh
FBBC: FF                                DB      0FFh
FBBD: FF                                DB      0FFh
FBBE: FF                                DB      0FFh
FBBF: FF                                DB      0FFh
FBC0: FF                                DB      0FFh
FBC1: FF                                DB      0FFh
FBC2: FF                                DB      0FFh
FBC3: FF                                DB      0FFh
FBC4: FF                                DB      0FFh
FBC5: FF                                DB      0FFh
FBC6: FF                                DB      0FFh
FBC7: FF                                DB      0FFh
FBC8: FF                                DB      0FFh
FBC9: FF                                DB      0FFh
FBCA: FF                                DB      0FFh
FBCB: FF                                DB      0FFh
FBCC: FF                                DB      0FFh
FBCD: FF                                DB      0FFh
FBCE: FF                                DB      0FFh
FBCF: FF                                DB      0FFh
FBD0: FF                                DB      0FFh
FBD1: FF                                DB      0FFh
FBD2: FF                                DB      0FFh
FBD3: FF                                DB      0FFh
FBD4: FF                                DB      0FFh
FBD5: FF                                DB      0FFh
FBD6: FF                                DB      0FFh
FBD7: FF                                DB      0FFh
FBD8: FF                                DB      0FFh
FBD9: FF                                DB      0FFh
FBDA: FF                                DB      0FFh
FBDB: FF                                DB      0FFh
FBDC: FF                                DB      0FFh
FBDD: FF                                DB      0FFh
FBDE: FF                                DB      0FFh
FBDF: FF                                DB      0FFh
FBE0: FF                                DB      0FFh
FBE1: FF                                DB      0FFh
FBE2: FF                                DB      0FFh
FBE3: FF                                DB      0FFh
FBE4: FF                                DB      0FFh
FBE5: FF                                DB      0FFh
FBE6: FF                                DB      0FFh
FBE7: FF                                DB      0FFh
FBE8: FF                                DB      0FFh
FBE9: FF                                DB      0FFh
FBEA: FF                                DB      0FFh
FBEB: FF                                DB      0FFh
FBEC: FF                                DB      0FFh
FBED: FF                                DB      0FFh
FBEE: FF                                DB      0FFh
FBEF: FF                                DB      0FFh
FBF0: FF                                DB      0FFh
FBF1: FF                                DB      0FFh
FBF2: FF                                DB      0FFh
FBF3: FF                                DB      0FFh
FBF4: FF                                DB      0FFh
FBF5: FF                                DB      0FFh
FBF6: FF                                DB      0FFh
FBF7: FF                                DB      0FFh
FBF8: FF                                DB      0FFh
FBF9: FF                                DB      0FFh
FBFA: FF                                DB      0FFh
FBFB: FF                                DB      0FFh
FBFC: FF                                DB      0FFh
FBFD: FF                                DB      0FFh
FBFE: FF                                DB      0FFh
FBFF: FF                                DB      0FFh
FC00: FF                                DB      0FFh
FC01: FF                                DB      0FFh
FC02: FF                                DB      0FFh
FC03: FF                                DB      0FFh
FC04: FF                                DB      0FFh
FC05: FF                                DB      0FFh
FC06: FF                                DB      0FFh
FC07: FF                                DB      0FFh
FC08: FF                                DB      0FFh
FC09: FF                                DB      0FFh
FC0A: FF                                DB      0FFh
FC0B: FF                                DB      0FFh
FC0C: FF                                DB      0FFh
FC0D: FF                                DB      0FFh
FC0E: FF                                DB      0FFh
FC0F: FF                                DB      0FFh
FC10: FF                                DB      0FFh
FC11: FF                                DB      0FFh
FC12: FF                                DB      0FFh
FC13: FF                                DB      0FFh
FC14: FF                                DB      0FFh
FC15: FF                                DB      0FFh
FC16: FF                                DB      0FFh
FC17: FF                                DB      0FFh
FC18: FF                                DB      0FFh
FC19: FF                                DB      0FFh
FC1A: FF                                DB      0FFh
FC1B: FF                                DB      0FFh
FC1C: FF                                DB      0FFh
FC1D: FF                                DB      0FFh
FC1E: FF                                DB      0FFh
FC1F: FF                                DB      0FFh
FC20: FF                                DB      0FFh
FC21: FF                                DB      0FFh
FC22: FF                                DB      0FFh
FC23: FF                                DB      0FFh
FC24: FF                                DB      0FFh
FC25: FF                                DB      0FFh
FC26: FF                                DB      0FFh
FC27: FF                                DB      0FFh
FC28: FF                                DB      0FFh
FC29: FF                                DB      0FFh
FC2A: FF                                DB      0FFh
FC2B: FF                                DB      0FFh
FC2C: FF                                DB      0FFh
FC2D: FF                                DB      0FFh
FC2E: FF                                DB      0FFh
FC2F: FF                                DB      0FFh
FC30: FF                                DB      0FFh
FC31: FF                                DB      0FFh
FC32: FF                                DB      0FFh
FC33: FF                                DB      0FFh
FC34: FF                                DB      0FFh
FC35: FF                                DB      0FFh
FC36: FF                                DB      0FFh
FC37: FF                                DB      0FFh
FC38: FF                                DB      0FFh
FC39: FF                                DB      0FFh
FC3A: FF                                DB      0FFh
FC3B: FF                                DB      0FFh
FC3C: FF                                DB      0FFh
FC3D: FF                                DB      0FFh
FC3E: FF                                DB      0FFh
FC3F: FF                                DB      0FFh
FC40: FF                                DB      0FFh
FC41: FF                                DB      0FFh
FC42: FF                                DB      0FFh
FC43: FF                                DB      0FFh
FC44: FF                                DB      0FFh
FC45: FF                                DB      0FFh
FC46: FF                                DB      0FFh
FC47: FF                                DB      0FFh
FC48: FF                                DB      0FFh
FC49: FF                                DB      0FFh
FC4A: FF                                DB      0FFh
FC4B: FF                                DB      0FFh
FC4C: FF                                DB      0FFh
FC4D: FF                                DB      0FFh
FC4E: FF                                DB      0FFh
FC4F: FF                                DB      0FFh
FC50: FF                                DB      0FFh
FC51: FF                                DB      0FFh
FC52: FF                                DB      0FFh
FC53: FF                                DB      0FFh
FC54: FF                                DB      0FFh
FC55: FF                                DB      0FFh
FC56: FF                                DB      0FFh
FC57: FF                                DB      0FFh
FC58: FF                                DB      0FFh
FC59: FF                                DB      0FFh
FC5A: FF                                DB      0FFh
FC5B: FF                                DB      0FFh
FC5C: FF                                DB      0FFh
FC5D: FF                                DB      0FFh
FC5E: FF                                DB      0FFh
FC5F: FF                                DB      0FFh
FC60: FF                                DB      0FFh
FC61: FF                                DB      0FFh
FC62: FF                                DB      0FFh
FC63: FF                                DB      0FFh
FC64: FF                                DB      0FFh
FC65: FF                                DB      0FFh
FC66: FF                                DB      0FFh
FC67: FF                                DB      0FFh
FC68: FF                                DB      0FFh
FC69: FF                                DB      0FFh
FC6A: FF                                DB      0FFh
FC6B: FF                                DB      0FFh
FC6C: FF                                DB      0FFh
FC6D: FF                                DB      0FFh
FC6E: FF                                DB      0FFh
FC6F: FF                                DB      0FFh
FC70: FF                                DB      0FFh
FC71: FF                                DB      0FFh
FC72: FF                                DB      0FFh
FC73: FF                                DB      0FFh
FC74: FF                                DB      0FFh
FC75: FF                                DB      0FFh
FC76: FF                                DB      0FFh
FC77: FF                                DB      0FFh
FC78: FF                                DB      0FFh
FC79: FF                                DB      0FFh
FC7A: FF                                DB      0FFh
FC7B: FF                                DB      0FFh
FC7C: FF                                DB      0FFh
FC7D: FF                                DB      0FFh
FC7E: FF                                DB      0FFh
FC7F: FF                                DB      0FFh
FC80: FF                                DB      0FFh
FC81: FF                                DB      0FFh
FC82: FF                                DB      0FFh
FC83: FF                                DB      0FFh
FC84: FF                                DB      0FFh
FC85: FF                                DB      0FFh
FC86: FF                                DB      0FFh
FC87: FF                                DB      0FFh
FC88: FF                                DB      0FFh
FC89: FF                                DB      0FFh
FC8A: FF                                DB      0FFh
FC8B: FF                                DB      0FFh
FC8C: FF                                DB      0FFh
FC8D: FF                                DB      0FFh
FC8E: FF                                DB      0FFh
FC8F: FF                                DB      0FFh
FC90: FF                                DB      0FFh
FC91: FF                                DB      0FFh
FC92: FF                                DB      0FFh
FC93: FF                                DB      0FFh
FC94: FF                                DB      0FFh
FC95: FF                                DB      0FFh
FC96: FF                                DB      0FFh
FC97: FF                                DB      0FFh
FC98: FF                                DB      0FFh
FC99: FF                                DB      0FFh
FC9A: FF                                DB      0FFh
FC9B: FF                                DB      0FFh
FC9C: FF                                DB      0FFh
FC9D: FF                                DB      0FFh
FC9E: FF                                DB      0FFh
FC9F: FF                                DB      0FFh
FCA0: FF                                DB      0FFh
FCA1: FF                                DB      0FFh
FCA2: FF                                DB      0FFh
FCA3: FF                                DB      0FFh
FCA4: FF                                DB      0FFh
FCA5: FF                                DB      0FFh
FCA6: FF                                DB      0FFh
FCA7: FF                                DB      0FFh
FCA8: FF                                DB      0FFh
FCA9: FF                                DB      0FFh
FCAA: FF                                DB      0FFh
FCAB: FF                                DB      0FFh
FCAC: FF                                DB      0FFh
FCAD: FF                                DB      0FFh
FCAE: FF                                DB      0FFh
FCAF: FF                                DB      0FFh
FCB0: FF                                DB      0FFh
FCB1: FF                                DB      0FFh
FCB2: FF                                DB      0FFh
FCB3: FF                                DB      0FFh
FCB4: FF                                DB      0FFh
FCB5: FF                                DB      0FFh
FCB6: FF                                DB      0FFh
FCB7: FF                                DB      0FFh
FCB8: FF                                DB      0FFh
FCB9: FF                                DB      0FFh
FCBA: FF                                DB      0FFh
FCBB: FF                                DB      0FFh
FCBC: FF                                DB      0FFh
FCBD: FF                                DB      0FFh
FCBE: FF                                DB      0FFh
FCBF: FF                                DB      0FFh
FCC0: FF                                DB      0FFh
FCC1: FF                                DB      0FFh
FCC2: FF                                DB      0FFh
FCC3: FF                                DB      0FFh
FCC4: FF                                DB      0FFh
FCC5: FF                                DB      0FFh
FCC6: FF                                DB      0FFh
FCC7: FF                                DB      0FFh
FCC8: FF                                DB      0FFh
FCC9: FF                                DB      0FFh
FCCA: FF                                DB      0FFh
FCCB: FF                                DB      0FFh
FCCC: FF                                DB      0FFh
FCCD: FF                                DB      0FFh
FCCE: FF                                DB      0FFh
FCCF: FF                                DB      0FFh
FCD0: FF                                DB      0FFh
FCD1: FF                                DB      0FFh
FCD2: FF                                DB      0FFh
FCD3: FF                                DB      0FFh
FCD4: FF                                DB      0FFh
FCD5: FF                                DB      0FFh
FCD6: FF                                DB      0FFh
FCD7: FF                                DB      0FFh
FCD8: FF                                DB      0FFh
FCD9: FF                                DB      0FFh
FCDA: FF                                DB      0FFh
FCDB: FF                                DB      0FFh
FCDC: FF                                DB      0FFh
FCDD: FF                                DB      0FFh
FCDE: FF                                DB      0FFh
FCDF: FF                                DB      0FFh
FCE0: FF                                DB      0FFh
FCE1: FF                                DB      0FFh
FCE2: FF                                DB      0FFh
FCE3: FF                                DB      0FFh
FCE4: FF                                DB      0FFh
FCE5: FF                                DB      0FFh
FCE6: FF                                DB      0FFh
FCE7: FF                                DB      0FFh
FCE8: FF                                DB      0FFh
FCE9: FF                                DB      0FFh
FCEA: FF                                DB      0FFh
FCEB: FF                                DB      0FFh
FCEC: FF                                DB      0FFh
FCED: FF                                DB      0FFh
FCEE: FF                                DB      0FFh
FCEF: FF                                DB      0FFh
FCF0: FF                                DB      0FFh
FCF1: FF                                DB      0FFh
FCF2: FF                                DB      0FFh
FCF3: FF                                DB      0FFh
FCF4: FF                                DB      0FFh
FCF5: FF                                DB      0FFh
FCF6: FF                                DB      0FFh
FCF7: FF                                DB      0FFh
FCF8: FF                                DB      0FFh
FCF9: FF                                DB      0FFh
FCFA: FF                                DB      0FFh
FCFB: FF                                DB      0FFh
FCFC: FF                                DB      0FFh
FCFD: FF                                DB      0FFh
FCFE: FF                                DB      0FFh
FCFF: FF                                DB      0FFh
FD00: FF                                DB      0FFh
FD01: FF                                DB      0FFh
FD02: FF                                DB      0FFh
FD03: FF                                DB      0FFh
FD04: FF                                DB      0FFh
FD05: FF                                DB      0FFh
FD06: FF                                DB      0FFh
FD07: FF                                DB      0FFh
FD08: FF                                DB      0FFh
FD09: FF                                DB      0FFh
FD0A: FF                                DB      0FFh
FD0B: FF                                DB      0FFh
FD0C: FF                                DB      0FFh
FD0D: FF                                DB      0FFh
FD0E: FF                                DB      0FFh
FD0F: FF                                DB      0FFh
FD10: FF                                DB      0FFh
FD11: FF                                DB      0FFh
FD12: FF                                DB      0FFh
FD13: FF                                DB      0FFh
FD14: FF                                DB      0FFh
FD15: FF                                DB      0FFh
FD16: FF                                DB      0FFh
FD17: FF                                DB      0FFh
FD18: FF                                DB      0FFh
FD19: FF                                DB      0FFh
FD1A: FF                                DB      0FFh
FD1B: FF                                DB      0FFh
FD1C: FF                                DB      0FFh
FD1D: FF                                DB      0FFh
FD1E: FF                                DB      0FFh
FD1F: FF                                DB      0FFh
FD20: FF                                DB      0FFh
FD21: FF                                DB      0FFh
FD22: FF                                DB      0FFh
FD23: FF                                DB      0FFh
FD24: FF                                DB      0FFh
FD25: FF                                DB      0FFh
FD26: FF                                DB      0FFh
FD27: FF                                DB      0FFh
FD28: FF                                DB      0FFh
FD29: FF                                DB      0FFh
FD2A: FF                                DB      0FFh
FD2B: FF                                DB      0FFh
FD2C: FF                                DB      0FFh
FD2D: FF                                DB      0FFh
FD2E: FF                                DB      0FFh
FD2F: FF                                DB      0FFh
FD30: FF                                DB      0FFh
FD31: FF                                DB      0FFh
FD32: FF                                DB      0FFh
FD33: FF                                DB      0FFh
FD34: FF                                DB      0FFh
FD35: FF                                DB      0FFh
FD36: FF                                DB      0FFh
FD37: FF                                DB      0FFh
FD38: FF                                DB      0FFh
FD39: FF                                DB      0FFh
FD3A: FF                                DB      0FFh
FD3B: FF                                DB      0FFh
FD3C: FF                                DB      0FFh
FD3D: FF                                DB      0FFh
FD3E: FF                                DB      0FFh
FD3F: FF                                DB      0FFh
FD40: FF                                DB      0FFh
FD41: FF                                DB      0FFh
FD42: FF                                DB      0FFh
FD43: FF                                DB      0FFh
FD44: FF                                DB      0FFh
FD45: FF                                DB      0FFh
FD46: FF                                DB      0FFh
FD47: FF                                DB      0FFh
FD48: FF                                DB      0FFh
FD49: FF                                DB      0FFh
FD4A: FF                                DB      0FFh
FD4B: FF                                DB      0FFh
FD4C: FF                                DB      0FFh
FD4D: FF                                DB      0FFh
FD4E: FF                                DB      0FFh
FD4F: FF                                DB      0FFh
FD50: FF                                DB      0FFh
FD51: FF                                DB      0FFh
FD52: FF                                DB      0FFh
FD53: FF                                DB      0FFh
FD54: FF                                DB      0FFh
FD55: FF                                DB      0FFh
FD56: FF                                DB      0FFh
FD57: FF                                DB      0FFh
FD58: FF                                DB      0FFh
FD59: FF                                DB      0FFh
FD5A: FF                                DB      0FFh
FD5B: FF                                DB      0FFh
FD5C: FF                                DB      0FFh
FD5D: FF                                DB      0FFh
FD5E: FF                                DB      0FFh
FD5F: FF                                DB      0FFh
FD60: FF                                DB      0FFh
FD61: FF                                DB      0FFh
FD62: FF                                DB      0FFh
FD63: FF                                DB      0FFh
FD64: FF                                DB      0FFh
FD65: FF                                DB      0FFh
FD66: FF                                DB      0FFh
FD67: FF                                DB      0FFh
FD68: FF                                DB      0FFh
FD69: FF                                DB      0FFh
FD6A: FF                                DB      0FFh
FD6B: FF                                DB      0FFh
FD6C: FF                                DB      0FFh
FD6D: FF                                DB      0FFh
FD6E: FF                                DB      0FFh
FD6F: FF                                DB      0FFh
FD70: FF                                DB      0FFh
FD71: FF                                DB      0FFh
FD72: FF                                DB      0FFh
FD73: FF                                DB      0FFh
FD74: FF                                DB      0FFh
FD75: FF                                DB      0FFh
FD76: FF                                DB      0FFh
FD77: FF                                DB      0FFh
FD78: FF                                DB      0FFh
FD79: FF                                DB      0FFh
FD7A: FF                                DB      0FFh
FD7B: FF                                DB      0FFh
FD7C: FF                                DB      0FFh
FD7D: FF                                DB      0FFh
FD7E: FF                                DB      0FFh
FD7F: FF                                DB      0FFh
FD80: FF                                DB      0FFh
FD81: FF                                DB      0FFh
FD82: FF                                DB      0FFh
FD83: FF                                DB      0FFh
FD84: FF                                DB      0FFh
FD85: FF                                DB      0FFh
FD86: FF                                DB      0FFh
FD87: FF                                DB      0FFh
FD88: FF                                DB      0FFh
FD89: FF                                DB      0FFh
FD8A: FF                                DB      0FFh
FD8B: FF                                DB      0FFh
FD8C: FF                                DB      0FFh
FD8D: FF                                DB      0FFh
FD8E: FF                                DB      0FFh
FD8F: FF                                DB      0FFh
FD90: FF                                DB      0FFh
FD91: FF                                DB      0FFh
FD92: FF                                DB      0FFh
FD93: FF                                DB      0FFh
FD94: FF                                DB      0FFh
FD95: FF                                DB      0FFh
FD96: FF                                DB      0FFh
FD97: FF                                DB      0FFh
FD98: FF                                DB      0FFh
FD99: FF                                DB      0FFh
FD9A: FF                                DB      0FFh
FD9B: FF                                DB      0FFh
FD9C: FF                                DB      0FFh
FD9D: FF                                DB      0FFh
FD9E: FF                                DB      0FFh
FD9F: FF                                DB      0FFh
FDA0: FF                                DB      0FFh
FDA1: FF                                DB      0FFh
FDA2: FF                                DB      0FFh
FDA3: FF                                DB      0FFh
FDA4: FF                                DB      0FFh
FDA5: FF                                DB      0FFh
FDA6: FF                                DB      0FFh
FDA7: FF                                DB      0FFh
FDA8: FF                                DB      0FFh
FDA9: FF                                DB      0FFh
FDAA: FF                                DB      0FFh
FDAB: FF                                DB      0FFh
FDAC: FF                                DB      0FFh
FDAD: FF                                DB      0FFh
FDAE: FF                                DB      0FFh
FDAF: FF                                DB      0FFh
FDB0: FF                                DB      0FFh
FDB1: FF                                DB      0FFh
FDB2: FF                                DB      0FFh
FDB3: FF                                DB      0FFh
FDB4: FF                                DB      0FFh
FDB5: FF                                DB      0FFh
FDB6: FF                                DB      0FFh
FDB7: FF                                DB      0FFh
FDB8: FF                                DB      0FFh
FDB9: FF                                DB      0FFh
FDBA: FF                                DB      0FFh
FDBB: FF                                DB      0FFh
FDBC: FF                                DB      0FFh
FDBD: FF                                DB      0FFh
FDBE: FF                                DB      0FFh
FDBF: FF                                DB      0FFh
FDC0: FF                                DB      0FFh
FDC1: FF                                DB      0FFh
FDC2: FF                                DB      0FFh
FDC3: FF                                DB      0FFh
FDC4: FF                                DB      0FFh
FDC5: FF                                DB      0FFh
FDC6: FF                                DB      0FFh
FDC7: FF                                DB      0FFh
FDC8: FF                                DB      0FFh
FDC9: FF                                DB      0FFh
FDCA: FF                                DB      0FFh
FDCB: FF                                DB      0FFh
FDCC: FF                                DB      0FFh
FDCD: FF                                DB      0FFh
FDCE: FF                                DB      0FFh
FDCF: FF                                DB      0FFh
FDD0: FF                                DB      0FFh
FDD1: FF                                DB      0FFh
FDD2: FF                                DB      0FFh
FDD3: FF                                DB      0FFh
FDD4: FF                                DB      0FFh
FDD5: FF                                DB      0FFh
FDD6: FF                                DB      0FFh
FDD7: FF                                DB      0FFh
FDD8: FF                                DB      0FFh
FDD9: FF                                DB      0FFh
FDDA: FF                                DB      0FFh
FDDB: FF                                DB      0FFh
FDDC: FF                                DB      0FFh
FDDD: FF                                DB      0FFh
FDDE: FF                                DB      0FFh
FDDF: FF                                DB      0FFh
FDE0: FF                                DB      0FFh
FDE1: FF                                DB      0FFh
FDE2: FF                                DB      0FFh
FDE3: FF                                DB      0FFh
FDE4: FF                                DB      0FFh
FDE5: FF                                DB      0FFh
FDE6: FF                                DB      0FFh
FDE7: FF                                DB      0FFh
FDE8: FF                                DB      0FFh
FDE9: FF                                DB      0FFh
FDEA: FF                                DB      0FFh
FDEB: FF                                DB      0FFh
FDEC: FF                                DB      0FFh
FDED: FF                                DB      0FFh
FDEE: FF                                DB      0FFh
FDEF: FF                                DB      0FFh
FDF0: FF                                DB      0FFh
FDF1: FF                                DB      0FFh
FDF2: FF                                DB      0FFh
FDF3: FF                                DB      0FFh
FDF4: FF                                DB      0FFh
FDF5: FF                                DB      0FFh
FDF6: FF                                DB      0FFh
FDF7: FF                                DB      0FFh
FDF8: FF                                DB      0FFh
FDF9: FF                                DB      0FFh
FDFA: FF                                DB      0FFh
FDFB: FF                                DB      0FFh
FDFC: FF                                DB      0FFh
FDFD: FF                                DB      0FFh
FDFE: FF                                DB      0FFh
FDFF: FF                                DB      0FFh
FE00: FF                                DB      0FFh
FE01: FF                                DB      0FFh
FE02: FF                                DB      0FFh
FE03: FF                                DB      0FFh
FE04: FF                                DB      0FFh
FE05: FF                                DB      0FFh
FE06: FF                                DB      0FFh
FE07: FF                                DB      0FFh
FE08: FF                                DB      0FFh
FE09: FF                                DB      0FFh
FE0A: FF                                DB      0FFh
FE0B: FF                                DB      0FFh
FE0C: FF                                DB      0FFh
FE0D: FF                                DB      0FFh
FE0E: FF                                DB      0FFh
FE0F: FF                                DB      0FFh
FE10: FF                                DB      0FFh
FE11: FF                                DB      0FFh
FE12: FF                                DB      0FFh
FE13: FF                                DB      0FFh
FE14: FF                                DB      0FFh
FE15: FF                                DB      0FFh
FE16: FF                                DB      0FFh
FE17: FF                                DB      0FFh
FE18: FF                                DB      0FFh
FE19: FF                                DB      0FFh
FE1A: FF                                DB      0FFh
FE1B: FF                                DB      0FFh
FE1C: FF                                DB      0FFh
FE1D: FF                                DB      0FFh
FE1E: FF                                DB      0FFh
FE1F: FF                                DB      0FFh
FE20: FF                                DB      0FFh
FE21: FF                                DB      0FFh
FE22: FF                                DB      0FFh
FE23: FF                                DB      0FFh
FE24: FF                                DB      0FFh
FE25: FF                                DB      0FFh
FE26: FF                                DB      0FFh
FE27: FF                                DB      0FFh
FE28: FF                                DB      0FFh
FE29: FF                                DB      0FFh
FE2A: FF                                DB      0FFh
FE2B: FF                                DB      0FFh
FE2C: FF                                DB      0FFh
FE2D: FF                                DB      0FFh
FE2E: FF                                DB      0FFh
FE2F: FF                                DB      0FFh
FE30: FF                                DB      0FFh
FE31: FF                                DB      0FFh
FE32: FF                                DB      0FFh
FE33: FF                                DB      0FFh
FE34: FF                                DB      0FFh
FE35: FF                                DB      0FFh
FE36: FF                                DB      0FFh
FE37: FF                                DB      0FFh
FE38: FF                                DB      0FFh
FE39: FF                                DB      0FFh
FE3A: FF                                DB      0FFh
FE3B: FF                                DB      0FFh
FE3C: FF                                DB      0FFh
FE3D: FF                                DB      0FFh
FE3E: FF                                DB      0FFh
FE3F: FF                                DB      0FFh
FE40: FF                                DB      0FFh
FE41: FF                                DB      0FFh
FE42: FF                                DB      0FFh
FE43: FF                                DB      0FFh
FE44: FF                                DB      0FFh
FE45: FF                                DB      0FFh
FE46: FF                                DB      0FFh
FE47: FF                                DB      0FFh
FE48: FF                                DB      0FFh
FE49: FF                                DB      0FFh
FE4A: FF                                DB      0FFh
FE4B: FF                                DB      0FFh
FE4C: FF                                DB      0FFh
FE4D: FF                                DB      0FFh
FE4E: FF                                DB      0FFh
FE4F: FF                                DB      0FFh
FE50: FF                                DB      0FFh
FE51: FF                                DB      0FFh
FE52: FF                                DB      0FFh
FE53: FF                                DB      0FFh
FE54: FF                                DB      0FFh
FE55: FF                                DB      0FFh
FE56: FF                                DB      0FFh
FE57: FF                                DB      0FFh
FE58: FF                                DB      0FFh
FE59: FF                                DB      0FFh
FE5A: FF                                DB      0FFh
FE5B: FF                                DB      0FFh
FE5C: FF                                DB      0FFh
FE5D: FF                                DB      0FFh
FE5E: FF                                DB      0FFh
FE5F: FF                                DB      0FFh
FE60: FF                                DB      0FFh
FE61: FF                                DB      0FFh
FE62: FF                                DB      0FFh
FE63: FF                                DB      0FFh
FE64: FF                                DB      0FFh
FE65: FF                                DB      0FFh
FE66: FF                                DB      0FFh
FE67: FF                                DB      0FFh
FE68: FF                                DB      0FFh
FE69: FF                                DB      0FFh
FE6A: FF                                DB      0FFh
FE6B: FF                                DB      0FFh
FE6C: FF                                DB      0FFh
FE6D: FF                                DB      0FFh
FE6E: FF                                DB      0FFh
FE6F: FF                                DB      0FFh
FE70: FF                                DB      0FFh
FE71: FF                                DB      0FFh
FE72: FF                                DB      0FFh
FE73: FF                                DB      0FFh
FE74: FF                                DB      0FFh
FE75: FF                                DB      0FFh
FE76: FF                                DB      0FFh
FE77: FF                                DB      0FFh
FE78: FF                                DB      0FFh
FE79: FF                                DB      0FFh
FE7A: FF                                DB      0FFh
FE7B: FF                                DB      0FFh
FE7C: FF                                DB      0FFh
FE7D: FF                                DB      0FFh
FE7E: FF                                DB      0FFh
FE7F: FF                                DB      0FFh
FE80: FF                                DB      0FFh
FE81: FF                                DB      0FFh
FE82: FF                                DB      0FFh
FE83: FF                                DB      0FFh
FE84: FF                                DB      0FFh
FE85: FF                                DB      0FFh
FE86: FF                                DB      0FFh
FE87: FF                                DB      0FFh
FE88: FF                                DB      0FFh
FE89: FF                                DB      0FFh
FE8A: FF                                DB      0FFh
FE8B: FF                                DB      0FFh
FE8C: FF                                DB      0FFh
FE8D: FF                                DB      0FFh
FE8E: FF                                DB      0FFh
FE8F: FF                                DB      0FFh
FE90: FF                                DB      0FFh
FE91: FF                                DB      0FFh
FE92: FF                                DB      0FFh
FE93: FF                                DB      0FFh
FE94: FF                                DB      0FFh
FE95: FF                                DB      0FFh
FE96: FF                                DB      0FFh
FE97: FF                                DB      0FFh
FE98: FF                                DB      0FFh
FE99: FF                                DB      0FFh
FE9A: FF                                DB      0FFh
FE9B: FF                                DB      0FFh
FE9C: FF                                DB      0FFh
FE9D: FF                                DB      0FFh
FE9E: FF                                DB      0FFh
FE9F: FF                                DB      0FFh
FEA0: FF                                DB      0FFh
FEA1: FF                                DB      0FFh
FEA2: FF                                DB      0FFh
FEA3: FF                                DB      0FFh
FEA4: FF                                DB      0FFh
FEA5: FF                                DB      0FFh
FEA6: FF                                DB      0FFh
FEA7: FF                                DB      0FFh
FEA8: FF                                DB      0FFh
FEA9: FF                                DB      0FFh
FEAA: FF                                DB      0FFh
FEAB: FF                                DB      0FFh
FEAC: FF                                DB      0FFh
FEAD: FF                                DB      0FFh
FEAE: FF                                DB      0FFh
FEAF: FF                                DB      0FFh
FEB0: FF                                DB      0FFh
FEB1: FF                                DB      0FFh
FEB2: FF                                DB      0FFh
FEB3: FF                                DB      0FFh
FEB4: FF                                DB      0FFh
FEB5: FF                                DB      0FFh
FEB6: FF                                DB      0FFh
FEB7: FF                                DB      0FFh
FEB8: FF                                DB      0FFh
FEB9: FF                                DB      0FFh
FEBA: FF                                DB      0FFh
FEBB: FF                                DB      0FFh
FEBC: FF                                DB      0FFh
FEBD: FF                                DB      0FFh
FEBE: FF                                DB      0FFh
FEBF: FF                                DB      0FFh
FEC0: FF                                DB      0FFh
FEC1: FF                                DB      0FFh
FEC2: FF                                DB      0FFh
FEC3: FF                                DB      0FFh
FEC4: FF                                DB      0FFh
FEC5: FF                                DB      0FFh
FEC6: FF                                DB      0FFh
FEC7: FF                                DB      0FFh
FEC8: FF                                DB      0FFh
FEC9: FF                                DB      0FFh
FECA: FF                                DB      0FFh
FECB: FF                                DB      0FFh
FECC: FF                                DB      0FFh
FECD: FF                                DB      0FFh
FECE: FF                                DB      0FFh
FECF: FF                                DB      0FFh
FED0: FF                                DB      0FFh
FED1: FF                                DB      0FFh
FED2: FF                                DB      0FFh
FED3: FF                                DB      0FFh
FED4: FF                                DB      0FFh
FED5: FF                                DB      0FFh
FED6: FF                                DB      0FFh
FED7: FF                                DB      0FFh
FED8: FF                                DB      0FFh
FED9: FF                                DB      0FFh
FEDA: FF                                DB      0FFh
FEDB: FF                                DB      0FFh
FEDC: FF                                DB      0FFh
FEDD: FF                                DB      0FFh
FEDE: FF                                DB      0FFh
FEDF: FF                                DB      0FFh
FEE0: FF                                DB      0FFh
FEE1: FF                                DB      0FFh
FEE2: FF                                DB      0FFh
FEE3: FF                                DB      0FFh
FEE4: FF                                DB      0FFh
FEE5: FF                                DB      0FFh
FEE6: FF                                DB      0FFh
FEE7: FF                                DB      0FFh
FEE8: FF                                DB      0FFh
FEE9: FF                                DB      0FFh
FEEA: FF                                DB      0FFh
FEEB: FF                                DB      0FFh
FEEC: FF                                DB      0FFh
FEED: FF                                DB      0FFh
FEEE: FF                                DB      0FFh
FEEF: FF                                DB      0FFh
FEF0: FF                                DB      0FFh
FEF1: FF                                DB      0FFh
FEF2: FF                                DB      0FFh
FEF3: FF                                DB      0FFh
FEF4: FF                                DB      0FFh
FEF5: FF                                DB      0FFh
FEF6: FF                                DB      0FFh
FEF7: FF                                DB      0FFh
FEF8: FF                                DB      0FFh
FEF9: FF                                DB      0FFh
FEFA: FF                                DB      0FFh
FEFB: FF                                DB      0FFh
FEFC: FF                                DB      0FFh
FEFD: FF                                DB      0FFh
FEFE: FF                                DB      0FFh
FEFF: FF                                DB      0FFh
FF00: FF                                DB      0FFh
FF01: FF                                DB      0FFh
FF02: FF                                DB      0FFh
FF03: FF                                DB      0FFh
FF04: FF                                DB      0FFh
FF05: FF                                DB      0FFh
FF06: FF                                DB      0FFh
FF07: FF                                DB      0FFh
FF08: FF                                DB      0FFh
FF09: FF                                DB      0FFh
FF0A: FF                                DB      0FFh
FF0B: FF                                DB      0FFh
FF0C: FF                                DB      0FFh
FF0D: FF                                DB      0FFh
FF0E: FF                                DB      0FFh
FF0F: FF                                DB      0FFh
FF10: FF                                DB      0FFh
FF11: FF                                DB      0FFh
FF12: FF                                DB      0FFh
FF13: FF                                DB      0FFh
FF14: FF                                DB      0FFh
FF15: FF                                DB      0FFh
FF16: FF                                DB      0FFh
FF17: FF                                DB      0FFh
FF18: FF                                DB      0FFh
FF19: FF                                DB      0FFh
FF1A: FF                                DB      0FFh
FF1B: FF                                DB      0FFh
FF1C: FF                                DB      0FFh
FF1D: FF                                DB      0FFh
FF1E: FF                                DB      0FFh
FF1F: FF                                DB      0FFh
FF20: FF                                DB      0FFh
FF21: FF                                DB      0FFh
FF22: FF                                DB      0FFh
FF23: FF                                DB      0FFh
FF24: FF                                DB      0FFh
FF25: FF                                DB      0FFh
FF26: FF                                DB      0FFh
FF27: FF                                DB      0FFh
FF28: FF                                DB      0FFh
FF29: FF                                DB      0FFh
FF2A: FF                                DB      0FFh
FF2B: FF                                DB      0FFh
FF2C: FF                                DB      0FFh
FF2D: FF                                DB      0FFh
FF2E: FF                                DB      0FFh
FF2F: FF                                DB      0FFh
FF30: FF                                DB      0FFh
FF31: FF                                DB      0FFh
FF32: FF                                DB      0FFh
FF33: FF                                DB      0FFh
FF34: FF                                DB      0FFh
FF35: FF                                DB      0FFh
FF36: FF                                DB      0FFh
FF37: FF                                DB      0FFh
FF38: FF                                DB      0FFh
FF39: FF                                DB      0FFh
FF3A: FF                                DB      0FFh
FF3B: FF                                DB      0FFh
FF3C: FF                                DB      0FFh
FF3D: FF                                DB      0FFh
FF3E: FF                                DB      0FFh
FF3F: FF                                DB      0FFh
FF40: FF                                DB      0FFh
FF41: FF                                DB      0FFh
FF42: FF                                DB      0FFh
FF43: FF                                DB      0FFh
FF44: FF                                DB      0FFh
FF45: FF                                DB      0FFh
FF46: FF                                DB      0FFh
FF47: FF                                DB      0FFh
FF48: FF                                DB      0FFh

                                        ; Entry Point
                                        ; --- START PROC 0FF49h ---
FF49: C3 CC F7                   0FF49h:        JP      0F7CCh

                                        ; Entry Point
                                        ; --- START PROC 0FF4Ch ---
FF4C: C3 B6 F6                   0FF4Ch:        JP      0F6B6h

                                        ; Entry Point
                                        ; --- START PROC 0FF4Fh ---
FF4F: C3 E0 F5                   0FF4Fh:        JP      0F5E0h

                                        ; Entry Point
                                        ; --- START PROC 0FF52h ---
FF52: C3 6B F5                   0FF52h:        JP      0F56Bh

                                        ; Entry Point
                                        ; --- START PROC 0FF55h ---
FF55: C3 5C F5                   0FF55h:        JP      0F55Ch

                                        ; Entry Point
                                        ; --- START PROC 0FF58h ---
FF58: C3 7A F5                   0FF58h:        JP      0F57Ah

                                        ; Entry Point
                                        ; --- START PROC 0FF5Bh ---
FF5B: C3 EB F4                   0FF5Bh:        JP      0F4EBh

                                        ; Entry Point
                                        ; --- START PROC 0FF5Eh ---
FF5E: C3 D9 F1                   0FF5Eh:        JP      0F1D9h

                                        ; Referenced from 0DA92h
                                        ; --- START PROC 0FF61h ---
FF61: C3 03 E0                   0FF61h:        JP      0E003h

                                        ; Referenced from 0D9B0h
                                        ; --- START PROC 0FF64h ---
FF64: C3 41 F0                   0FF64h:        JP      0F041h

                                        ; Entry Point
                                        ; --- START PROC 0FF67h ---
FF67: C3 58 EB                   0FF67h:        JP      0EB58h

                                        ; Entry Point
                                        ; --- START PROC 0FF6Ah ---
FF6A: C3 55 EB                   0FF6Ah:        JP      0EB55h

                                        ; Entry Point
                                        ; --- START PROC 0FF6Dh ---
FF6D: C3 52 EB                   0FF6Dh:        JP      0EB52h

                                        ; Entry Point
                                        ; --- START PROC 0FF70h ---
FF70: C3 04 EB                   0FF70h:        JP      0EB04h

                                        ; Entry Point
                                        ; --- START PROC 0FF73h ---
FF73: C3 DD EA                   0FF73h:        JP      0EADDh

                                        ; Entry Point
                                        ; --- START PROC 0FF76h ---
FF76: C3 8F EA                   0FF76h:        JP      0EA8Fh

                                        ; Entry Point
                                        ; --- START PROC 0FF79h ---
FF79: C3 8D EA                   0FF79h:        JP      0EA8Dh

                                        ; Entry Point
                                        ; --- START PROC 0FF7Ch ---
FF7C: C3 58 EA                   0FF7Ch:        JP      0EA58h

                                        ; Entry Point
                                        ; --- START PROC 0FF7Fh ---
FF7F: C3 3A EA                   0FF7Fh:        JP      0EA3Ah

                                        ; Entry Point
                                        ; --- START PROC 0FF82h ---
FF82: C3 21 EA                   0FF82h:        JP      0EA21h

                                        ; Referenced from 0D98Dh
                                        ; --- START PROC 0FF85h ---
FF85: C3 09 EA                   0FF85h:        JP      0EA09h

                                        ; Referenced from 0DA45h, 0DA71h
                                        ; --- START PROC 0FF88h ---
FF88: C3 BA E9                   0FF88h:        JP      0E9BAh

                                        ; Entry Point
                                        ; --- START PROC 0FF8Bh ---
FF8B: C3 93 E9                   0FF8Bh:        JP      0E993h

                                        ; Entry Point
                                        ; --- START PROC 0FF8Eh ---
FF8E: C3 B1 E8                   0FF8Eh:        JP      0E8B1h

                                        ; Entry Point
                                        ; --- START PROC 0FF91h ---
FF91: C3 07 E8                   0FF91h:        JP      0E807h

                                        ; Entry Point
                                        ; --- START PROC 0FF94h ---
FF94: C3 D4 E6                   0FF94h:        JP      0E6D4h

                                        ; Entry Point
                                        ; --- START PROC 0FF97h ---
FF97: C3 78 E7                   0FF97h:        JP      0E778h

                                        ; Entry Point
                                        ; --- START PROC 0FF9Ah ---
FF9A: C3 02 E7                   0FF9Ah:        JP      0E702h

                                        ; Entry Point
                                        ; --- START PROC 0FF9Dh ---
FF9D: C3 22 E6                   0FF9Dh:        JP      0E622h

                                        ; Entry Point
                                        ; --- START PROC 0FFA0h ---
FFA0: C3 17 E6                   0FFA0h:        JP      0E617h

                                        ; Entry Point
                                        ; --- START PROC 0FFA3h ---
FFA3: C3 FD E5                   0FFA3h:        JP      0E5FDh

                                        ; Entry Point
                                        ; --- START PROC 0FFA6h ---
FFA6: C3 F2 E5                   0FFA6h:        JP      0E5F2h

                                        ; Entry Point
                                        ; --- START PROC 0FFA9h ---
FFA9: C3 51 E6                   0FFA9h:        JP      0E651h

                                        ; Entry Point
                                        ; --- START PROC 0FFACh ---
FFAC: C3 B8 E6                   0FFACh:        JP      0E6B8h

                                        ; Entry Point
                                        ; --- START PROC 0FFAFh ---
FFAF: C3 A3 E6                   0FFAFh:        JP      0E6A3h

                                        ; Entry Point
                                        ; --- START PROC 0FFB2h ---
FFB2: C3 97 E5                   0FFB2h:        JP      0E597h

                                        ; Entry Point
                                        ; --- START PROC 0FFB5h ---
FFB5: C3 A1 E5                   0FFB5h:        JP      0E5A1h

                                        ; Entry Point
                                        ; --- START PROC 0FFB8h ---
FFB8: C3 29 E5                   0FFB8h:        JP      0E529h

                                        ; Entry Point
                                        ; --- START PROC 0FFBBh ---
FFBB: C3 E5 E4                   0FFBBh:        JP      0E4E5h

                                        ; Entry Point
                                        ; --- START PROC 0FFBEh ---
FFBE: C3 CF E4                   0FFBEh:        JP      0E4CFh

                                        ; Entry Point
                                        ; --- START PROC 0FFC1h ---
FFC1: C3 AC E4                   0FFC1h:        JP      0E4ACh

                                        ; Entry Point
                                        ; --- START PROC 0FFC4h ---
FFC4: C3 77 E4                   0FFC4h:        JP      0E477h

                                        ; Entry Point
                                        ; --- START PROC 0FFC7h ---
FFC7: C3 69 E3                   0FFC7h:        JP      0E369h

                                        ; Entry Point
                                        ; --- START PROC 0FFCAh ---
FFCA: C3 5E E3                   0FFCAh:        JP      0E35Eh

                                        ; Referenced from 0DA8Ch
                                        ; --- START PROC 0FFCDh ---
FFCD: C3 5B E3                   0FFCDh:        JP      0E35Bh

                                        ; Entry Point
                                        ; --- START PROC 0FFD0h ---
FFD0: C3 58 E3                   0FFD0h:        JP      0E358h

                                        ; Entry Point
                                        ; --- START PROC 0FFD3h ---
FFD3: C3 49 E3                   0FFD3h:        JP      0E349h

                                        ; Entry Point
                                        ; --- START PROC 0FFD6h ---
FFD6: C3 3E E3                   0FFD6h:        JP      0E33Eh

                                        ; Entry Point
                                        ; --- START PROC 0FFD9h ---
FFD9: C3 28 E3                   0FFD9h:        JP      0E328h

                                        ; Entry Point
                                        ; --- START PROC 0FFDCh ---
FFDC: C3 12 E3                   0FFDCh:        JP      0E312h

                                        ; Entry Point
                                        ; --- START PROC 0FFDFh ---
FFDF: C3 F5 E2                   0FFDFh:        JP      0E2F5h

                                        ; Referenced from 0DA6Eh
                                        ; --- START PROC 0FFE2h ---
FFE2: C3 C0 E0                   0FFE2h:        JP      0E0C0h

                                        ; Entry Point
                                        ; --- START PROC 0FFE5h ---
FFE5: C3 BD E0                   0FFE5h:        JP      0E0BDh

                                        ; Entry Point
                                        ; --- START PROC 0FFE8h ---
FFE8: C3 6F EC                   0FFE8h:        JP      0EC6Fh

                                        ; Entry Point
                                        ; --- START PROC 0FFEBh ---
FFEB: C3 80 EC                   0FFEBh:        JP      0EC80h

                                        ; Referenced from 0D990h, 0DA75h
                                        ; --- START PROC 0FFEEh ---
FFEE: C3 8A EC                   0FFEEh:        JP      0EC8Ah

                                        ; Referenced from 0D9E6h, 0DA06h
                                        ; --- START PROC 0FFF1h ---
FFF1: C3 22 EC                   0FFF1h:        JP      0EC22h

                                        ; Referenced from 0D94Ch
                                        ; --- START PROC 0FFF4h ---
FFF4: C3 00 EC                   0FFF4h:        JP      0EC00h

                                        ; Entry Point
                                        ; --- START PROC 0FFF7h ---
FFF7: C3 98 EC                   0FFF7h:        JP      0EC98h

                                        ; Entry Point
                                        ; --- START PROC 0FFFAh ---
FFFA: C3 40 EC                   0FFFAh:        JP      0EC40h

                                        ; Entry Point
                                        ; --- START PROC 0FFFDh ---
FFFD: C3 4B EC                   0FFFDh:        JP      0EC4Bh


references to external address 0039h:
        0F2EAh LD (0039h),HL

references to external address 0070h:
        0ED12h LD (0070h),HL

references to external address 0072h:
        0E120h LD (0072h),HL
        0E196h LD (0072h),HL

references to external address 0080h:
        0ECD4h LD (0080h),HL
        0EED6h LD HL,(0080h)
        0EEDFh LD (0080h),HL
        0EF09h LD DE,0080h
        0EF5Ch LD HL,(0080h)

references to external address 0082h:
        0ECD7h LD (0082h),SP
        0EF62h LD SP,(0082h)

references to external address 0084h:
        0ECD0h LD (0084h),HL
        0EF4Fh LD HL,(0084h)

references to external address 0086h:
        0ECE3h LD (0086h),BC
        0EF54h LD BC,(0086h)

references to external address 0088h:
        0ECE7h LD (0088h),DE
        0EF58h LD DE,(0088h)

references to external address 008Ah:
        0ECCCh LD (008Ah),HL
        0EF66h LD HL,(008Ah)

references to external address 008Ch:
        0ECFFh LD (008Ch),IX
        0EF12h LD DE,008Ch
        0EF47h LD IX,(008Ch)

references to external address 008Eh:
        0ED03h LD (008Eh),IY
        0EF4Bh LD IY,(008Eh)

references to external address 0090h:
        0ECEEh LD (0090h),HL
        0EF31h LD HL,(0090h)

references to external address 0092h:
        0ECF3h LD (0092h),BC
        0EF38h LD BC,(0092h)

references to external address 0094h:
        0ECF7h LD (0094h),DE
        0EF3Ch LD DE,(0094h)

references to external address 0096h:
        0ECFBh LD (0096h),HL
        0EF40h LD HL,(0096h)

references to external address 0098h:
        0EA92h LD HL,0098h
        0EC98h LD A,(0098h)
        0ECA1h LD (0098h),A
        0ECB6h LD A,(0098h)
        0ECC5h LD (0098h),A
        0ED15h LD HL,0098h
        0ED87h LD A,(0098h)
        0EDA4h LD A,(0098h)
        0EE92h LD A,(0098h)
        0EEAAh LD A,(0098h)
        0EEB4h LD A,(0098h)
        0F194h LD HL,0098h

references to external address 0099h:
        0EEA2h JP 0099h
        0EF69h JP 0099h

references to external address 009Ah:
        0EDC5h LD HL,(009Ah)
        0EDF5h LD DE,009Ah
        0EE02h LD IX,009Ah
        0EE47h LD DE,(009Ah)
        0EE51h LD (009Ah),DE
        0EE65h LD DE,(009Ah)
        0EE72h LD IX,009Ah
        0EE7Eh LD DE,009Ah
        0EE86h LD IX,009Ah
        0EEBDh LD HL,(009Ah)
        0EEC2h LD (009Ah),HL
        0EF5Fh LD (009Ah),HL

references to external address 00B0h:
        0E8CAh LD (00B0h),BC
        0E942h LD DE,(00B0h)
        0E98Dh LD HL,(00B0h)

references to external address 00B2h:
        0E1B0h LD (00B2h),HL
        0E1BEh LD (00B2h),HL
        0E1C8h LD (00B2h),HL
        0E241h LD (00B2h),A
        0E24Fh LD (00B2h),A
        0E2F6h LD DE,(00B2h)
        0EA8Fh LD (00B2h),A
        0EAD4h LD (00B2h),HL
        0F188h LD (00B2h),HL

references to external address 00B3h:
        0E1E7h LD (00B3h),A
        0E300h LD A,(00B3h)
        0EAA1h LD (00B3h),A
        0EAC8h LD (00B3h),A

references to external address 00B4h:
        0E819h LD (00B4h),A
        0E84Fh LD A,(00B4h)
        0E85Dh LD A,(00B4h)
        0E864h LD (00B4h),A
        0E90Ch LD (00B4h),A
        0E920h LD A,(00B4h)
        0E955h LD A,(00B4h)
        0E95Dh LD (00B4h),A

references to external address 00B5h:
        0E85Ah LD (00B5h),A
        0E86Ch LD HL,00B5h
        0E8DCh LD (00B5h),A
        0E970h LD A,(00B5h)

references to external address 00B6h:
        0D19Bh LD A,(00B6h)
        0D679h LD A,(00B6h)
        0E371h LD (00B6h),A
        0E387h LD (00B6h),A

references to external address 00B7h:
        0E35Eh LD (00B7h),DE
        0E36Dh LD HL,(00B7h)
        0E392h LD HL,(00B7h)
        0E3C9h LD DE,(00B7h)

references to external address 00B9h:
        0E366h LD (00B9h),A
        0E369h LD A,(00B9h)
        0E395h LD A,(00B9h)
        0E3B8h LD A,(00B9h)
        0E3DBh LD A,(00B9h)

references to external address 00BDh:
        0E052h LD BC,(00BDh)
        0E218h LD BC,(00BDh)

references to external address 00BFh:
        0E05Ch LD BC,(00BFh)
        0E222h LD BC,(00BFh)
        0E2B1h LD (00BFh),HL

references to external address 00C1h:
        0E04Fh LD HL,(00C1h)
        0E21Ch LD HL,(00C1h)

references to external address 00C3h:
        0E059h LD HL,(00C3h)
        0E226h LD HL,(00C3h)
        0E2B7h LD (00C3h),DE

references to external address 00C5h:
        0E072h LD HL,(00C5h)
        0E095h LD HL,(00C5h)
        0F2B0h LD HL,(00C5h)
        0F2F0h LD (00C5h),HL

references to external address 00C7h:
        0E044h LD HL,00C7h
        0E066h LD HL,00C7h
        0E180h LD A,(00C7h)
        0E184h LD (00C7h),A
        0E1B4h LD (00C7h),A
        0E1FFh LD (00C7h),A
        0E212h LD HL,00C7h
        0E22Ch LD HL,00C7h
        0E270h LD A,(00C7h)
        0E274h LD (00C7h),A
        0E6EDh LD HL,00C7h
        0E768h LD HL,00C7h

references to external address 00C8h:
        0E278h LD (00C8h),A
        0E283h LD A,(00C8h)
        0E287h LD (00C8h),A
        0EADFh LD (00C8h),A
        0EAEDh LD HL,00C8h

references to external address 00C9h:
        0E10Eh LD (00C9h),A
        0E127h LD (00C9h),A
        0E134h LD A,(00C9h)
        0E14Ch LD (00C9h),A
        0E15Ch LD A,(00C9h)
        0EB08h LD IX,00C9h

references to external address 00CAh:
        0E100h LD A,(00CAh)
        0E104h LD (00CAh),A
        0E115h LD A,(00CAh)
        0E124h LD (00CAh),A
        0E12Ah LD A,(00CAh)
        0E12Eh LD (00CAh),A
        0E13Bh LD A,(00CAh)
        0E149h LD (00CAh),A
        0E152h LD A,(00CAh)
        0E156h LD (00CAh),A
        0E164h LD A,(00CAh)
        0E1B7h LD (00CAh),A

references to external address 00CBh:
        0E1EEh LD (00CBh),A
        0E1F6h LD (00CBh),A
        0E236h LD (00CBh),A
        0E23Eh LD A,(00CBh)
        0E280h LD (00CBh),A
        0E290h LD (00CBh),A
        0E6F6h LD (00CBh),A

references to external address 00CDh:
        0E4F0h LD (00CDh),A
        0E533h LD (00CDh),A
        0E557h LD A,(00CDh)

references to external address 00CEh:
        0E454h LD (00CEh),A
        0E461h LD A,(00CEh)
        0E469h LD (00CEh),A

references to external address 00CFh:
        0E599h LD (00CFh),A
        0E5A2h LD (00CFh),A
        0E5D5h LD A,(00CFh)
        0F05Dh LD (00CFh),A
        0F095h LD (00CFh),A
        0F0A1h LD A,(00CFh)
        0F0BAh LD (00CFh),A

references to external address 00D0h:
        0DA03h LD HL,00D0h
        0DA11h LD HL,00D0h
        0E5CCh LD DE,00D0h
        0E66Bh LD DE,00D0h
        0E684h LD DE,00D0h
        0E68Eh LD DE,00D0h
        0E824h LD DE,00D0h
        0E837h LD A,(00D0h)
        0E83Dh LD DE,00D0h
        0E888h LD HL,00D0h
        0E895h LD A,(00D0h)
        0E93Ch LD (00D0h),A
        0E93Fh LD HL,00D0h
        0F0DEh LD DE,00D0h
        0F0FBh LD HL,00D0h

references to external address 00D2h:
        0E89Eh LD HL,00D2h
        0F1EDh LD HL,00D2h
        0F20Ah LD DE,00D2h
        0F227h LD DE,00D2h
        0F5E3h LD (00D2h),DE
        0F5EFh LD HL,(00D2h)
        0F622h LD DE,(00D2h)
        0F69Ch LD DE,(00D2h)
        0F6B6h LD (00D2h),DE
        0F6CDh LD HL,(00D2h)
        0F7AFh LD DE,(00D2h)
        0F7C7h LD DE,(00D2h)
        0F7CFh LD (00D2h),DE
        0F806h LD DE,(00D2h)

references to external address 00D4h:
        0F5E0h LD (00D4h),HL
        0F6A7h LD HL,(00D4h)
        0F6BAh LD (00D4h),HL
        0F6DBh LD HL,(00D4h)
        0F7B8h LD DE,(00D4h)
        0F7C4h LD HL,(00D4h)
        0F7CCh LD (00D4h),HL
        0F7DFh LD HL,(00D4h)
        0F803h LD HL,(00D4h)

references to external address 00DBh:
        0F58Fh LD HL,00DBh
        0F63Ah LD HL,00DBh
        0F649h LD HL,00DBh
        0F6E6h LD HL,00DBh
        0F6F8h LD HL,00DBh
        0F70Eh LD HL,00DBh
        0F795h LD HL,00DBh
        0F7E5h LD A,(00DBh)

references to external address 00DCh:
        0F0E5h LD DE,00DCh
        0F128h LD A,(00DCh)
        0F5E7h LD DE,00DCh
        0F654h LD DE,00DCh
        0F6C1h LD HL,00DCh
        0F72Dh LD HL,00DCh
        0F743h LD HL,00DCh

references to external address 00EEh:
        0F4FAh LD (00EEh),A
        0F50Ah LD A,(00EEh)
        0F51Fh LD (00EEh),A
        0F57Dh LD (00EEh),A
        0F5C4h LD A,(00EEh)
        0F5C8h LD (00EEh),A
        0F606h LD (00EEh),A
        0F612h LD A,(00EEh)
        0F617h LD (00EEh),A
        0F67Fh LD A,(00EEh)
        0F683h LD (00EEh),A
        0F724h LD (00EEh),A
        0F751h LD A,(00EEh)
        0F759h LD (00EEh),A

references to external address 00EFh:
        0F4F0h LD (00EFh),A
        0F512h LD A,(00EFh)
        0F5FBh LD (00EFh),A
        0F635h LD (00EFh),A
        0F688h LD A,(00EFh)
        0F6BEh LD (00EFh),A
        0F76Fh LD (00EFh),A
        0F79Eh LD A,(00EFh)

references to external address 00F0h:
        0D941h LD (00F0h),HL
        0D9BAh LD A,(00F0h)
        0D9BFh LD (00F0h),A
        0D9C9h LD DE,(00F0h)
        0D9D2h LD HL,(00F0h)
        0D9E9h LD HL,(00F0h)
        0D9F4h LD HL,(00F0h)
        0D9FCh LD HL,(00F0h)
        0DA48h LD HL,(00F0h)
        0DA4Fh LD (00F0h),HL
        0F6EAh LD (00F0h),A
        0F78Dh LD HL,00F0h

references to external address 00F1h:
        0E580h LD HL,(00F1h)
        0E589h LD (00F1h),HL

references to external address 00F2h:
        0D93Eh LD HL,(00F2h)
        0D947h LD DE,00F2h
        0D94Fh LD HL,(00F2h)
        0D955h LD (00F2h),HL
        0D9C5h LD HL,(00F2h)

references to external address 00F3h:
        0E548h LD (00F3h),HL
        0E578h LD DE,(00F3h)

references to external address 00F4h:
        0D95Bh LD A,(00F4h)
        0D9B3h LD A,(00F4h)
        0F28Fh LD A,(00F4h)
        0F2A4h LD A,(00F4h)

references to external address 00F5h:
        0E52Ah LD (00F5h),A
        0E54Bh LD HL,00F5h
        0E571h LD A,(00F5h)
        0E584h LD (00F5h),A
        0E58Ch LD HL,00F5h
        0F29Dh LD A,(00F5h)

references to external address 00F6h:
        0E820h LD (00F6h),HL
        0E830h LD HL,(00F6h)
        0E84Ah LD HL,(00F6h)
        0E856h LD (00F6h),HL
        0E867h LD DE,(00F6h)
        0E87Eh LD (00F6h),DE
        0E8C3h LD (00F6h),HL
        0E90Fh LD DE,(00F6h)
        0E919h LD HL,(00F6h)
        0E94Eh LD DE,(00F6h)
        0E978h LD HL,(00F6h)

references to external address 00F7h:
        0D9D6h LD (00F7h),A
        0D9DFh LD DE,00F7h

references to external address 00F8h:
        0D9DAh LD (00F8h),A
        0E81Ch LD (00F8h),DE
        0E82Ah LD HL,(00F8h)
        0E840h LD HL,(00F8h)
        0E88Bh LD DE,(00F8h)
        0E8C6h LD (00F8h),DE
        0E8E1h LD HL,(00F8h)
        0E8EEh LD HL,(00F8h)
        0E913h LD HL,(00F8h)
        0E94Bh LD HL,(00F8h)
        0E960h LD HL,(00F8h)
        0E981h LD HL,(00F8h)

references to external address 00FAh:
        0D76Fh LD (00FAh),HL
        0E6E3h LD HL,(00FAh)
        0E702h LD HL,(00FAh)
        0E736h LD HL,(00FAh)

references to external address 00FCh:
        0D769h LD (00FCh),HL
        0E6E6h LD BC,(00FCh)
        0E705h LD DE,(00FCh)

references to external address 00FEh:
        0D794h LD (00FEh),BC
        0E721h LD BC,(00FEh)
        0E73Eh LD BC,(00FEh)

references to external address 0100h:
        0D187h LD BC,0100h
        0D772h LD (0100h),HL
        0D96Bh LD BC,0100h
        0E6DBh LD HL,(0100h)
        0E711h LD DE,(0100h)
        0E71Dh LD DE,(0100h)
        0E727h LD (0100h),DE
        0E739h LD (0100h),HL
        0E742h LD DE,(0100h)
        0E751h LD HL,(0100h)

references to external address 0102h:
        0D776h LD (0102h),A
        0E6D4h LD A,(0102h)
        0E70Ah LD A,(0102h)

references to external address 0103h:
        0D782h LD (0103h),HL
        0D785h LD HL,(0103h)
        0D79Bh LD HL,(0103h)
        0D7A2h LD (0103h),DE
        0E71Ah LD HL,(0103h)

references to external address 0105h:
        0D77Ch LD (0105h),HL
        0E72Bh LD HL,(0105h)
        0E72Fh LD (0105h),HL

references to external address 0107h:
        0D7ECh LD (0107h),HL
        0E75Bh LD HL,(0107h)
        0E786h LD HL,(0107h)
        0E7C8h LD HL,(0107h)

references to external address 0109h:
        0D7F2h LD (0109h),HL
        0E75Eh LD BC,(0109h)
        0E7CBh LD BC,(0109h)

references to external address 010Bh:
        0D817h LD BC,(010Bh)
        0E7AAh LD (010Bh),HL
        0E7C1h LD BC,(010Bh)

references to external address 010Dh:
        0D7FCh LD (010Dh),HL
        0E778h LD HL,(010Dh)
        0E789h LD (010Dh),HL
        0E78Ch LD HL,(010Dh)
        0E7B6h LD (010Dh),HL

references to external address 010Fh:
        0D7F6h LD (010Fh),A
        0E793h LD A,(010Fh)

references to external address 0110h:
        0D805h LD (0110h),HL
        0D80Eh LD HL,(0110h)
        0D81Eh LD (0110h),HL
        0E78Fh LD DE,(0110h)
        0E7A3h LD BC,(0110h)

references to external address 0112h:
        0D752h LD BC,(0112h)
        0D7FFh LD (0112h),HL
        0E7B9h LD HL,(0112h)
        0E7BDh LD (0112h),HL

references to external address 0114h:
        0D7E6h LD (0114h),HL
        0E76Ch LD HL,(0114h)

references to external address 011Ah:
        0D970h LD (011Ah),HL
        0D9E2h LD HL,(011Ah)
        0D9ECh LD HL,(011Ah)
        0DA09h LD HL,(011Ah)
        0DA22h LD HL,(011Ah)
        0DA40h LD HL,(011Ah)
        0DA5Eh LD HL,(011Ah)
        0DA63h LD HL,(011Ah)

references to external address 011Ch:
        0D973h LD (011Ch),HL
        0E9BAh LD HL,(011Ch)
        0E9CEh LD HL,(011Ch)
        0E9E5h LD HL,(011Ch)
        0E9F8h LD HL,(011Ch)
        0EA09h LD HL,(011Ch)
        0EA1Bh LD HL,(011Ch)

references to external address 011Eh:
        0D979h LD (011Eh),HL
        0EA72h LD (011Eh),HL
        0EA76h LD HL,(011Eh)
        0EA89h LD (011Eh),HL

references to external address 0120h:
        0D97Eh LD (0120h),A
        0E9D3h LD A,(0120h)
        0EA12h LD A,(0120h)

references to external address 0121h:
        0EA3Eh LD A,(0121h)
        0F1F7h LD A,(0121h)
        0F260h LD A,(0121h)
        0F293h LD (0121h),A
        0F2DDh LD (0121h),A

references to external address 0122h:
        0EA34h LD A,(0122h)
        0F298h LD (0122h),A
        0F2E2h LD (0122h),A

references to external address 0123h:
        0D982h LD (0123h),A
        0DA58h LD A,(0123h)
        0E9C6h LD A,(0123h)
        0EA2Bh LD A,(0123h)
        0EA2Fh LD (0123h),A
        0EA3Ah LD A,(0123h)
        0EA48h LD A,(0123h)
        0EA4Ch LD (0123h),A
        0EA54h LD (0123h),A

references to external address 0124h:
        0D985h LD A,(0124h)
        0D98Ah LD (0124h),A
        0EA02h LD HL,0124h
        0EA58h LD HL,0124h
        0F1E7h LD A,(0124h)
        0F250h LD A,(0124h)
        0F255h LD (0124h),A
        0F2D8h LD (0124h),A

references to external address 0125h:
        0F015h LD DE,0125h
        0F01Dh LD A,(0125h)
        0F04Ch LD A,(0125h)
        0F086h LD A,(0125h)
        0F0BFh LD A,(0125h)
        0F0EFh LD A,(0125h)
        0F103h LD A,(0125h)
        0F133h LD A,(0125h)
        0F1BEh LD A,(0125h)

references to external address 0126h:
        0F064h LD A,(0126h)
        0F1CDh LD BC,(0126h)

references to external address 0127h:
        0F060h LD HL,(0127h)
        0F0C7h LD HL,(0127h)
        0F14Eh LD HL,(0127h)
        0F1C9h LD DE,(0127h)

references to external address 0129h:
        0F0CCh LD DE,(0129h)
        0F0EBh LD HL,(0129h)
        0F1B5h LD HL,(0129h)

references to external address 012Bh:
        0F17Fh LD HL,(012Bh)
        0F18Bh LD HL,(012Bh)

references to external address 012Dh:
        0F13Eh LD HL,(012Dh)

references to external address 012Fh:
        0F00Eh LD HL,(012Fh)
        0F02Ah LD (012Fh),HL
        0F033h LD (012Fh),HL
        0F042h LD (012Fh),HL

references to external address 0131h:
        0D184h LD HL,(0131h)
        0D968h LD HL,(0131h)
        0E003h LD SP,(0131h)
        0F21Fh LD HL,0131h
        0F2D3h LD (0131h),HL

references to external address 0200h:
        0D17Eh LD (0200h),HL
        0D1E6h LD HL,(0200h)
        0D20Eh LD (0200h),HL
        0D24Bh LD (0200h),HL
        0D2A0h LD HL,(0200h)
        0D317h LD HL,(0200h)
        0D3BCh LD DE,(0200h)
        0D3C6h LD (0200h),HL
        0D3D7h LD DE,(0200h)
        0D3EDh LD DE,(0200h)
        0D41Fh LD DE,(0200h)
        0D442h LD HL,(0200h)
        0D44Fh LD (0200h),DE
        0D564h LD DE,(0200h)
        0D595h LD BC,(0200h)
        0D802h LD HL,(0200h)
        0D821h LD (0200h),HL

references to external address 0202h:
        0D181h LD (0202h),HL
        0D1E9h LD DE,(0202h)
        0D20Bh LD HL,(0202h)
        0D2FCh LD HL,(0202h)
        0D342h LD HL,(0202h)
        0D592h LD HL,(0202h)
        0D5A6h LD HL,(0202h)
        0D60Fh LD HL,(0202h)
        0D645h LD HL,(0202h)
        0D77Fh LD HL,(0202h)

references to external address 0204h:
        0D18Ch LD (0204h),HL
        0D3EAh LD HL,(0204h)

references to external address 0206h:
        0D164h LD HL,0206h
        0D217h LD (0206h),HL
        0D235h LD (0206h),HL
        0D257h LD A,(0206h)
        0D2B6h LD (0206h),HL
        0D2BBh LD (0206h),DE
        0D2CBh LD HL,(0206h)
        0D2F8h LD DE,(0206h)
        0D305h LD (0206h),DE
        0D31Ah LD (0206h),HL
        0D346h LD (0206h),HL
        0D351h LD HL,(0206h)
        0D361h LD HL,(0206h)
        0D37Ch LD IY,(0206h)
        0D3A5h LD (0206h),HL
        0D3AEh LD DE,(0206h)
        0D3B4h LD HL,(0206h)
        0D3CBh LD BC,(0206h)
        0D41Ch LD (0206h),HL
        0D426h LD DE,(0206h)
        0D437h LD HL,(0206h)
        0D45Ah LD HL,(0206h)
        0D471h LD HL,0206h
        0D4E8h LD HL,(0206h)
        0D505h LD HL,(0206h)
        0D54Fh LD HL,(0206h)
        0D56Fh LD (0206h),HL
        0D5AFh LD (0206h),HL
        0D5BCh LD HL,(0206h)
        0D666h LD (0206h),HL
        0D68Bh LD (0206h),HL
        0D6C3h LD HL,(0206h)
        0D6CEh LD HL,(0206h)
        0D709h LD HL,(0206h)
        0D791h LD (0206h),HL
        0D79Eh LD DE,(0206h)
        0D7A6h LD (0206h),HL
        0D7CBh LD HL,(0206h)
        0D7D5h LD (0206h),HL
        0D814h LD (0206h),HL

references to external address 0207h:
        0D16Ah LD DE,0207h
        0D25Dh LD A,(0207h)

references to external address 0208h:
        0D214h LD (0208h),HL
        0D24Eh LD HL,(0208h)
        0D252h LD (0208h),HL
        0D466h LD HL,(0208h)
        0D46Ah LD (0208h),HL
        0D74Fh LD HL,(0208h)
        0D757h LD (0208h),HL
        0D84Dh LD HL,0208h

references to external address 020Ah:
        0D1A2h LD HL,020Ah
        0D1D7h LD A,(020Ah)
        0D22Ah LD (020Ah),A
        0D2BFh LD A,(020Ah)
        0D398h LD (020Ah),A
        0D3E4h LD (020Ah),A

references to external address 020Bh:
        0D295h LD (020Bh),A
        0D2E3h LD A,(020Bh)
        0D2E7h LD (020Bh),A
        0D34Bh LD (020Bh),A
        0D393h LD (020Bh),A

references to external address 020Ch:
        0D35Dh LD A,(020Ch)
        0D38Eh LD (020Ch),HL
        0D498h LD (020Ch),HL
        0D4B6h LD DE,(020Ch)
        0D516h LD (020Ch),BC

references to external address 020Eh:
        0D4A1h LD (020Eh),HL
        0D4ACh LD DE,(020Eh)
        0D4DFh LD HL,(020Eh)
        0D4FBh LD (020Eh),DE

references to external address 0210h:
        0D4B3h LD (0210h),HL
        0D4C4h LD DE,(0210h)
        0D4D3h LD BC,(0210h)
        0D502h LD (0210h),HL
        0D51Ah LD HL,(0210h)

references to external address 0212h:
        0D474h LD DE,0212h
        0D4A9h LD (0212h),HL
        0D4CDh LD HL,(0212h)
        0D4E2h LD DE,(0212h)
        0D508h LD (0212h),HL

references to external address 0214h:
        0D282h LD HL,0214h
        0D2DCh LD A,(0214h)
        0D2F2h LD (0214h),A

references to external address 0215h:
        0D5A3h LD (0215h),A
        0D5C4h LD A,(0215h)
        0D5C8h LD (0215h),A
        0D68Eh LD A,(0215h)
        0D6D8h LD A,(0215h)

references to external address 0216h:
        0D5A0h LD (0216h),A
        0D6A5h LD (0216h),A
        0D6B3h LD (0216h),A
        0D6F9h LD HL,0216h
        0D701h LD (0216h),A

references to external address 022Fh:
        0D688h LD HL,(022Fh)
        0D6D1h LD (022Fh),HL

references to external address 0231h:
        0D6CBh LD (0231h),HL
        0D6DDh LD HL,(0231h)

references to external address 0233h:
        0D6ACh LD (0233h),BC
        0D6BCh LD BC,(0233h)

references to external address 0235h:
        0D525h LD HL,(0235h)
        0D534h LD DE,(0235h)
        0D5ECh LD (0235h),DE
        0D602h LD (0235h),DE
        0D63Ch LD (0235h),DE
        0D660h LD (0235h),HL
        0D70Ch LD DE,(0235h)
        0D714h LD (0235h),DE
        0D749h LD (0235h),DE

references to external address 0237h:
        0D580h LD DE,(0237h)
        0D5F3h LD (0237h),HL
        0D663h LD HL,(0237h)

references to external address 0239h:
        0D546h LD A,(0239h)
        0D54Ah LD (0239h),A
        0D5D6h LD A,(0239h)
        0D60Ch LD (0239h),A
        0D623h LD A,(0239h)
        0D642h LD (0239h),A
        0D6A2h LD A,(0239h)
        0D6B0h LD A,(0239h)

references to external address 0258h:
        0D173h LD (0258h),A
        0D858h LD DE,0258h

references to external address 025Eh:
        0D178h LD (025Eh),A
        0D850h LD DE,025Eh

references to external address 0AB84h:
        0EEAFh LD A,(0AB84h)

references to external address 0ABA1h:
        0F277h LD (0ABA1h),HL

references to external address 0ABC4h:
        0D5F9h LD DE,0ABC4h
        0D633h LD DE,0ABC4h
        0D65Dh LD HL,0ABC4h
        0D66Bh LD (0ABC4h),A
        0D676h LD (0ABC4h),A
        0D746h LD DE,0ABC4h
        0D976h LD HL,0ABC4h
        0E358h LD DE,0ABC4h
        0EA6Fh LD HL,0ABC4h
        0EB52h LD HL,0ABC4h
        0ED42h LD HL,0ABC4h
        0ED9Bh LD A,(0ABC4h)
        0EDD9h LD A,(0ABC4h)
        0EE18h LD A,(0ABC4h)
        0EE27h LD A,(0ABC4h)
        0EE5Dh LD (0ABC4h),A
        0EE99h LD (0ABC4h),A
        0EEA5h LD A,(0ABC4h)
        0EF03h LD (0ABC4h),A
        0EF8Ah LD (0ABC4h),A

references to external address 0ABC6h:
        0D66Eh LD DE,0ABC6h
        0D681h LD A,(0ABC6h)
        0D69Ah LD DE,0ABC6h
        0D6C0h LD DE,0ABC6h
        0D6E4h LD HL,0ABC6h
        0EDFAh LD HL,0ABC6h
        0EE5Ah LD HL,0ABC6h
        0EE7Bh LD HL,0ABC6h
        0EF21h LD HL,0ABC6h
        0EF8Dh LD DE,0ABC6h

references to external address 0ABCBh:
        0EDD0h LD A,(0ABCBh)
        0EDEEh LD DE,0ABCBh
        0EE4Bh LD HL,0ABCBh
        0EE8Fh LD HL,0ABCBh
        0EEC9h LD DE,0ABCBh
        0EFBDh LD HL,0ABCBh

references to external address 0ABD2h:
        0D275h LD DE,0ABD2h
        0D27Bh LD A,(0ABD2h)
        0D4F8h LD DE,0ABD2h
        0D860h LD DE,0ABD2h

references to external address 0ABD3h:
        0D324h LD DE,0ABD3h
        0D32Ah LD A,(0ABD3h)
        0D411h LD DE,0ABD3h
        0D42Ah LD HL,0ABD3h
        0D492h LD DE,0ABD3h
        0D49Bh LD DE,0ABD3h

references to external address 0ABD4h:
        0E2A8h LD A,(0ABD4h)
        0E2BBh LD HL,0ABD4h

references to external address 0ABD5h:
        0E085h LD A,(0ABD5h)

references to external address 0ABDDh:
        0D1FDh LD DE,0ABDDh
        0D203h LD A,(0ABDDh)

references to external address 0ABE8h:
        0EEFEh LD (0ABE8h),A

references to external address 0ABE9h:
        0EEF9h LD (0ABE9h),A

references to external address 0ABEAh:
        0EEE6h LD (0ABEAh),A

references to external address 0ABFFh:
        0D521h LD (0ABFFh),A
        0EE38h LD (0ABFFh),A

possible references to internal address 0D003h:
        0D1AAh LD HL,0D003h

possible references to internal address 0D014h:
        0D21Dh LD HL,0D014h

possible references to internal address 0D039h:
        0D869h LD HL,0D039h

possible references to internal address 0D113h:
        0D1F5h LD HL,0D113h

possible references to internal address 0D12Ah:
        0D263h LD HL,0D12Ah

possible references to internal address 0D13Bh:
        0D2A8h LD HL,0D13Bh

possible references to internal address 0D146h:
        0D3FAh LD HL,0D146h

possible references to internal address 0D153h:
        0D636h LD HL,0D153h

possible references to internal address 0D15Dh:
        0D5FCh LD HL,0D15Dh

possible references to internal address 0D192h:
        0D406h LD HL,0D192h
        ----------
        0D208h JP NZ,0D192h
        0D22Dh JP 0D192h
        0D26Fh JP 0D192h
        0D2EDh JP 0D192h
        0D2F5h JP 0D192h
        0D3E7h JP 0D192h
        0D871h JP 0D192h

possible references to internal address 0D83Ch:
        0D7E3h LD HL,0D83Ch

possible references to internal address 0D877h:
        0DA6Bh LD HL,0D877h

possible references to internal address 0D8CAh:
        0DA86h LD HL,0D8CAh

possible references to internal address 0D8D4h:
        0DA7Bh LD HL,0D8D4h

possible references to internal address 0D8E1h:
        0D922h LD HL,0D8E1h

possible references to internal address 0D8F1h:
        0D9ADh LD HL,0D8F1h

possible references to internal address 0E099h:
        0E07Ch LD HL,0E099h

possible references to internal address 0E0D5h:
        0D83Fh LD HL,0E0D5h
        0E0DFh LD HL,0E0D5h

possible references to internal address 0E0D9h:
        0D1BAh LD HL,0E0D9h

possible references to internal address 0E0F5h:
        0D836h LD HL,0E0F5h
        0E06Ch LD HL,0E0F5h

possible references to internal address 0E0FFh:
        0E193h LD HL,0E0FFh

possible references to internal address 0E10Bh:
        0E11Dh LD HL,0E10Bh

possible references to internal address 0E147h:
        0E31Eh LD HL,0E147h
        0E334h LD HL,0E147h

possible references to internal address 0E2DDh:
        0D7BDh LD HL,0E2DDh
        0E2C9h LD HL,0E2DDh

possible references to internal address 0E2E6h:
        0E29Fh LD HL,0E2E6h

possible references to internal address 0E3E8h:
        0E37Bh LD HL,0E3E8h

possible references to internal address 0ECA5h:
        0E9ADh LD HL,0ECA5h
        0ED90h LD HL,0ECA5h
        0EFADh LD HL,0ECA5h

possible references to internal address 0ECA6h:
        0EAB4h LD HL,0ECA6h

possible references to internal address 0ECA7h:
        0D287h LD HL,0ECA7h
        0D32Dh LD HL,0ECA7h

possible references to internal address 0ECAFh:
        0EDAAh LD HL,0ECAFh

possible references to internal address 0ECB5h:
        0ED0Fh LD HL,0ECB5h

possible references to internal address 0ECE3h:
        0ECDBh LD HL,0ECE3h

possible references to internal address 0EFDBh:
        0EF79h LD HL,0EFDBh

possible references to internal address 0F000h:
        0F0AAh LD HL,0F000h

possible references to internal address 0F142h:
        0F13Ah LD HL,0F142h

possible references to internal address 0F2F9h:
        0F1E1h LD HL,0F2F9h

possible references to internal address 0F354h:
        0F235h LD HL,0F354h

possible references to internal address 0F374h:
        0F25Bh LD HL,0F374h

possible references to internal address 0F37Ch:
        0F27Ah LD HL,0F37Ch

possible references to internal address 0F384h:
        0F28Ch LD HL,0F384h

possible references to internal address 0F464h:
        0F243h LD HL,0F464h

possible references to internal address 0F467h:
        0F24Ah LD HL,0F467h

possible references to internal address 0F479h:
        0F286h LD HL,0F479h

possible references to internal address 0F48Bh:
        0F507h LD HL,0F48Bh

possible references to internal address 0F4E5h:
        0F5A8h LD HL,0F4E5h

possible references to external address 0000h:
        0D211h LD HL,0000h
        0D232h LD HL,0000h
        0D2B3h LD HL,0000h
        0D457h LD BC,0000h
        0D4D7h LD HL,0000h
        0D50Dh LD BC,0000h
        0D779h LD HL,0000h
        0D788h LD BC,0000h
        0D7D2h LD HL,0000h
        0D7F9h LD HL,0000h
        0E77Bh LD BC,0000h
        0E7B3h LD HL,0000h
        0F2BEh LD HL,0000h
        0F2EDh LD HL,0000h

possible references to external address 0001h:
        0E354h LD HL,0001h

possible references to external address 0003h:
        0EF90h LD BC,0003h
        0F240h LD BC,0003h

possible references to external address 0005h:
        0E7F5h LD BC,0005h
        0F6B0h LD BC,0005h
        0F81Bh LD BC,0005h

possible references to external address 0006h:
        0D1BDh LD BC,0006h
        0EDADh LD BC,0006h
        0F018h LD BC,0006h
        0F0FEh LD BC,0006h
        0F522h LD BC,0006h
        0F588h LD BC,0006h
        0F5BEh LD BC,0006h
        0F5EAh LD BC,0006h
        0F5F5h LD BC,0006h
        0F629h LD BC,0006h
        0F6A1h LD BC,0006h
        0F6D0h LD BC,0006h
        0F6DEh LD BC,0006h
        0F7B3h LD BC,0006h
        0F7BFh LD BC,0006h
        0F7D7h LD BC,0006h

possible references to external address 0007h:
        0D86Ch LD BC,0007h
        0DA0Ch LD DE,0007h

possible references to external address 0008h:
        0D28Ah LD BC,0008h
        0D330h LD BC,0008h

possible references to external address 0009h:
        0D7C0h LD BC,0009h
        0DA66h LD DE,0009h
        0DA83h LD BC,0009h
        0E2CCh LD BC,0009h
        0EAB7h LD BC,0009h

possible references to external address 000Ah:
        0D845h LD BC,000Ah
        0E0E2h LD BC,000Ah
        0F0ADh LD BC,000Ah

possible references to external address 000Bh:
        0D2AEh LD BC,000Bh

possible references to external address 000Ch:
        0E03Bh LD BC,000Ch

possible references to external address 000Dh:
        0D1CBh LD BC,000Dh
        0D223h LD BC,000Dh
        0D400h LD BC,000Dh
        0DA78h LD BC,000Dh

possible references to external address 0010h:
        0D1A7h LD DE,0010h
        0D9F7h LD BC,0010h
        0DA4Bh LD BC,0010h
        0ED93h LD BC,0010h
        0EFB0h LD BC,0010h

possible references to external address 0011h:
        0D269h LD BC,0011h

possible references to external address 0017h:
        0D1F8h LD BC,0017h
        0D99Bh LD BC,0017h
        0D9A8h LD BC,0017h
        0F6C8h LD BC,0017h

possible references to external address 0018h:
        0E37Eh LD BC,0018h
        0EEBAh LD DE,0018h

possible references to external address 001Eh:
        0D69Dh LD BC,001Eh
        0D6EAh LD BC,001Eh

possible references to external address 0020h:
        0DA14h LD BC,0020h

possible references to external address 0035h:
        0EDE8h LD BC,0035h

possible references to external address 0036h:
        0EECCh LD BC,0036h

possible references to external address 0038h:
        0F2E5h LD HL,0038h

possible references to external address 003Dh:
        0D9EFh LD DE,003Dh
        0DA25h LD BC,003Dh

possible references to external address 003Fh:
        0E019h LD BC,003Fh

possible references to external address 005Bh:
        0D167h LD BC,005Bh

possible references to external address 007Eh:
        0EC58h LD IX,007Eh
        0EF75h LD IX,007Eh

possible references to external address 0080h:
        0EF09h LD DE,0080h
        ----------
        0ECD4h LD (0080h),HL
        0EED6h LD HL,(0080h)
        0EEDFh LD (0080h),HL
        0EF5Ch LD HL,(0080h)

possible references to external address 008Ch:
        0EF12h LD DE,008Ch
        ----------
        0ECFFh LD (008Ch),IX
        0EF47h LD IX,(008Ch)

possible references to external address 0098h:
        0EA92h LD HL,0098h
        0ED15h LD HL,0098h
        0F194h LD HL,0098h
        ----------
        0EC98h LD A,(0098h)
        0ECA1h LD (0098h),A
        0ECB6h LD A,(0098h)
        0ECC5h LD (0098h),A
        0ED87h LD A,(0098h)
        0EDA4h LD A,(0098h)
        0EE92h LD A,(0098h)
        0EEAAh LD A,(0098h)
        0EEB4h LD A,(0098h)

possible references to external address 009Ah:
        0EDF5h LD DE,009Ah
        0EE02h LD IX,009Ah
        0EE72h LD IX,009Ah
        0EE7Eh LD DE,009Ah
        0EE86h LD IX,009Ah
        ----------
        0EDC5h LD HL,(009Ah)
        0EE47h LD DE,(009Ah)
        0EE51h LD (009Ah),DE
        0EE65h LD DE,(009Ah)
        0EEBDh LD HL,(009Ah)
        0EEC2h LD (009Ah),HL
        0EF5Fh LD (009Ah),HL

possible references to external address 009Ch:
        0EDBAh LD DE,009Ch
        0EEEBh LD HL,009Ch

possible references to external address 00B5h:
        0E86Ch LD HL,00B5h
        ----------
        0E85Ah LD (00B5h),A
        0E8DCh LD (00B5h),A
        0E970h LD A,(00B5h)

possible references to external address 00BBh:
        0E038h LD HL,00BBh
        0E203h LD HL,00BBh

possible references to external address 00C7h:
        0E044h LD HL,00C7h
        0E066h LD HL,00C7h
        0E212h LD HL,00C7h
        0E22Ch LD HL,00C7h
        0E6EDh LD HL,00C7h
        0E768h LD HL,00C7h
        ----------
        0E180h LD A,(00C7h)
        0E184h LD (00C7h),A
        0E1B4h LD (00C7h),A
        0E1FFh LD (00C7h),A
        0E270h LD A,(00C7h)
        0E274h LD (00C7h),A

possible references to external address 00C8h:
        0EAEDh LD HL,00C8h
        ----------
        0E278h LD (00C8h),A
        0E283h LD A,(00C8h)
        0E287h LD (00C8h),A
        0EADFh LD (00C8h),A

possible references to external address 00C9h:
        0EB08h LD IX,00C9h
        ----------
        0E10Eh LD (00C9h),A
        0E127h LD (00C9h),A
        0E134h LD A,(00C9h)
        0E14Ch LD (00C9h),A
        0E15Ch LD A,(00C9h)

possible references to external address 00CCh:
        0E50Bh LD DE,00CCh
        0E515h LD HL,00CCh
        0E550h LD HL,00CCh
        0E591h LD HL,00CCh

possible references to external address 00D0h:
        0DA03h LD HL,00D0h
        0DA11h LD HL,00D0h
        0E5CCh LD DE,00D0h
        0E66Bh LD DE,00D0h
        0E684h LD DE,00D0h
        0E68Eh LD DE,00D0h
        0E824h LD DE,00D0h
        0E83Dh LD DE,00D0h
        0E888h LD HL,00D0h
        0E93Fh LD HL,00D0h
        0F0DEh LD DE,00D0h
        0F0FBh LD HL,00D0h
        ----------
        0E837h LD A,(00D0h)
        0E895h LD A,(00D0h)
        0E93Ch LD (00D0h),A

possible references to external address 00D1h:
        0E924h LD HL,00D1h

possible references to external address 00D2h:
        0E89Eh LD HL,00D2h
        0F1EDh LD HL,00D2h
        0F20Ah LD DE,00D2h
        0F227h LD DE,00D2h
        ----------
        0F5E3h LD (00D2h),DE
        0F5EFh LD HL,(00D2h)
        0F622h LD DE,(00D2h)
        0F69Ch LD DE,(00D2h)
        0F6B6h LD (00D2h),DE
        0F6CDh LD HL,(00D2h)
        0F7AFh LD DE,(00D2h)
        0F7C7h LD DE,(00D2h)
        0F7CFh LD (00D2h),DE
        0F806h LD DE,(00D2h)

possible references to external address 00D5h:
        0F216h LD HL,00D5h

possible references to external address 00D6h:
        0F585h LD DE,00D6h
        0F594h LD HL,00D6h
        0F5F2h LD DE,00D6h
        0F61Ch LD HL,00D6h
        0F626h LD HL,00D6h
        0F64Ch LD DE,00D6h
        0F66Bh LD HL,00D6h
        0F674h LD HL,00D6h
        0F6D3h LD DE,00D6h
        0F6FBh LD DE,00D6h
        0F73Bh LD DE,00D6h
        0F78Ah LD DE,00D6h
        0F7BCh LD HL,00D6h
        0F7D4h LD DE,00D6h
        0F7DCh LD DE,00D6h
        0F7ECh LD HL,00D6h

possible references to external address 00D8h:
        0F1F2h LD HL,00D8h
        0F202h LD DE,00D8h
        0F21Ch LD DE,00D8h

possible references to external address 00DBh:
        0F58Fh LD HL,00DBh
        0F63Ah LD HL,00DBh
        0F649h LD HL,00DBh
        0F6E6h LD HL,00DBh
        0F6F8h LD HL,00DBh
        0F70Eh LD HL,00DBh
        0F795h LD HL,00DBh
        ----------
        0F7E5h LD A,(00DBh)

possible references to external address 00DCh:
        0F0E5h LD DE,00DCh
        0F5E7h LD DE,00DCh
        0F654h LD DE,00DCh
        0F6C1h LD HL,00DCh
        0F72Dh LD HL,00DCh
        0F743h LD HL,00DCh
        ----------
        0F128h LD A,(00DCh)

possible references to external address 00DDh:
        0F1FBh LD HL,00DDh

possible references to external address 00E1h:
        0F609h LD HL,00E1h
        0F63Dh LD DE,00E1h
        0F657h LD HL,00E1h
        0F661h LD HL,00E1h

possible references to external address 00E2h:
        0F5FEh LD HL,00E2h
        0F66Eh LD DE,00E2h
        0F68Dh LD HL,00E2h
        0F699h LD HL,00E2h
        0F6E1h LD DE,00E2h
        0F706h LD DE,00E2h
        0F738h LD HL,00E2h

possible references to external address 00E7h:
        0F693h LD HL,00E7h
        0F6EFh LD HL,00E7h
        0F703h LD HL,00E7h
        0F717h LD HL,00E7h
        0F75Fh LD HL,00E7h

possible references to external address 00E8h:
        0F746h LD DE,00E8h
        0F79Bh LD DE,00E8h
        0F7ACh LD HL,00E8h

possible references to external address 00EBh:
        0F10Dh LD HL,00EBh

possible references to external address 00EDh:
        0F7A6h LD HL,00EDh

possible references to external address 00F0h:
        0F78Dh LD HL,00F0h
        ----------
        0D941h LD (00F0h),HL
        0D9BAh LD A,(00F0h)
        0D9BFh LD (00F0h),A
        0D9C9h LD DE,(00F0h)
        0D9D2h LD HL,(00F0h)
        0D9E9h LD HL,(00F0h)
        0D9F4h LD HL,(00F0h)
        0D9FCh LD HL,(00F0h)
        0DA48h LD HL,(00F0h)
        0DA4Fh LD (00F0h),HL
        0F6EAh LD (00F0h),A

possible references to external address 00F2h:
        0D947h LD DE,00F2h
        ----------
        0D93Eh LD HL,(00F2h)
        0D94Fh LD HL,(00F2h)
        0D955h LD (00F2h),HL
        0D9C5h LD HL,(00F2h)

possible references to external address 00F5h:
        0E54Bh LD HL,00F5h
        0E58Ch LD HL,00F5h
        ----------
        0E52Ah LD (00F5h),A
        0E571h LD A,(00F5h)
        0E584h LD (00F5h),A
        0F29Dh LD A,(00F5h)

possible references to external address 00F7h:
        0D9DFh LD DE,00F7h
        ----------
        0D9D6h LD (00F7h),A

possible references to external address 00F9h:
        0E641h LD HL,00F9h

possible references to external address 0100h:
        0D187h LD BC,0100h
        0D96Bh LD BC,0100h
        ----------
        0D772h LD (0100h),HL
        0E6DBh LD HL,(0100h)
        0E711h LD DE,(0100h)
        0E71Dh LD DE,(0100h)
        0E727h LD (0100h),DE
        0E739h LD (0100h),HL
        0E742h LD DE,(0100h)
        0E751h LD HL,(0100h)

possible references to external address 0101h:
        0E1ADh LD HL,0101h

possible references to external address 0116h:
        0D927h LD DE,0116h
        0D944h LD HL,0116h
        0E7D6h LD HL,0116h
        0E7F2h LD HL,0116h

possible references to external address 0124h:
        0EA02h LD HL,0124h
        0EA58h LD HL,0124h
        ----------
        0D985h LD A,(0124h)
        0D98Ah LD (0124h),A
        0F1E7h LD A,(0124h)
        0F250h LD A,(0124h)
        0F255h LD (0124h),A
        0F2D8h LD (0124h),A

possible references to external address 0125h:
        0F015h LD DE,0125h
        ----------
        0F01Dh LD A,(0125h)
        0F04Ch LD A,(0125h)
        0F086h LD A,(0125h)
        0F0BFh LD A,(0125h)
        0F0EFh LD A,(0125h)
        0F103h LD A,(0125h)
        0F133h LD A,(0125h)
        0F1BEh LD A,(0125h)

possible references to external address 0131h:
        0F21Fh LD HL,0131h
        ----------
        0D184h LD HL,(0131h)
        0D968h LD HL,(0131h)
        0E003h LD SP,(0131h)
        0F2D3h LD (0131h),HL

possible references to external address 0206h:
        0D164h LD HL,0206h
        0D471h LD HL,0206h
        ----------
        0D217h LD (0206h),HL
        0D235h LD (0206h),HL
        0D257h LD A,(0206h)
        0D2B6h LD (0206h),HL
        0D2BBh LD (0206h),DE
        0D2CBh LD HL,(0206h)
        0D2F8h LD DE,(0206h)
        0D305h LD (0206h),DE
        0D31Ah LD (0206h),HL
        0D346h LD (0206h),HL
        0D351h LD HL,(0206h)
        0D361h LD HL,(0206h)
        0D37Ch LD IY,(0206h)
        0D3A5h LD (0206h),HL
        0D3AEh LD DE,(0206h)
        0D3B4h LD HL,(0206h)
        0D3CBh LD BC,(0206h)
        0D41Ch LD (0206h),HL
        0D426h LD DE,(0206h)
        0D437h LD HL,(0206h)
        0D45Ah LD HL,(0206h)
        0D4E8h LD HL,(0206h)
        0D505h LD HL,(0206h)
        0D54Fh LD HL,(0206h)
        0D56Fh LD (0206h),HL
        0D5AFh LD (0206h),HL
        0D5BCh LD HL,(0206h)
        0D666h LD (0206h),HL
        0D68Bh LD (0206h),HL
        0D6C3h LD HL,(0206h)
        0D6CEh LD HL,(0206h)
        0D709h LD HL,(0206h)
        0D791h LD (0206h),HL
        0D79Eh LD DE,(0206h)
        0D7A6h LD (0206h),HL
        0D7CBh LD HL,(0206h)
        0D7D5h LD (0206h),HL
        0D814h LD (0206h),HL

possible references to external address 0207h:
        0D16Ah LD DE,0207h
        ----------
        0D25Dh LD A,(0207h)

possible references to external address 0208h:
        0D84Dh LD HL,0208h
        ----------
        0D214h LD (0208h),HL
        0D24Eh LD HL,(0208h)
        0D252h LD (0208h),HL
        0D466h LD HL,(0208h)
        0D46Ah LD (0208h),HL
        0D74Fh LD HL,(0208h)
        0D757h LD (0208h),HL

possible references to external address 020Ah:
        0D1A2h LD HL,020Ah
        ----------
        0D1D7h LD A,(020Ah)
        0D22Ah LD (020Ah),A
        0D2BFh LD A,(020Ah)
        0D398h LD (020Ah),A
        0D3E4h LD (020Ah),A

possible references to external address 0212h:
        0D474h LD DE,0212h
        ----------
        0D4A9h LD (0212h),HL
        0D4CDh LD HL,(0212h)
        0D4E2h LD DE,(0212h)
        0D508h LD (0212h),HL

possible references to external address 0214h:
        0D282h LD HL,0214h
        ----------
        0D2DCh LD A,(0214h)
        0D2F2h LD (0214h),A

possible references to external address 0216h:
        0D6F9h LD HL,0216h
        ----------
        0D5A0h LD (0216h),A
        0D6A5h LD (0216h),A
        0D6B3h LD (0216h),A
        0D701h LD (0216h),A

possible references to external address 0217h:
        0D606h LD IY,0217h
        0D6F2h LD IY,0217h

possible references to external address 022Bh:
        0D5E3h LD HL,022Bh

possible references to external address 023Ah:
        0D697h LD HL,023Ah
        0D6E7h LD DE,023Ah

possible references to external address 0258h:
        0D858h LD DE,0258h
        ----------
        0D173h LD (0258h),A

possible references to external address 025Eh:
        0D850h LD DE,025Eh
        ----------
        0D178h LD (025Eh),A

possible references to external address 0262h:
        0D17Bh LD HL,0262h

possible references to external address 0300h:
        0F213h LD BC,0300h

possible references to external address 0340h:
        0D766h LD HL,0340h
        0D7EFh LD HL,0340h

possible references to external address 03BFh:
        0D75Ah LD BC,03BFh

possible references to external address 03C0h:
        0EC46h LD BC,03C0h

possible references to external address 03FFh:
        0EC92h LD BC,03FFh

possible references to external address 0600h:
        0E7D9h LD BC,0600h

possible references to external address 0C06h:
        0EAD1h LD HL,0C06h

possible references to external address 3237h:
        0F281h LD HL,3237h

possible references to external address 3636h:
        0F274h LD HL,3636h

possible references to external address 3834h:
        0F26Dh LD HL,3834h

possible references to external address 5050h:
        0F185h LD HL,5050h

possible references to external address 0A0A0h:
        0E0EEh LD HL,0A0A0h
        0E1A5h LD HL,0A0A0h
        0E773h LD HL,0A0A0h

possible references to external address 0A800h:
        0D75Dh LD HL,0A800h
        0D76Ch LD HL,0A800h
        0D7E9h LD HL,0A800h
        0EC43h LD DE,0A800h
        0EC6Fh LD HL,0A800h
        0EC8Ah LD HL,0A800h

possible references to external address 0A801h:
        0EC8Dh LD DE,0A801h

possible references to external address 0A814h:
        0D993h LD DE,0A814h

possible references to external address 0A840h:
        0EC40h LD HL,0A840h

possible references to external address 0A846h:
        0E2B4h LD DE,0A846h

possible references to external address 0A8D4h:
        0D9A0h LD DE,0A8D4h

possible references to external address 0A9A7h:
        0E0E9h LD DE,0A9A7h
        0E2CFh LD DE,0A9A7h

possible references to external address 0AA55h:
        0F2C1h LD DE,0AA55h

possible references to external address 0AB40h:
        0E012h LD HL,0AB40h

possible references to external address 0AB8Bh:
        0DA7Eh LD DE,0AB8Bh
        0EEC6h LD HL,0AB8Bh

possible references to external address 0AB8Fh:
        0F23Dh LD DE,0AB8Fh

possible references to external address 0AB91h:
        0D35Ah LD DE,0AB91h

possible references to external address 0ABA0h:
        0F210h LD DE,0ABA0h

possible references to external address 0ABB5h:
        0F22Fh LD DE,0ABB5h

possible references to external address 0ABC0h:
        0EC4Bh LD HL,0ABC0h

possible references to external address 0ABC4h:
        0D5F9h LD DE,0ABC4h
        0D633h LD DE,0ABC4h
        0D65Dh LD HL,0ABC4h
        0D746h LD DE,0ABC4h
        0D976h LD HL,0ABC4h
        0E358h LD DE,0ABC4h
        0EA6Fh LD HL,0ABC4h
        0EB52h LD HL,0ABC4h
        0ED42h LD HL,0ABC4h
        ----------
        0D66Bh LD (0ABC4h),A
        0D676h LD (0ABC4h),A
        0ED9Bh LD A,(0ABC4h)
        0EDD9h LD A,(0ABC4h)
        0EE18h LD A,(0ABC4h)
        0EE27h LD A,(0ABC4h)
        0EE5Dh LD (0ABC4h),A
        0EE99h LD (0ABC4h),A
        0EEA5h LD A,(0ABC4h)
        0EF03h LD (0ABC4h),A
        0EF8Ah LD (0ABC4h),A

possible references to external address 0ABC5h:
        0D195h LD DE,0ABC5h
        0D1C0h LD DE,0ABC5h
        0D1C8h LD DE,0ABC5h
        0D1F2h LD DE,0ABC5h
        0D220h LD DE,0ABC5h
        0D23Bh LD HL,0ABC5h
        0D242h LD HL,0ABC5h
        0D266h LD DE,0ABC5h
        0D2ABh LD DE,0ABC5h
        0D2CEh LD DE,0ABC5h
        0D2D7h LD HL,0ABC5h
        0D3ABh LD HL,0ABC5h
        0D3FDh LD DE,0ABC5h
        0D7C3h LD DE,0ABC5h
        0D842h LD DE,0ABC5h
        0E0BDh LD DE,0ABC5h

possible references to external address 0ABC6h:
        0D66Eh LD DE,0ABC6h
        0D69Ah LD DE,0ABC6h
        0D6C0h LD DE,0ABC6h
        0D6E4h LD HL,0ABC6h
        0EDFAh LD HL,0ABC6h
        0EE5Ah LD HL,0ABC6h
        0EE7Bh LD HL,0ABC6h
        0EF21h LD HL,0ABC6h
        0EF8Dh LD DE,0ABC6h
        ----------
        0D681h LD A,(0ABC6h)

possible references to external address 0ABCAh:
        0EDEBh LD HL,0ABCAh

possible references to external address 0ABCBh:
        0EDEEh LD DE,0ABCBh
        0EE4Bh LD HL,0ABCBh
        0EE8Fh LD HL,0ABCBh
        0EEC9h LD DE,0ABCBh
        0EFBDh LD HL,0ABCBh
        ----------
        0EDD0h LD A,(0ABCBh)

possible references to external address 0ABD1h:
        0D388h LD DE,0ABD1h

possible references to external address 0ABD2h:
        0D275h LD DE,0ABD2h
        0D4F8h LD DE,0ABD2h
        0D860h LD DE,0ABD2h
        ----------
        0D27Bh LD A,(0ABD2h)

possible references to external address 0ABD3h:
        0D324h LD DE,0ABD3h
        0D411h LD DE,0ABD3h
        0D42Ah LD HL,0ABD3h
        0D492h LD DE,0ABD3h
        0D49Bh LD DE,0ABD3h
        ----------
        0D32Ah LD A,(0ABD3h)

possible references to external address 0ABD4h:
        0E2BBh LD HL,0ABD4h
        ----------
        0E2A8h LD A,(0ABD4h)

possible references to external address 0ABD8h:
        0D866h LD DE,0ABD8h

possible references to external address 0ABDDh:
        0D1FDh LD DE,0ABDDh
        ----------
        0D203h LD A,(0ABDDh)

possible references to external address 0ABF9h:
        0EA99h LD HL,0ABF9h

possible references to external address 0ABFCh:
        0D729h LD BC,0ABFCh
        0E35Bh LD HL,0ABFCh

possible references to external address 0ABFEh:
        0D53Fh LD HL,0ABFEh

possible references to external address 0AC00h:
        0EB55h LD DE,0AC00h
        0EC72h LD DE,0AC00h

possible references to external address 0B0B0h:
        0E1DDh LD HL,0B0B0h
        0E2D4h LD HL,0B0B0h
        0E6FCh LD HL,0B0B0h

references to port 0CDh
        0ECBDh IN A,(0CDh)

references to port 0CFh
        0ED2Bh OUT (0CFh),A
        0ED2Fh OUT (0CFh),A
        0ED36h OUT (0CFh),A

references to port 0D9h
        0E247h IN A,(0D9h)
        0E255h IN A,(0D9h)
        0EAE4h IN A,(0D9h)
        0E1C5h OUT (0D9h),A
        0E1CBh OUT (0D9h),A
        0E24Bh OUT (0D9h),A
        0E259h OUT (0D9h),A
        0EAE8h OUT (0D9h),A
        0EAFEh OUT (0D9h),A

references to port 0DBh
        0E0E7h OUT (0DBh),A
        0E18Dh OUT (0DBh),A
        0E191h OUT (0DBh),A
        0E19Bh OUT (0DBh),A
        0E19Fh OUT (0DBh),A
        0E1A3h OUT (0DBh),A
        0E1D3h OUT (0DBh),A
        0E1D7h OUT (0DBh),A
        0E1DBh OUT (0DBh),A

references to port 0DFh
        0E7EAh OUT (0DFh),A
        0EF6Eh OUT (0DFh),A
        0EF72h OUT (0DFh),A

Procedures (310):
  Proc  Length  References Dependants
  0D000h  01E6            0          6
  0D192h  0013            8          4
  0D1A2h  0018            3          2
  0D1B7h  0010            5          2
  0D1C7h  0010            1          0
  0D1D7h  000F            1          3
  0D1E6h  004A            0          3
  0D230h  0027            1          2
  0D24Eh  0009            1          1
  0D257h  001B            8          1
  0D26Fh  0003            1          1
  0D272h  0086            0          6
  0D291h  000A            1          1
  0D298h  0060            2          4
  0D2F8h  001F            2          0
  0D317h  000A            0          1
  0D321h  001F            0          3
  0D33Dh  0005            1          2
  0D342h  000F            0          1
  0D349h  0008            1          1
  0D34Eh  0003            1          1
  0D351h  0009            3          0
  0D35Ah  0006            1          1
  0D35Dh  0028            1          1
  0D385h  0018            0          3
  0D39Dh  001F            1          4
  0D3BCh  0005            2          1
  0D3C0h  001F            1          0
  0D3DFh  000B            0          2
  0D3EAh  0021            5          2
  0D40Ah  0001            1          0
  0D40Bh  002C            0          7
  0D431h  0006            1          2
  0D437h  0004            1          1
  0D43Ah  001A            1          0
  0D454h  001D            0          3
  0D46Dh  0004            1          1
  0D471h  000C            2          1
  0D47Dh  0012            1          4
  0D48Fh  001A            0          4
  0D4A9h  002E            0          4
  0D4B6h  0021            1          3
  0D4D3h  001D            2          1
  0D4F0h  0005            1          1
  0D4F5h  002A            0          3
  0D51Fh  0015            2          0
  0D534h  001B            2          3
  0D54Fh  003F            4          0
  0D58Eh  0004            1          1
  0D592h  002A            0          3
  0D5B4h  0008            1          2
  0D5BCh  00DB            0         10
  0D657h  0006            2          2
  0D65Ah  003D            2          5
  0D697h  0013            0          1
  0D6AAh  0012            1          2
  0D6B6h  0006            1          2
  0D6BCh  003D            1          4
  0D6F6h  0013            1          1
  0D709h  001B            0          3
  0D724h  0003            0          1
  0D727h  0028            5          2
  0D74Fh  000E            2          1
  0D75Ah  0009            3          1
  0D763h  007D            0          6
  0D7C0h  0015            1          3
  0D7D2h  000E            1          2
  0D7E0h  005C            0          6
  0D83Ch  0011            0          2
  0D84Dh  0027            0          4
  0D874h  0003            0          1
  0D922h  0039            0          1
  0D958h  0003            2          0
  0D95Bh  000D            0          1
  0D968h  00F0            1          7
  0D990h  00C8            2          6
  0DA58h  001D            2          2
  0DA75h  0027            2          4
  0E000h  0003            0          1
  0E003h  000B            6          3
  0E00Dh  0013            1          2
  0E020h  0003            2          1
  0E032h  001B            0          6
  0E04Ah  0005            1          2
  0E04Fh  004A            1         10
  0E0BDh  000A            4          0
  0E0C0h  0007            2          0
  0E0DFh  0006            1          1
  0E0E2h  0013            1          1
  0E0FFh  000C            0          0
  0E10Bh  000A            0          0
  0E115h  002F            2          1
  0E144h  002E            4          1
  0E172h  0019            5          1
  0E18Bh  0033            2          2
  0E1BEh  000A            3          1
  0E1C8h  0009            2          1
  0E1D1h  0032            2          2
  0E203h  003A            1          4
  0E23Dh  0022            6          1
  0E25Fh  0011            4          1
  0E270h  0008            2          1
  0E277h  0025            3          1
  0E29Ch  0041            0          8
  0E2F5h  0018           13          1
  0E30Dh  0005            1          0
  0E312h  0016            2          0
  0E328h  0016            3          0
  0E33Eh  000B            2          0
  0E349h  0008            4          0
  0E351h  0007            1          0
  0E358h  0006            1          1
  0E35Bh  0007           13          1
  0E35Eh  000E            2          1
  0E369h  0068            2          5
  0E374h  004E            4          6
  0E3C1h  0003            2          1
  0E3C4h  000D            2          2
  0E3D1h  0004            1          1
  0E3D3h  0008            2          0
  0E3DBh  000D            1          2
  0E400h  0010            7          0
  0E410h  0012            3          1
  0E422h  000D            1          1
  0E42Fh  0020            1          2
  0E44Eh  0001            1          0
  0E44Fh  0028            1          1
  0E477h  0025            6          0
  0E49Ch  0010            1          0
  0E4ACh  0023            6          5
  0E4CFh  000A            4          1
  0E4D9h  000C            3          1
  0E4E5h  0045            3          2
  0E529h  006E            3          0
  0E597h  000A            3          1
  0E5A1h  0007            6          1
  0E5A6h  004C            1          7
  0E5F2h  000C            3          1
  0E5FBh  0003            1          1
  0E5FDh  0010            2          3
  0E608h  0005            2          2
  0E60Bh  0008            1          0
  0E613h  0004            1          1
  0E617h  001E            1          1
  0E620h  0003            1          1
  0E622h  0013            1          2
  0E635h  000B            2          2
  0E63Eh  0003            1          1
  0E641h  0010            3          1
  0E651h  002C            1          4
  0E67Bh  0028            1          3
  0E6A3h  0017            4          3
  0E6B8h  001C            2          2
  0E6D4h  000F            2          1
  0E6E0h  0022            2          5
  0E6FFh  0003            1          1
  0E702h  0056            2          1
  0E758h  0020            1          4
  0E778h  005E            2          1
  0E7D6h  001C            1          0
  0E7F2h  000E            0          0
  0E7F8h  0008            1          0
  0E800h  0007            1          1
  0E807h  0046            1          4
  0E84Ah  0067            1          1
  0E8B1h  00E2            1          3
  0E993h  0027            1          0
  0E9BAh  0052            1          5
  0EA09h  0018            1          0
  0EA1Bh  0006            1          0
  0EA21h  001C            2          2
  0EA3Ah  001E            3          1
  0EA58h  0035            8          3
  0EA8Dh  0005            2          1
  0EA8Fh  0040            1          1
  0EACFh  000E            2          1
  0EADDh  0027            3          1
  0EB04h  004E            3          0
  0EB52h  0024            1          2
  0EB55h  0005            1          1
  0EB58h  001E            1          2
  0EB76h  0017            1          1
  0EC00h  0017            4          1
  0EC17h  000B            2          0
  0EC22h  0012            5          1
  0EC34h  000C            2          0
  0EC40h  000E           19          1
  0EC4Bh  000B            8          0
  0EC56h  000D            2          1
  0EC5Ch  0007            1          1
  0EC60h  000F            3          1
  0EC6Fh  0012            5          1
  0EC80h  000A            7          0
  0EC8Ah  000E            9          0
  0EC98h  000D            8          0
  0ECB5h  002E            0          0
  0ECE3h  002C            0          3
  0ED0Fh  002A            2          0
  0ED39h  000C            0          4
  0ED3Fh  0006            4          2
  0ED42h  01DF            2         14
  0EF1Eh  0003            1          1
  0EF21h  000F            2          1
  0EF30h  003C            1          2
  0EF6Ch  0009            2          0
  0EF75h  0066            1          6
  0F00Eh  0023            2          1
  0F031h  0011            2          4
  0F040h  0002            1          1
  0F041h  0007            4          1
  0F045h  0017            1          4
  0F059h  00E9            3         10
  0F0BFh  0083            2          8
  0F142h  000B            0          3
  0F14Ah  0003            3          1
  0F14Dh  0015            6          1
  0F162h  000A            2          0
  0F16Ch  0019            1          4
  0F185h  0030            2          6
  0F1B5h  0006            1          1
  0F1B8h  0006            1          1
  0F1BEh  000B            1          2
  0F1C9h  0008            2          1
  0F1CDh  0007            2          0
  0F1D9h  0006            3          2
  0F1DFh  0059            1          7
  0F235h  0006            1          1
  0F238h  0005            2          2
  0F23Dh  0013            2          0
  0F250h  0010            0          2
  0F260h  0026            0          1
  0F286h  0010            0          2
  0F293h  000A            1          1
  0F29Dh  0010            0          0
  0F2ADh  0011            0          3
  0F2BDh  0001            2          0
  0F2BEh  0038            1          1
  0F4EBh  0059            2          2
  0F544h  0018            9          0
  0F55Ch  000F            6          0
  0F56Bh  000F            4          0
  0F57Ah  0066            2          3
  0F5E0h  00CB            1          4
  0F6ABh  000B            2          0
  0F6B6h  00BE            1          5
  0F774h  0016            2          0
  0F78Ah  0042            4          2
  0F7CCh  003F            1          1
  0F80Bh  0016            3          0
  0FF49h  0003            0          1
  0FF4Ch  0003            0          1
  0FF4Fh  0003            0          1
  0FF52h  0003            0          1
  0FF55h  0003            0          1
  0FF58h  0003            0          1
  0FF5Bh  0003            0          1
  0FF5Eh  0003            0          1
  0FF61h  0003            1          1
  0FF64h  0003            1          1
  0FF67h  0003            0          1
  0FF6Ah  0003            0          1
  0FF6Dh  0003            0          1
  0FF70h  0003            0          1
  0FF73h  0003            0          1
  0FF76h  0003            0          1
  0FF79h  0003            0          1
  0FF7Ch  0003            0          1
  0FF7Fh  0003            0          1
  0FF82h  0003            0          1
  0FF85h  0003            1          1
  0FF88h  0003            2          1
  0FF8Bh  0003            0          1
  0FF8Eh  0003            0          1
  0FF91h  0003            0          1
  0FF94h  0003            0          1
  0FF97h  0003            0          1
  0FF9Ah  0003            0          1
  0FF9Dh  0003            0          1
  0FFA0h  0003            0          1
  0FFA3h  0003            0          1
  0FFA6h  0003            0          1
  0FFA9h  0003            0          1
  0FFACh  0003            0          1
  0FFAFh  0003            0          1
  0FFB2h  0003            0          1
  0FFB5h  0003            0          1
  0FFB8h  0003            0          1
  0FFBBh  0003            0          1
  0FFBEh  0003            0          1
  0FFC1h  0003            0          1
  0FFC4h  0003            0          1
  0FFC7h  0003            0          1
  0FFCAh  0003            0          1
  0FFCDh  0003            1          1
  0FFD0h  0003            0          1
  0FFD3h  0003            0          1
  0FFD6h  0003            0          1
  0FFD9h  0003            0          1
  0FFDCh  0003            0          1
  0FFDFh  0003            0          1
  0FFE2h  0003            1          1
  0FFE5h  0003            0          1
  0FFE8h  0003            0          1
  0FFEBh  0003            0          1
  0FFEEh  0003            2          1
  0FFF1h  0003            2          1
  0FFF4h  0003            1          1
  0FFF7h  0003            0          1
  0FFFAh  0003            0          1
  0FFFDh  0003            0          1

Call Graph:
0D000h - Entry Point
  0EC8Ah
  0EC40h
    0EC4Bh
  0E35Bh
    0E35Eh
      0E369h
        0EC98h
        0E3D3h
        0E3DBh
          0E374h
            0EC98h
            0E3C4h
              0E3D1h
                0E3D3h
              0E351h
            0E3D3h
            0E369h - Recursive
            0E3DBh - Recursive
            0E3C1h
              0E374h - Recursive
          0E3C1h
            0E374h
              0EC98h
              0E3C4h
                0E3D1h
                  0E3D3h
                0E351h
              0E3D3h
              0E369h - Recursive
              0E3DBh - Recursive
              0E3C1h - Recursive
        0E3D1h
          0E3D3h
        0E351h
  0EC4Bh
  0D230h
    0D3EAh
      0D40Ah
      0EC4Bh
    0D26Fh
      0D192h
        0EC40h
          0EC4Bh
        0E35Bh
          0E35Eh
            0E369h
              0EC98h
              0E3D3h
              0E3DBh
                0E374h
                  0EC98h
                  0E3C4h
                    0E3D1h
                      0E3D3h
                    0E351h
                  0E3D3h
                  0E369h - Recursive
                  0E3DBh - Recursive
                  0E3C1h
                    0E374h - Recursive
                0E3C1h
                  0E374h
                    0EC98h
                    0E3C4h
                      0E3D1h
                        0E3D3h
                      0E351h
                    0E3D3h
                    0E369h - Recursive
                    0E3DBh - Recursive
                    0E3C1h - Recursive
              0E3D1h
                0E3D3h
              0E351h
        0D1D7h
          0D230h - Recursive
          0D39Dh
            0D3EAh
              0D40Ah
              0EC4Bh
            0D351h
            0D3C0h
            0D24Eh
              0D26Fh - Recursive
          0D1B7h
            0EC4Bh
            0D192h - Recursive
        0D1A2h
          0D1C7h
          0D1B7h
            0EC4Bh
            0D192h - Recursive
  0D39Dh
    0D3EAh
      0D40Ah
      0EC4Bh
    0D351h
    0D3C0h
    0D24Eh
      0D26Fh
        0D192h
          0EC40h
            0EC4Bh
          0E35Bh
            0E35Eh
              0E369h
                0EC98h
                0E3D3h
                0E3DBh
                  0E374h
                    0EC98h
                    0E3C4h
                      0E3D1h
                        0E3D3h
                      0E351h
                    0E3D3h
                    0E369h - Recursive
                    0E3DBh - Recursive
                    0E3C1h
                      0E374h - Recursive
                  0E3C1h
                    0E374h
                      0EC98h
                      0E3C4h
                        0E3D1h
                          0E3D3h
                        0E351h
                      0E3D3h
                      0E369h - Recursive
                      0E3DBh - Recursive
                      0E3C1h - Recursive
                0E3D1h
                  0E3D3h
                0E351h
          0D1D7h
            0D230h
              0D3EAh
                0D40Ah
                0EC4Bh
              0D26Fh - Recursive
            0D39Dh - Recursive
            0D1B7h
              0EC4Bh
              0D192h - Recursive
          0D1A2h
            0D1C7h
            0D1B7h
              0EC4Bh
              0D192h - Recursive
0D1E6h - Entry Point
  0E35Bh
    0E35Eh
      0E369h
        0EC98h
        0E3D3h
        0E3DBh
          0E374h
            0EC98h
            0E3C4h
              0E3D1h
                0E3D3h
              0E351h
            0E3D3h
            0E369h - Recursive
            0E3DBh - Recursive
            0E3C1h
              0E374h - Recursive
          0E3C1h
            0E374h
              0EC98h
              0E3C4h
                0E3D1h
                  0E3D3h
                0E351h
              0E3D3h
              0E369h - Recursive
              0E3DBh - Recursive
              0E3C1h - Recursive
        0E3D1h
          0E3D3h
        0E351h
  0D192h
    0EC40h
      0EC4Bh
    0E35Bh
      0E35Eh
        0E369h
          0EC98h
          0E3D3h
          0E3DBh
            0E374h
              0EC98h
              0E3C4h
                0E3D1h
                  0E3D3h
                0E351h
              0E3D3h
              0E369h - Recursive
              0E3DBh - Recursive
              0E3C1h
                0E374h - Recursive
            0E3C1h
              0E374h
                0EC98h
                0E3C4h
                  0E3D1h
                    0E3D3h
                  0E351h
                0E3D3h
                0E369h - Recursive
                0E3DBh - Recursive
                0E3C1h - Recursive
          0E3D1h
            0E3D3h
          0E351h
    0D1D7h
      0D230h
        0D3EAh
          0D40Ah
          0EC4Bh
        0D26Fh
          0D192h - Recursive
      0D39Dh
        0D3EAh
          0D40Ah
          0EC4Bh
        0D351h
        0D3C0h
        0D24Eh
          0D26Fh
            0D192h - Recursive
      0D1B7h
        0EC4Bh
        0D192h - Recursive
    0D1A2h
      0D1C7h
      0D1B7h
        0EC4Bh
        0D192h - Recursive
  0EC40h
    0EC4Bh
0D257h - Entry Point
  0D192h
    0EC40h
      0EC4Bh
    0E35Bh
      0E35Eh
        0E369h
          0EC98h
          0E3D3h
          0E3DBh
            0E374h
              0EC98h
              0E3C4h
                0E3D1h
                  0E3D3h
                0E351h
              0E3D3h
              0E369h - Recursive
              0E3DBh - Recursive
              0E3C1h
                0E374h - Recursive
            0E3C1h
              0E374h
                0EC98h
                0E3C4h
                  0E3D1h
                    0E3D3h
                  0E351h
                0E3D3h
                0E369h - Recursive
                0E3DBh - Recursive
                0E3C1h - Recursive
          0E3D1h
            0E3D3h
          0E351h
    0D1D7h
      0D230h
        0D3EAh
          0D40Ah
          0EC4Bh
        0D26Fh
          0D192h - Recursive
      0D39Dh
        0D3EAh
          0D40Ah
          0EC4Bh
        0D351h
        0D3C0h
        0D24Eh
          0D26Fh
            0D192h - Recursive
      0D1B7h
        0EC4Bh
        0D192h - Recursive
    0D1A2h
      0D1C7h
      0D1B7h
        0EC4Bh
        0D192h - Recursive
0D272h - Entry Point
  0D257h
    0D192h
      0EC40h
        0EC4Bh
      0E35Bh
        0E35Eh
          0E369h
            0EC98h
            0E3D3h
            0E3DBh
              0E374h
                0EC98h
                0E3C4h
                  0E3D1h
                    0E3D3h
                  0E351h
                0E3D3h
                0E369h - Recursive
                0E3DBh - Recursive
                0E3C1h
                  0E374h - Recursive
              0E3C1h
                0E374h
                  0EC98h
                  0E3C4h
                    0E3D1h
                      0E3D3h
                    0E351h
                  0E3D3h
                  0E369h - Recursive
                  0E3DBh - Recursive
                  0E3C1h - Recursive
            0E3D1h
              0E3D3h
            0E351h
      0D1D7h
        0D230h
          0D3EAh
            0D40Ah
            0EC4Bh
          0D26Fh
            0D192h - Recursive
        0D39Dh
          0D3EAh
            0D40Ah
            0EC4Bh
          0D351h
          0D3C0h
          0D24Eh
            0D26Fh
              0D192h - Recursive
        0D1B7h
          0EC4Bh
          0D192h - Recursive
      0D1A2h
        0D1C7h
        0D1B7h
          0EC4Bh
          0D192h - Recursive
  0E35Bh
    0E35Eh
      0E369h
        0EC98h
        0E3D3h
        0E3DBh
          0E374h
            0EC98h
            0E3C4h
              0E3D1h
                0E3D3h
              0E351h
            0E3D3h
            0E369h - Recursive
            0E3DBh - Recursive
            0E3C1h
              0E374h - Recursive
          0E3C1h
            0E374h
              0EC98h
              0E3C4h
                0E3D1h
                  0E3D3h
                0E351h
              0E3D3h
              0E369h - Recursive
              0E3DBh - Recursive
              0E3C1h - Recursive
        0E3D1h
          0E3D3h
        0E351h
  0EC40h
    0EC4Bh
  0D351h
  0D35Ah
    0D35Dh
      0E349h
  0D192h
    0EC40h
      0EC4Bh
    0E35Bh
      0E35Eh
        0E369h
          0EC98h
          0E3D3h
          0E3DBh
            0E374h
              0EC98h
              0E3C4h
                0E3D1h
                  0E3D3h
                0E351h
              0E3D3h
              0E369h - Recursive
              0E3DBh - Recursive
              0E3C1h
                0E374h - Recursive
            0E3C1h
              0E374h
                0EC98h
                0E3C4h
                  0E3D1h
                    0E3D3h
                  0E351h
                0E3D3h
                0E369h - Recursive
                0E3DBh - Recursive
                0E3C1h - Recursive
          0E3D1h
            0E3D3h
          0E351h
    0D1D7h
      0D230h
        0D3EAh
          0D40Ah
          0EC4Bh
        0D26Fh
          0D192h - Recursive
      0D39Dh
        0D3EAh
          0D40Ah
          0EC4Bh
        0D351h
        0D3C0h
        0D24Eh
          0D26Fh
            0D192h - Recursive
      0D1B7h
        0EC4Bh
        0D192h - Recursive
    0D1A2h
      0D1C7h
      0D1B7h
        0EC4Bh
        0D192h - Recursive
0D2F8h - Entry Point
0D317h - Entry Point
  0D33Dh
    0D2F8h
    0D349h
      0D34Eh
        0D298h
          0EC40h
            0EC4Bh
          0D351h
          0D35Ah
            0D35Dh
              0E349h
          0D192h
            0EC40h
              0EC4Bh
            0E35Bh
              0E35Eh
                0E369h
                  0EC98h
                  0E3D3h
                  0E3DBh
                    0E374h
                      0EC98h
                      0E3C4h
                        0E3D1h
                          0E3D3h
                        0E351h
                      0E3D3h
                      0E369h - Recursive
                      0E3DBh - Recursive
                      0E3C1h
                        0E374h - Recursive
                    0E3C1h
                      0E374h
                        0EC98h
                        0E3C4h
                          0E3D1h
                            0E3D3h
                          0E351h
                        0E3D3h
                        0E369h - Recursive
                        0E3DBh - Recursive
                        0E3C1h - Recursive
                  0E3D1h
                    0E3D3h
                  0E351h
            0D1D7h
              0D230h
                0D3EAh
                  0D40Ah
                  0EC4Bh
                0D26Fh
                  0D192h - Recursive
              0D39Dh
                0D3EAh
                  0D40Ah
                  0EC4Bh
                0D351h
                0D3C0h
                0D24Eh
                  0D26Fh
                    0D192h - Recursive
              0D1B7h
                0EC4Bh
                0D192h - Recursive
            0D1A2h
              0D1C7h
              0D1B7h
                0EC4Bh
                0D192h - Recursive
0D321h - Entry Point
  0D257h
    0D192h
      0EC40h
        0EC4Bh
      0E35Bh
        0E35Eh
          0E369h
            0EC98h
            0E3D3h
            0E3DBh
              0E374h
                0EC98h
                0E3C4h
                  0E3D1h
                    0E3D3h
                  0E351h
                0E3D3h
                0E369h - Recursive
                0E3DBh - Recursive
                0E3C1h
                  0E374h - Recursive
              0E3C1h
                0E374h
                  0EC98h
                  0E3C4h
                    0E3D1h
                      0E3D3h
                    0E351h
                  0E3D3h
                  0E369h - Recursive
                  0E3DBh - Recursive
                  0E3C1h - Recursive
            0E3D1h
              0E3D3h
            0E351h
      0D1D7h
        0D230h
          0D3EAh
            0D40Ah
            0EC4Bh
          0D26Fh
            0D192h - Recursive
        0D39Dh
          0D3EAh
            0D40Ah
            0EC4Bh
          0D351h
          0D3C0h
          0D24Eh
            0D26Fh
              0D192h - Recursive
        0D1B7h
          0EC4Bh
          0D192h - Recursive
      0D1A2h
        0D1C7h
        0D1B7h
          0EC4Bh
          0D192h - Recursive
  0E35Bh
    0E35Eh
      0E369h
        0EC98h
        0E3D3h
        0E3DBh
          0E374h
            0EC98h
            0E3C4h
              0E3D1h
                0E3D3h
              0E351h
            0E3D3h
            0E369h - Recursive
            0E3DBh - Recursive
            0E3C1h
              0E374h - Recursive
          0E3C1h
            0E374h
              0EC98h
              0E3C4h
                0E3D1h
                  0E3D3h
                0E351h
              0E3D3h
              0E369h - Recursive
              0E3DBh - Recursive
              0E3C1h - Recursive
        0E3D1h
          0E3D3h
        0E351h
  0D33Dh
    0D2F8h
    0D349h
      0D34Eh
        0D298h
          0EC40h
            0EC4Bh
          0D351h
          0D35Ah
            0D35Dh
              0E349h
          0D192h
            0EC40h
              0EC4Bh
            0E35Bh
              0E35Eh
                0E369h
                  0EC98h
                  0E3D3h
                  0E3DBh
                    0E374h
                      0EC98h
                      0E3C4h
                        0E3D1h
                          0E3D3h
                        0E351h
                      0E3D3h
                      0E369h - Recursive
                      0E3DBh - Recursive
                      0E3C1h
                        0E374h - Recursive
                    0E3C1h
                      0E374h
                        0EC98h
                        0E3C4h
                          0E3D1h
                            0E3D3h
                          0E351h
                        0E3D3h
                        0E369h - Recursive
                        0E3DBh - Recursive
                        0E3C1h - Recursive
                  0E3D1h
                    0E3D3h
                  0E351h
            0D1D7h
              0D230h
                0D3EAh
                  0D40Ah
                  0EC4Bh
                0D26Fh
                  0D192h - Recursive
              0D39Dh
                0D3EAh
                  0D40Ah
                  0EC4Bh
                0D351h
                0D3C0h
                0D24Eh
                  0D26Fh
                    0D192h - Recursive
              0D1B7h
                0EC4Bh
                0D192h - Recursive
            0D1A2h
              0D1C7h
              0D1B7h
                0EC4Bh
                0D192h - Recursive
0D342h - Entry Point
  0D298h
    0EC40h
      0EC4Bh
    0D351h
    0D35Ah
      0D35Dh
        0E349h
    0D192h
      0EC40h
        0EC4Bh
      0E35Bh
        0E35Eh
          0E369h
            0EC98h
            0E3D3h
            0E3DBh
              0E374h
                0EC98h
                0E3C4h
                  0E3D1h
                    0E3D3h
                  0E351h
                0E3D3h
                0E369h - Recursive
                0E3DBh - Recursive
                0E3C1h
                  0E374h - Recursive
              0E3C1h
                0E374h
                  0EC98h
                  0E3C4h
                    0E3D1h
                      0E3D3h
                    0E351h
                  0E3D3h
                  0E369h - Recursive
                  0E3DBh - Recursive
                  0E3C1h - Recursive
            0E3D1h
              0E3D3h
            0E351h
      0D1D7h
        0D230h
          0D3EAh
            0D40Ah
            0EC4Bh
          0D26Fh
            0D192h - Recursive
        0D39Dh
          0D3EAh
            0D40Ah
            0EC4Bh
          0D351h
          0D3C0h
          0D24Eh
            0D26Fh
              0D192h - Recursive
        0D1B7h
          0EC4Bh
          0D192h - Recursive
      0D1A2h
        0D1C7h
        0D1B7h
          0EC4Bh
          0D192h - Recursive
0D385h - Entry Point
  0D257h
    0D192h
      0EC40h
        0EC4Bh
      0E35Bh
        0E35Eh
          0E369h
            0EC98h
            0E3D3h
            0E3DBh
              0E374h
                0EC98h
                0E3C4h
                  0E3D1h
                    0E3D3h
                  0E351h
                0E3D3h
                0E369h - Recursive
                0E3DBh - Recursive
                0E3C1h
                  0E374h - Recursive
              0E3C1h
                0E374h
                  0EC98h
                  0E3C4h
                    0E3D1h
                      0E3D3h
                    0E351h
                  0E3D3h
                  0E369h - Recursive
                  0E3DBh - Recursive
                  0E3C1h - Recursive
            0E3D1h
              0E3D3h
            0E351h
      0D1D7h
        0D230h
          0D3EAh
            0D40Ah
            0EC4Bh
          0D26Fh
            0D192h - Recursive
        0D39Dh
          0D3EAh
            0D40Ah
            0EC4Bh
          0D351h
          0D3C0h
          0D24Eh
            0D26Fh
              0D192h - Recursive
        0D1B7h
          0EC4Bh
          0D192h - Recursive
      0D1A2h
        0D1C7h
        0D1B7h
          0EC4Bh
          0D192h - Recursive
  0E35Bh
    0E35Eh
      0E369h
        0EC98h
        0E3D3h
        0E3DBh
          0E374h
            0EC98h
            0E3C4h
              0E3D1h
                0E3D3h
              0E351h
            0E3D3h
            0E369h - Recursive
            0E3DBh - Recursive
            0E3C1h
              0E374h - Recursive
          0E3C1h
            0E374h
              0EC98h
              0E3C4h
                0E3D1h
                  0E3D3h
                0E351h
              0E3D3h
              0E369h - Recursive
              0E3DBh - Recursive
              0E3C1h - Recursive
        0E3D1h
          0E3D3h
        0E351h
  0D34Eh
    0D298h
      0EC40h
        0EC4Bh
      0D351h
      0D35Ah
        0D35Dh
          0E349h
      0D192h
        0EC40h
          0EC4Bh
        0E35Bh
          0E35Eh
            0E369h
              0EC98h
              0E3D3h
              0E3DBh
                0E374h
                  0EC98h
                  0E3C4h
                    0E3D1h
                      0E3D3h
                    0E351h
                  0E3D3h
                  0E369h - Recursive
                  0E3DBh - Recursive
                  0E3C1h
                    0E374h - Recursive
                0E3C1h
                  0E374h
                    0EC98h
                    0E3C4h
                      0E3D1h
                        0E3D3h
                      0E351h
                    0E3D3h
                    0E369h - Recursive
                    0E3DBh - Recursive
                    0E3C1h - Recursive
              0E3D1h
                0E3D3h
              0E351h
        0D1D7h
          0D230h
            0D3EAh
              0D40Ah
              0EC4Bh
            0D26Fh
              0D192h - Recursive
          0D39Dh
            0D3EAh
              0D40Ah
              0EC4Bh
            0D351h
            0D3C0h
            0D24Eh
              0D26Fh
                0D192h - Recursive
          0D1B7h
            0EC4Bh
            0D192h - Recursive
        0D1A2h
          0D1C7h
          0D1B7h
            0EC4Bh
            0D192h - Recursive
0D3BCh - Entry Point
  0D3C0h
0D3DFh - Entry Point
  0D257h
    0D192h
      0EC40h
        0EC4Bh
      0E35Bh
        0E35Eh
          0E369h
            0EC98h
            0E3D3h
            0E3DBh
              0E374h
                0EC98h
                0E3C4h
                  0E3D1h
                    0E3D3h
                  0E351h
                0E3D3h
                0E369h - Recursive
                0E3DBh - Recursive
                0E3C1h
                  0E374h - Recursive
              0E3C1h
                0E374h
                  0EC98h
                  0E3C4h
                    0E3D1h
                      0E3D3h
                    0E351h
                  0E3D3h
                  0E369h - Recursive
                  0E3DBh - Recursive
                  0E3C1h - Recursive
            0E3D1h
              0E3D3h
            0E351h
      0D1D7h
        0D230h
          0D3EAh
            0D40Ah
            0EC4Bh
          0D26Fh
            0D192h - Recursive
        0D39Dh
          0D3EAh
            0D40Ah
            0EC4Bh
          0D351h
          0D3C0h
          0D24Eh
            0D26Fh
              0D192h - Recursive
        0D1B7h
          0EC4Bh
          0D192h - Recursive
      0D1A2h
        0D1C7h
        0D1B7h
          0EC4Bh
          0D192h - Recursive
  0D192h
    0EC40h
      0EC4Bh
    0E35Bh
      0E35Eh
        0E369h
          0EC98h
          0E3D3h
          0E3DBh
            0E374h
              0EC98h
              0E3C4h
                0E3D1h
                  0E3D3h
                0E351h
              0E3D3h
              0E369h - Recursive
              0E3DBh - Recursive
              0E3C1h
                0E374h - Recursive
            0E3C1h
              0E374h
                0EC98h
                0E3C4h
                  0E3D1h
                    0E3D3h
                  0E351h
                0E3D3h
                0E369h - Recursive
                0E3DBh - Recursive
                0E3C1h - Recursive
          0E3D1h
            0E3D3h
          0E351h
    0D1D7h
      0D230h
        0D3EAh
          0D40Ah
          0EC4Bh
        0D26Fh
          0D192h - Recursive
      0D39Dh
        0D3EAh
          0D40Ah
          0EC4Bh
        0D351h
        0D3C0h
        0D24Eh
          0D26Fh
            0D192h - Recursive
      0D1B7h
        0EC4Bh
        0D192h - Recursive
    0D1A2h
      0D1C7h
      0D1B7h
        0EC4Bh
        0D192h - Recursive
0D40Bh - Entry Point
  0D257h
    0D192h
      0EC40h
        0EC4Bh
      0E35Bh
        0E35Eh
          0E369h
            0EC98h
            0E3D3h
            0E3DBh
              0E374h
                0EC98h
                0E3C4h
                  0E3D1h
                    0E3D3h
                  0E351h
                0E3D3h
                0E369h - Recursive
                0E3DBh - Recursive
                0E3C1h
                  0E374h - Recursive
              0E3C1h
                0E374h
                  0EC98h
                  0E3C4h
                    0E3D1h
                      0E3D3h
                    0E351h
                  0E3D3h
                  0E369h - Recursive
                  0E3DBh - Recursive
                  0E3C1h - Recursive
            0E3D1h
              0E3D3h
            0E351h
      0D1D7h
        0D230h
          0D3EAh
            0D40Ah
            0EC4Bh
          0D26Fh
            0D192h - Recursive
        0D39Dh
          0D3EAh
            0D40Ah
            0EC4Bh
          0D351h
          0D3C0h
          0D24Eh
            0D26Fh
              0D192h - Recursive
        0D1B7h
          0EC4Bh
          0D192h - Recursive
      0D1A2h
        0D1C7h
        0D1B7h
          0EC4Bh
          0D192h - Recursive
  0D3EAh
    0D40Ah
    0EC4Bh
  0E35Bh
    0E35Eh
      0E369h
        0EC98h
        0E3D3h
        0E3DBh
          0E374h
            0EC98h
            0E3C4h
              0E3D1h
                0E3D3h
              0E351h
            0E3D3h
            0E369h - Recursive
            0E3DBh - Recursive
            0E3C1h
              0E374h - Recursive
          0E3C1h
            0E374h
              0EC98h
              0E3C4h
                0E3D1h
                  0E3D3h
                0E351h
              0E3D3h
              0E369h - Recursive
              0E3DBh - Recursive
              0E3C1h - Recursive
        0E3D1h
          0E3D3h
        0E351h
  0D351h
  0D3BCh
    0D3C0h
  0D2F8h
  0D291h
    0D298h
      0EC40h
        0EC4Bh
      0D351h
      0D35Ah
        0D35Dh
          0E349h
      0D192h
        0EC40h
          0EC4Bh
        0E35Bh
          0E35Eh
            0E369h
              0EC98h
              0E3D3h
              0E3DBh
                0E374h
                  0EC98h
                  0E3C4h
                    0E3D1h
                      0E3D3h
                    0E351h
                  0E3D3h
                  0E369h - Recursive
                  0E3DBh - Recursive
                  0E3C1h
                    0E374h - Recursive
                0E3C1h
                  0E374h
                    0EC98h
                    0E3C4h
                      0E3D1h
                        0E3D3h
                      0E351h
                    0E3D3h
                    0E369h - Recursive
                    0E3DBh - Recursive
                    0E3C1h - Recursive
              0E3D1h
                0E3D3h
              0E351h
        0D1D7h
          0D230h
            0D3EAh
              0D40Ah
              0EC4Bh
            0D26Fh
              0D192h - Recursive
          0D39Dh
            0D3EAh
              0D40Ah
              0EC4Bh
            0D351h
            0D3C0h
            0D24Eh
              0D26Fh
                0D192h - Recursive
          0D1B7h
            0EC4Bh
            0D192h - Recursive
        0D1A2h
          0D1C7h
          0D1B7h
            0EC4Bh
            0D192h - Recursive
0D437h - Entry Point
  0D43Ah
0D454h - Entry Point
  0D257h
    0D192h
      0EC40h
        0EC4Bh
      0E35Bh
        0E35Eh
          0E369h
            0EC98h
            0E3D3h
            0E3DBh
              0E374h
                0EC98h
                0E3C4h
                  0E3D1h
                    0E3D3h
                  0E351h
                0E3D3h
                0E369h - Recursive
                0E3DBh - Recursive
                0E3C1h
                  0E374h - Recursive
              0E3C1h
                0E374h
                  0EC98h
                  0E3C4h
                    0E3D1h
                      0E3D3h
                    0E351h
                  0E3D3h
                  0E369h - Recursive
                  0E3DBh - Recursive
                  0E3C1h - Recursive
            0E3D1h
              0E3D3h
            0E351h
      0D1D7h
        0D230h
          0D3EAh
            0D40Ah
            0EC4Bh
          0D26Fh
            0D192h - Recursive
        0D39Dh
          0D3EAh
            0D40Ah
            0EC4Bh
          0D351h
          0D3C0h
          0D24Eh
            0D26Fh
              0D192h - Recursive
        0D1B7h
          0EC4Bh
          0D192h - Recursive
      0D1A2h
        0D1C7h
        0D1B7h
          0EC4Bh
          0D192h - Recursive
  0D437h
    0D43Ah
  0D431h
    0D2F8h
    0D291h
      0D298h
        0EC40h
          0EC4Bh
        0D351h
        0D35Ah
          0D35Dh
            0E349h
        0D192h
          0EC40h
            0EC4Bh
          0E35Bh
            0E35Eh
              0E369h
                0EC98h
                0E3D3h
                0E3DBh
                  0E374h
                    0EC98h
                    0E3C4h
                      0E3D1h
                        0E3D3h
                      0E351h
                    0E3D3h
                    0E369h - Recursive
                    0E3DBh - Recursive
                    0E3C1h
                      0E374h - Recursive
                  0E3C1h
                    0E374h
                      0EC98h
                      0E3C4h
                        0E3D1h
                          0E3D3h
                        0E351h
                      0E3D3h
                      0E369h - Recursive
                      0E3DBh - Recursive
                      0E3C1h - Recursive
                0E3D1h
                  0E3D3h
                0E351h
          0D1D7h
            0D230h
              0D3EAh
                0D40Ah
                0EC4Bh
              0D26Fh
                0D192h - Recursive
            0D39Dh
              0D3EAh
                0D40Ah
                0EC4Bh
              0D351h
              0D3C0h
              0D24Eh
                0D26Fh
                  0D192h - Recursive
            0D1B7h
              0EC4Bh
              0D192h - Recursive
          0D1A2h
            0D1C7h
            0D1B7h
              0EC4Bh
              0D192h - Recursive
0D471h - Entry Point
  0EC80h
0D47Dh - Entry Point
  0D3EAh
    0D40Ah
    0EC4Bh
  0D471h
    0EC80h
  0D3BCh
    0D3C0h
  0D4D3h
    0D46Dh
      0D431h
        0D2F8h
        0D291h
          0D298h
            0EC40h
              0EC4Bh
            0D351h
            0D35Ah
              0D35Dh
                0E349h
            0D192h
              0EC40h
                0EC4Bh
              0E35Bh
                0E35Eh
                  0E369h
                    0EC98h
                    0E3D3h
                    0E3DBh
                      0E374h
                        0EC98h
                        0E3C4h
                          0E3D1h
                            0E3D3h
                          0E351h
                        0E3D3h
                        0E369h - Recursive
                        0E3DBh - Recursive
                        0E3C1h
                          0E374h - Recursive
                      0E3C1h
                        0E374h
                          0EC98h
                          0E3C4h
                            0E3D1h
                              0E3D3h
                            0E351h
                          0E3D3h
                          0E369h - Recursive
                          0E3DBh - Recursive
                          0E3C1h - Recursive
                    0E3D1h
                      0E3D3h
                    0E351h
              0D1D7h
                0D230h
                  0D3EAh
                    0D40Ah
                    0EC4Bh
                  0D26Fh
                    0D192h - Recursive
                0D39Dh
                  0D3EAh
                    0D40Ah
                    0EC4Bh
                  0D351h
                  0D3C0h
                  0D24Eh
                    0D26Fh
                      0D192h - Recursive
                0D1B7h
                  0EC4Bh
                  0D192h - Recursive
              0D1A2h
                0D1C7h
                0D1B7h
                  0EC4Bh
                  0D192h - Recursive
0D48Fh - Entry Point
  0D257h
    0D192h
      0EC40h
        0EC4Bh
      0E35Bh
        0E35Eh
          0E369h
            0EC98h
            0E3D3h
            0E3DBh
              0E374h
                0EC98h
                0E3C4h
                  0E3D1h
                    0E3D3h
                  0E351h
                0E3D3h
                0E369h - Recursive
                0E3DBh - Recursive
                0E3C1h
                  0E374h - Recursive
              0E3C1h
                0E374h
                  0EC98h
                  0E3C4h
                    0E3D1h
                      0E3D3h
                    0E351h
                  0E3D3h
                  0E369h - Recursive
                  0E3DBh - Recursive
                  0E3C1h - Recursive
            0E3D1h
              0E3D3h
            0E351h
      0D1D7h
        0D230h
          0D3EAh
            0D40Ah
            0EC4Bh
          0D26Fh
            0D192h - Recursive
        0D39Dh
          0D3EAh
            0D40Ah
            0EC4Bh
          0D351h
          0D3C0h
          0D24Eh
            0D26Fh
              0D192h - Recursive
        0D1B7h
          0EC4Bh
          0D192h - Recursive
      0D1A2h
        0D1C7h
        0D1B7h
          0EC4Bh
          0D192h - Recursive
  0E35Bh
    0E35Eh
      0E369h
        0EC98h
        0E3D3h
        0E3DBh
          0E374h
            0EC98h
            0E3C4h
              0E3D1h
                0E3D3h
              0E351h
            0E3D3h
            0E369h - Recursive
            0E3DBh - Recursive
            0E3C1h
              0E374h - Recursive
          0E3C1h
            0E374h
              0EC98h
              0E3C4h
                0E3D1h
                  0E3D3h
                0E351h
              0E3D3h
              0E369h - Recursive
              0E3DBh - Recursive
              0E3C1h - Recursive
        0E3D1h
          0E3D3h
        0E351h
  0D35Dh
    0E349h
  0D4F0h
    0D1A2h
      0D1C7h
      0D1B7h
        0EC4Bh
        0D192h
          0EC40h
            0EC4Bh
          0E35Bh
            0E35Eh
              0E369h
                0EC98h
                0E3D3h
                0E3DBh
                  0E374h
                    0EC98h
                    0E3C4h
                      0E3D1h
                        0E3D3h
                      0E351h
                    0E3D3h
                    0E369h - Recursive
                    0E3DBh - Recursive
                    0E3C1h
                      0E374h - Recursive
                  0E3C1h
                    0E374h
                      0EC98h
                      0E3C4h
                        0E3D1h
                          0E3D3h
                        0E351h
                      0E3D3h
                      0E369h - Recursive
                      0E3DBh - Recursive
                      0E3C1h - Recursive
                0E3D1h
                  0E3D3h
                0E351h
          0D1D7h
            0D230h
              0D3EAh
                0D40Ah
                0EC4Bh
              0D26Fh
                0D192h - Recursive
            0D39Dh
              0D3EAh
                0D40Ah
                0EC4Bh
              0D351h
              0D3C0h
              0D24Eh
                0D26Fh
                  0D192h - Recursive
            0D1B7h - Recursive
          0D1A2h - Recursive
0D4A9h - Entry Point
  0E35Bh
    0E35Eh
      0E369h
        0EC98h
        0E3D3h
        0E3DBh
          0E374h
            0EC98h
            0E3C4h
              0E3D1h
                0E3D3h
              0E351h
            0E3D3h
            0E369h - Recursive
            0E3DBh - Recursive
            0E3C1h
              0E374h - Recursive
          0E3C1h
            0E374h
              0EC98h
              0E3C4h
                0E3D1h
                  0E3D3h
                0E351h
              0E3D3h
              0E369h - Recursive
              0E3DBh - Recursive
              0E3C1h - Recursive
        0E3D1h
          0E3D3h
        0E351h
  0D4D3h
    0D46Dh
      0D431h
        0D2F8h
        0D291h
          0D298h
            0EC40h
              0EC4Bh
            0D351h
            0D35Ah
              0D35Dh
                0E349h
            0D192h
              0EC40h
                0EC4Bh
              0E35Bh
                0E35Eh
                  0E369h
                    0EC98h
                    0E3D3h
                    0E3DBh
                      0E374h
                        0EC98h
                        0E3C4h
                          0E3D1h
                            0E3D3h
                          0E351h
                        0E3D3h
                        0E369h - Recursive
                        0E3DBh - Recursive
                        0E3C1h
                          0E374h - Recursive
                      0E3C1h
                        0E374h
                          0EC98h
                          0E3C4h
                            0E3D1h
                              0E3D3h
                            0E351h
                          0E3D3h
                          0E369h - Recursive
                          0E3DBh - Recursive
                          0E3C1h - Recursive
                    0E3D1h
                      0E3D3h
                    0E351h
              0D1D7h
                0D230h
                  0D3EAh
                    0D40Ah
                    0EC4Bh
                  0D26Fh
                    0D192h - Recursive
                0D39Dh
                  0D3EAh
                    0D40Ah
                    0EC4Bh
                  0D351h
                  0D3C0h
                  0D24Eh
                    0D26Fh
                      0D192h - Recursive
                0D1B7h
                  0EC4Bh
                  0D192h - Recursive
              0D1A2h
                0D1C7h
                0D1B7h
                  0EC4Bh
                  0D192h - Recursive
  0D47Dh
    0D3EAh
      0D40Ah
      0EC4Bh
    0D471h
      0EC80h
    0D3BCh
      0D3C0h
    0D4D3h
      0D46Dh
        0D431h
          0D2F8h
          0D291h
            0D298h
              0EC40h
                0EC4Bh
              0D351h
              0D35Ah
                0D35Dh
                  0E349h
              0D192h
                0EC40h
                  0EC4Bh
                0E35Bh
                  0E35Eh
                    0E369h
                      0EC98h
                      0E3D3h
                      0E3DBh
                        0E374h
                          0EC98h
                          0E3C4h
                            0E3D1h
                              0E3D3h
                            0E351h
                          0E3D3h
                          0E369h - Recursive
                          0E3DBh - Recursive
                          0E3C1h
                            0E374h - Recursive
                        0E3C1h
                          0E374h
                            0EC98h
                            0E3C4h
                              0E3D1h
                                0E3D3h
                              0E351h
                            0E3D3h
                            0E369h - Recursive
                            0E3DBh - Recursive
                            0E3C1h - Recursive
                      0E3D1h
                        0E3D3h
                      0E351h
                0D1D7h
                  0D230h
                    0D3EAh
                      0D40Ah
                      0EC4Bh
                    0D26Fh
                      0D192h - Recursive
                  0D39Dh
                    0D3EAh
                      0D40Ah
                      0EC4Bh
                    0D351h
                    0D3C0h
                    0D24Eh
                      0D26Fh
                        0D192h - Recursive
                  0D1B7h
                    0EC4Bh
                    0D192h - Recursive
                0D1A2h
                  0D1C7h
                  0D1B7h
                    0EC4Bh
                    0D192h - Recursive
  0D43Ah
0D4F5h - Entry Point
  0D257h
    0D192h
      0EC40h
        0EC4Bh
      0E35Bh
        0E35Eh
          0E369h
            0EC98h
            0E3D3h
            0E3DBh
              0E374h
                0EC98h
                0E3C4h
                  0E3D1h
                    0E3D3h
                  0E351h
                0E3D3h
                0E369h - Recursive
                0E3DBh - Recursive
                0E3C1h
                  0E374h - Recursive
              0E3C1h
                0E374h
                  0EC98h
                  0E3C4h
                    0E3D1h
                      0E3D3h
                    0E351h
                  0E3D3h
                  0E369h - Recursive
                  0E3DBh - Recursive
                  0E3C1h - Recursive
            0E3D1h
              0E3D3h
            0E351h
      0D1D7h
        0D230h
          0D3EAh
            0D40Ah
            0EC4Bh
          0D26Fh
            0D192h - Recursive
        0D39Dh
          0D3EAh
            0D40Ah
            0EC4Bh
          0D351h
          0D3C0h
          0D24Eh
            0D26Fh
              0D192h - Recursive
        0D1B7h
          0EC4Bh
          0D192h - Recursive
      0D1A2h
        0D1C7h
        0D1B7h
          0EC4Bh
          0D192h - Recursive
  0E35Bh
    0E35Eh
      0E369h
        0EC98h
        0E3D3h
        0E3DBh
          0E374h
            0EC98h
            0E3C4h
              0E3D1h
                0E3D3h
              0E351h
            0E3D3h
            0E369h - Recursive
            0E3DBh - Recursive
            0E3C1h
              0E374h - Recursive
          0E3C1h
            0E374h
              0EC98h
              0E3C4h
                0E3D1h
                  0E3D3h
                0E351h
              0E3D3h
              0E369h - Recursive
              0E3DBh - Recursive
              0E3C1h - Recursive
        0E3D1h
          0E3D3h
        0E351h
  0D4B6h
    0D4D3h
      0D46Dh
        0D431h
          0D2F8h
          0D291h
            0D298h
              0EC40h
                0EC4Bh
              0D351h
              0D35Ah
                0D35Dh
                  0E349h
              0D192h
                0EC40h
                  0EC4Bh
                0E35Bh
                  0E35Eh
                    0E369h
                      0EC98h
                      0E3D3h
                      0E3DBh
                        0E374h
                          0EC98h
                          0E3C4h
                            0E3D1h
                              0E3D3h
                            0E351h
                          0E3D3h
                          0E369h - Recursive
                          0E3DBh - Recursive
                          0E3C1h
                            0E374h - Recursive
                        0E3C1h
                          0E374h
                            0EC98h
                            0E3C4h
                              0E3D1h
                                0E3D3h
                              0E351h
                            0E3D3h
                            0E369h - Recursive
                            0E3DBh - Recursive
                            0E3C1h - Recursive
                      0E3D1h
                        0E3D3h
                      0E351h
                0D1D7h
                  0D230h
                    0D3EAh
                      0D40Ah
                      0EC4Bh
                    0D26Fh
                      0D192h - Recursive
                  0D39Dh
                    0D3EAh
                      0D40Ah
                      0EC4Bh
                    0D351h
                    0D3C0h
                    0D24Eh
                      0D26Fh
                        0D192h - Recursive
                  0D1B7h
                    0EC4Bh
                    0D192h - Recursive
                0D1A2h
                  0D1C7h
                  0D1B7h
                    0EC4Bh
                    0D192h - Recursive
    0D47Dh
      0D3EAh
        0D40Ah
        0EC4Bh
      0D471h
        0EC80h
      0D3BCh
        0D3C0h
      0D4D3h
        0D46Dh
          0D431h
            0D2F8h
            0D291h
              0D298h
                0EC40h
                  0EC4Bh
                0D351h
                0D35Ah
                  0D35Dh
                    0E349h
                0D192h
                  0EC40h
                    0EC4Bh
                  0E35Bh
                    0E35Eh
                      0E369h
                        0EC98h
                        0E3D3h
                        0E3DBh
                          0E374h
                            0EC98h
                            0E3C4h
                              0E3D1h
                                0E3D3h
                              0E351h
                            0E3D3h
                            0E369h - Recursive
                            0E3DBh - Recursive
                            0E3C1h
                              0E374h - Recursive
                          0E3C1h
                            0E374h
                              0EC98h
                              0E3C4h
                                0E3D1h
                                  0E3D3h
                                0E351h
                              0E3D3h
                              0E369h - Recursive
                              0E3DBh - Recursive
                              0E3C1h - Recursive
                        0E3D1h
                          0E3D3h
                        0E351h
                  0D1D7h
                    0D230h
                      0D3EAh
                        0D40Ah
                        0EC4Bh
                      0D26Fh
                        0D192h - Recursive
                    0D39Dh
                      0D3EAh
                        0D40Ah
                        0EC4Bh
                      0D351h
                      0D3C0h
                      0D24Eh
                        0D26Fh
                          0D192h - Recursive
                    0D1B7h
                      0EC4Bh
                      0D192h - Recursive
                  0D1A2h
                    0D1C7h
                    0D1B7h
                      0EC4Bh
                      0D192h - Recursive
    0D43Ah
0D51Fh - Entry Point
0D534h - Entry Point
  0D51Fh
  0D727h
    0D51Fh
    0EC40h
      0EC4Bh
  0E35Eh
    0E369h
      0EC98h
      0E3D3h
      0E3DBh
        0E374h
          0EC98h
          0E3C4h
            0E3D1h
              0E3D3h
            0E351h
          0E3D3h
          0E369h - Recursive
          0E3DBh - Recursive
          0E3C1h
            0E374h - Recursive
        0E3C1h
          0E374h
            0EC98h
            0E3C4h
              0E3D1h
                0E3D3h
              0E351h
            0E3D3h
            0E369h - Recursive
            0E3DBh - Recursive
            0E3C1h - Recursive
      0E3D1h
        0E3D3h
      0E351h
0D54Fh - Entry Point
0D58Eh - Entry Point
  0D1B7h
    0EC4Bh
    0D192h
      0EC40h
        0EC4Bh
      0E35Bh
        0E35Eh
          0E369h
            0EC98h
            0E3D3h
            0E3DBh
              0E374h
                0EC98h
                0E3C4h
                  0E3D1h
                    0E3D3h
                  0E351h
                0E3D3h
                0E369h - Recursive
                0E3DBh - Recursive
                0E3C1h
                  0E374h - Recursive
              0E3C1h
                0E374h
                  0EC98h
                  0E3C4h
                    0E3D1h
                      0E3D3h
                    0E351h
                  0E3D3h
                  0E369h - Recursive
                  0E3DBh - Recursive
                  0E3C1h - Recursive
            0E3D1h
              0E3D3h
            0E351h
      0D1D7h
        0D230h
          0D3EAh
            0D40Ah
            0EC4Bh
          0D26Fh
            0D192h - Recursive
        0D39Dh
          0D3EAh
            0D40Ah
            0EC4Bh
          0D351h
          0D3C0h
          0D24Eh
            0D26Fh
              0D192h - Recursive
        0D1B7h - Recursive
      0D1A2h
        0D1C7h
        0D1B7h - Recursive
0D592h - Entry Point
  0D1B7h
    0EC4Bh
    0D192h
      0EC40h
        0EC4Bh
      0E35Bh
        0E35Eh
          0E369h
            0EC98h
            0E3D3h
            0E3DBh
              0E374h
                0EC98h
                0E3C4h
                  0E3D1h
                    0E3D3h
                  0E351h
                0E3D3h
                0E369h - Recursive
                0E3DBh - Recursive
                0E3C1h
                  0E374h - Recursive
              0E3C1h
                0E374h
                  0EC98h
                  0E3C4h
                    0E3D1h
                      0E3D3h
                    0E351h
                  0E3D3h
                  0E369h - Recursive
                  0E3DBh - Recursive
                  0E3C1h - Recursive
            0E3D1h
              0E3D3h
            0E351h
      0D1D7h
        0D230h
          0D3EAh
            0D40Ah
            0EC4Bh
          0D26Fh
            0D192h - Recursive
        0D39Dh
          0D3EAh
            0D40Ah
            0EC4Bh
          0D351h
          0D3C0h
          0D24Eh
            0D26Fh
              0D192h - Recursive
        0D1B7h - Recursive
      0D1A2h
        0D1C7h
        0D1B7h - Recursive
  0D54Fh
  0D58Eh
    0D1B7h
      0EC4Bh
      0D192h
        0EC40h
          0EC4Bh
        0E35Bh
          0E35Eh
            0E369h
              0EC98h
              0E3D3h
              0E3DBh
                0E374h
                  0EC98h
                  0E3C4h
                    0E3D1h
                      0E3D3h
                    0E351h
                  0E3D3h
                  0E369h - Recursive
                  0E3DBh - Recursive
                  0E3C1h
                    0E374h - Recursive
                0E3C1h
                  0E374h
                    0EC98h
                    0E3C4h
                      0E3D1h
                        0E3D3h
                      0E351h
                    0E3D3h
                    0E369h - Recursive
                    0E3DBh - Recursive
                    0E3C1h - Recursive
              0E3D1h
                0E3D3h
              0E351h
        0D1D7h
          0D230h
            0D3EAh
              0D40Ah
              0EC4Bh
            0D26Fh
              0D192h - Recursive
          0D39Dh
            0D3EAh
              0D40Ah
              0EC4Bh
            0D351h
            0D3C0h
            0D24Eh
              0D26Fh
                0D192h - Recursive
          0D1B7h - Recursive
        0D1A2h
          0D1C7h
          0D1B7h - Recursive
0D5BCh - Entry Point
  0D5B4h
    0D54Fh
    0D58Eh
      0D1B7h
        0EC4Bh
        0D192h
          0EC40h
            0EC4Bh
          0E35Bh
            0E35Eh
              0E369h
                0EC98h
                0E3D3h
                0E3DBh
                  0E374h
                    0EC98h
                    0E3C4h
                      0E3D1h
                        0E3D3h
                      0E351h
                    0E3D3h
                    0E369h - Recursive
                    0E3DBh - Recursive
                    0E3C1h
                      0E374h - Recursive
                  0E3C1h
                    0E374h
                      0EC98h
                      0E3C4h
                        0E3D1h
                          0E3D3h
                        0E351h
                      0E3D3h
                      0E369h - Recursive
                      0E3DBh - Recursive
                      0E3C1h - Recursive
                0E3D1h
                  0E3D3h
                0E351h
          0D1D7h
            0D230h
              0D3EAh
                0D40Ah
                0EC4Bh
              0D26Fh
                0D192h - Recursive
            0D39Dh
              0D3EAh
                0D40Ah
                0EC4Bh
              0D351h
              0D3C0h
              0D24Eh
                0D26Fh
                  0D192h - Recursive
            0D1B7h - Recursive
          0D1A2h
            0D1C7h
            0D1B7h - Recursive
  0D1B7h
    0EC4Bh
    0D192h
      0EC40h
        0EC4Bh
      0E35Bh
        0E35Eh
          0E369h
            0EC98h
            0E3D3h
            0E3DBh
              0E374h
                0EC98h
                0E3C4h
                  0E3D1h
                    0E3D3h
                  0E351h
                0E3D3h
                0E369h - Recursive
                0E3DBh - Recursive
                0E3C1h
                  0E374h - Recursive
              0E3C1h
                0E374h
                  0EC98h
                  0E3C4h
                    0E3D1h
                      0E3D3h
                    0E351h
                  0E3D3h
                  0E369h - Recursive
                  0E3DBh - Recursive
                  0E3C1h - Recursive
            0E3D1h
              0E3D3h
            0E351h
      0D1D7h
        0D230h
          0D3EAh
            0D40Ah
            0EC4Bh
          0D26Fh
            0D192h - Recursive
        0D39Dh
          0D3EAh
            0D40Ah
            0EC4Bh
          0D351h
          0D3C0h
          0D24Eh
            0D26Fh
              0D192h - Recursive
        0D1B7h - Recursive
      0D1A2h
        0D1C7h
        0D1B7h - Recursive
  0EC40h
    0EC4Bh
  0D727h
    0D51Fh
    0EC40h
      0EC4Bh
  0D534h
    0D51Fh
    0D727h
      0D51Fh
      0EC40h
        0EC4Bh
    0E35Eh
      0E369h
        0EC98h
        0E3D3h
        0E3DBh
          0E374h
            0EC98h
            0E3C4h
              0E3D1h
                0E3D3h
              0E351h
            0E3D3h
            0E369h - Recursive
            0E3DBh - Recursive
            0E3C1h
              0E374h - Recursive
          0E3C1h
            0E374h
              0EC98h
              0E3C4h
                0E3D1h
                  0E3D3h
                0E351h
              0E3D3h
              0E369h - Recursive
              0E3DBh - Recursive
              0E3C1h - Recursive
        0E3D1h
          0E3D3h
        0E351h
  0EC4Bh
  0E35Bh
    0E35Eh
      0E369h
        0EC98h
        0E3D3h
        0E3DBh
          0E374h
            0EC98h
            0E3C4h
              0E3D1h
                0E3D3h
              0E351h
            0E3D3h
            0E369h - Recursive
            0E3DBh - Recursive
            0E3C1h
              0E374h - Recursive
          0E3C1h
            0E374h
              0EC98h
              0E3C4h
                0E3D1h
                  0E3D3h
                0E351h
              0E3D3h
              0E369h - Recursive
              0E3DBh - Recursive
              0E3C1h - Recursive
        0E3D1h
          0E3D3h
        0E351h
  0D1A2h
    0D1C7h
    0D1B7h
      0EC4Bh
      0D192h
        0EC40h
          0EC4Bh
        0E35Bh
          0E35Eh
            0E369h
              0EC98h
              0E3D3h
              0E3DBh
                0E374h
                  0EC98h
                  0E3C4h
                    0E3D1h
                      0E3D3h
                    0E351h
                  0E3D3h
                  0E369h - Recursive
                  0E3DBh - Recursive
                  0E3C1h
                    0E374h - Recursive
                0E3C1h
                  0E374h
                    0EC98h
                    0E3C4h
                      0E3D1h
                        0E3D3h
                      0E351h
                    0E3D3h
                    0E369h - Recursive
                    0E3DBh - Recursive
                    0E3C1h - Recursive
              0E3D1h
                0E3D3h
              0E351h
        0D1D7h
          0D230h
            0D3EAh
              0D40Ah
              0EC4Bh
            0D26Fh
              0D192h - Recursive
          0D39Dh
            0D3EAh
              0D40Ah
              0EC4Bh
            0D351h
            0D3C0h
            0D24Eh
              0D26Fh
                0D192h - Recursive
          0D1B7h - Recursive
        0D1A2h - Recursive
  0D6AAh
    0D54Fh
    0D65Ah
      0EC4Bh
      0E35Bh
        0E35Eh
          0E369h
            0EC98h
            0E3D3h
            0E3DBh
              0E374h
                0EC98h
                0E3C4h
                  0E3D1h
                    0E3D3h
                  0E351h
                0E3D3h
                0E369h - Recursive
                0E3DBh - Recursive
                0E3C1h
                  0E374h - Recursive
              0E3C1h
                0E374h
                  0EC98h
                  0E3C4h
                    0E3D1h
                      0E3D3h
                    0E351h
                  0E3D3h
                  0E369h - Recursive
                  0E3DBh - Recursive
                  0E3C1h - Recursive
            0E3D1h
              0E3D3h
            0E351h
      0D1A2h
        0D1C7h
        0D1B7h
          0EC4Bh
          0D192h
            0EC40h
              0EC4Bh
            0E35Bh
              0E35Eh
                0E369h
                  0EC98h
                  0E3D3h
                  0E3DBh
                    0E374h
                      0EC98h
                      0E3C4h
                        0E3D1h
                          0E3D3h
                        0E351h
                      0E3D3h
                      0E369h - Recursive
                      0E3DBh - Recursive
                      0E3C1h
                        0E374h - Recursive
                    0E3C1h
                      0E374h
                        0EC98h
                        0E3C4h
                          0E3D1h
                            0E3D3h
                          0E351h
                        0E3D3h
                        0E369h - Recursive
                        0E3DBh - Recursive
                        0E3C1h - Recursive
                  0E3D1h
                    0E3D3h
                  0E351h
            0D1D7h
              0D230h
                0D3EAh
                  0D40Ah
                  0EC4Bh
                0D26Fh
                  0D192h - Recursive
              0D39Dh
                0D3EAh
                  0D40Ah
                  0EC4Bh
                0D351h
                0D3C0h
                0D24Eh
                  0D26Fh
                    0D192h - Recursive
              0D1B7h - Recursive
            0D1A2h - Recursive
      0D6AAh - Recursive
      0D54Fh
  0D54Fh
0D697h - Entry Point
  0D6BCh
    0E349h
    0D6B6h
      0D54Fh
      0D65Ah
        0EC4Bh
        0E35Bh
          0E35Eh
            0E369h
              0EC98h
              0E3D3h
              0E3DBh
                0E374h
                  0EC98h
                  0E3C4h
                    0E3D1h
                      0E3D3h
                    0E351h
                  0E3D3h
                  0E369h - Recursive
                  0E3DBh - Recursive
                  0E3C1h
                    0E374h - Recursive
                0E3C1h
                  0E374h
                    0EC98h
                    0E3C4h
                      0E3D1h
                        0E3D3h
                      0E351h
                    0E3D3h
                    0E369h - Recursive
                    0E3DBh - Recursive
                    0E3C1h - Recursive
              0E3D1h
                0E3D3h
              0E351h
        0D1A2h
          0D1C7h
          0D1B7h
            0EC4Bh
            0D192h
              0EC40h
                0EC4Bh
              0E35Bh
                0E35Eh
                  0E369h
                    0EC98h
                    0E3D3h
                    0E3DBh
                      0E374h
                        0EC98h
                        0E3C4h
                          0E3D1h
                            0E3D3h
                          0E351h
                        0E3D3h
                        0E369h - Recursive
                        0E3DBh - Recursive
                        0E3C1h
                          0E374h - Recursive
                      0E3C1h
                        0E374h
                          0EC98h
                          0E3C4h
                            0E3D1h
                              0E3D3h
                            0E351h
                          0E3D3h
                          0E369h - Recursive
                          0E3DBh - Recursive
                          0E3C1h - Recursive
                    0E3D1h
                      0E3D3h
                    0E351h
              0D1D7h
                0D230h
                  0D3EAh
                    0D40Ah
                    0EC4Bh
                  0D26Fh
                    0D192h - Recursive
                0D39Dh
                  0D3EAh
                    0D40Ah
                    0EC4Bh
                  0D351h
                  0D3C0h
                  0D24Eh
                    0D26Fh
                      0D192h - Recursive
                0D1B7h - Recursive
              0D1A2h - Recursive
        0D6AAh
          0D54Fh
          0D65Ah - Recursive
        0D54Fh
    0EC4Bh
    0D6F6h
      0D54Fh
0D709h - Entry Point
  0D727h
    0D51Fh
    0EC40h
      0EC4Bh
  0D6F6h
    0D54Fh
  0D657h
    0EC40h
      0EC4Bh
    0D65Ah
      0EC4Bh
      0E35Bh
        0E35Eh
          0E369h
            0EC98h
            0E3D3h
            0E3DBh
              0E374h
                0EC98h
                0E3C4h
                  0E3D1h
                    0E3D3h
                  0E351h
                0E3D3h
                0E369h - Recursive
                0E3DBh - Recursive
                0E3C1h
                  0E374h - Recursive
              0E3C1h
                0E374h
                  0EC98h
                  0E3C4h
                    0E3D1h
                      0E3D3h
                    0E351h
                  0E3D3h
                  0E369h - Recursive
                  0E3DBh - Recursive
                  0E3C1h - Recursive
            0E3D1h
              0E3D3h
            0E351h
      0D1A2h
        0D1C7h
        0D1B7h
          0EC4Bh
          0D192h
            0EC40h
              0EC4Bh
            0E35Bh
              0E35Eh
                0E369h
                  0EC98h
                  0E3D3h
                  0E3DBh
                    0E374h
                      0EC98h
                      0E3C4h
                        0E3D1h
                          0E3D3h
                        0E351h
                      0E3D3h
                      0E369h - Recursive
                      0E3DBh - Recursive
                      0E3C1h
                        0E374h - Recursive
                    0E3C1h
                      0E374h
                        0EC98h
                        0E3C4h
                          0E3D1h
                            0E3D3h
                          0E351h
                        0E3D3h
                        0E369h - Recursive
                        0E3DBh - Recursive
                        0E3C1h - Recursive
                  0E3D1h
                    0E3D3h
                  0E351h
            0D1D7h
              0D230h
                0D3EAh
                  0D40Ah
                  0EC4Bh
                0D26Fh
                  0D192h - Recursive
              0D39Dh
                0D3EAh
                  0D40Ah
                  0EC4Bh
                0D351h
                0D3C0h
                0D24Eh
                  0D26Fh
                    0D192h - Recursive
              0D1B7h - Recursive
            0D1A2h - Recursive
      0D6AAh
        0D54Fh
        0D65Ah - Recursive
      0D54Fh
0D724h - Entry Point
  0E003h
    0EF6Ch
    0ED0Fh
    0E00Dh
      0EC8Ah
      0F1DFh
        0F041h
          0F045h
            0F00Eh
              0F162h
            0F16Ch
              0F1B5h
                0F1B8h
                  0F1C9h
                    0F1CDh
              0F14Ah
                0F045h - Recursive
              0EC98h
              0F14Dh
                0F1CDh
            0F185h
              0F1B8h
                0F1C9h
                  0F1CDh
              0E2F5h
                0E30Dh
              0F031h
                0F00Eh
                  0F162h
                0F040h
                  0F041h - Recursive
                0F14Dh
                  0F1CDh
                0F041h - Recursive
              0F0BFh
                0F1CDh
                0F4EBh
                  0F544h
                  0F55Ch
                0F57Ah
                  0F544h
                  0F56Bh
                  0F55Ch
                0E4ACh
                  0E477h
                  0E49Ch
                  0E422h
                    0E410h
                      0E400h
                  0E44Fh
                    0E410h
                      0E400h
                  0E42Fh
                    0E410h
                      0E400h
                    0E44Eh
                0F14Dh
                  0F1CDh
                0F1C9h
                  0F1CDh
                0F1BEh
                  0E5F2h
                    0E5FDh
                      0E613h
                        0E608h
                          0E5FBh
                            0E5FDh - Recursive
                          0E60Bh
                      0E5FBh
                        0E5FDh - Recursive
                      0E60Bh
                  0EB04h
                0F14Ah
                  0F045h - Recursive
              0F059h
                0F14Dh
                  0F1CDh
                0EC98h
                0F031h
                  0F00Eh
                    0F162h
                  0F040h
                    0F041h - Recursive
                  0F14Dh
                    0F1CDh
                  0F041h - Recursive
                0F1CDh
                0F4EBh
                  0F544h
                  0F55Ch
                0F57Ah
                  0F544h
                  0F56Bh
                  0F55Ch
                0E4ACh
                  0E477h
                  0E49Ch
                  0E422h
                    0E410h
                      0E400h
                  0E44Fh
                    0E410h
                      0E400h
                  0E42Fh
                    0E410h
                      0E400h
                    0E44Eh
                0F1C9h
                  0F1CDh
                0F1BEh
                  0E5F2h
                    0E5FDh
                      0E613h
                        0E608h
                          0E5FBh
                            0E5FDh - Recursive
                          0E60Bh
                      0E5FBh
                        0E5FDh - Recursive
                      0E60Bh
                  0EB04h
                0F14Ah
                  0F045h - Recursive
              0F14Dh
                0F1CDh
            0F059h
              0F14Dh
                0F1CDh
              0EC98h
              0F031h
                0F00Eh
                  0F162h
                0F040h
                  0F041h - Recursive
                0F14Dh
                  0F1CDh
                0F041h - Recursive
              0F1CDh
              0F4EBh
                0F544h
                0F55Ch
              0F57Ah
                0F544h
                0F56Bh
                0F55Ch
              0E4ACh
                0E477h
                0E49Ch
                0E422h
                  0E410h
                    0E400h
                0E44Fh
                  0E410h
                    0E400h
                0E42Fh
                  0E410h
                    0E400h
                  0E44Eh
              0F1C9h
                0F1CDh
              0F1BEh
                0E5F2h
                  0E5FDh
                    0E613h
                      0E608h
                        0E5FBh
                          0E5FDh - Recursive
                        0E60Bh
                    0E5FBh
                      0E5FDh - Recursive
                    0E60Bh
                0EB04h
              0F14Ah
                0F045h - Recursive
        0F23Dh
        0E6A3h
          0E477h
          0E641h
            0E63Eh
              0E635h
                0E5A1h
                  0E5A6h
                    0E4D9h
                      0E400h
                    0E312h
                    0E529h
                    0E328h
                    0E477h
                    0E4CFh
                      0E400h
                    0E4ACh
                      0E477h
                      0E49Ch
                      0E422h
                        0E410h
                          0E400h
                      0E44Fh
                        0E410h
                          0E400h
                      0E42Fh
                        0E410h
                          0E400h
                        0E44Eh
                0E63Eh - Recursive
          0E6B8h
            0E5A1h
              0E5A6h
                0E4D9h
                  0E400h
                0E312h
                0E529h
                0E328h
                0E477h
                0E4CFh
                  0E400h
                0E4ACh
                  0E477h
                  0E49Ch
                  0E422h
                    0E410h
                      0E400h
                  0E44Fh
                    0E410h
                      0E400h
                  0E42Fh
                    0E410h
                      0E400h
                    0E44Eh
            0E635h
              0E5A1h
                0E5A6h
                  0E4D9h
                    0E400h
                  0E312h
                  0E529h
                  0E328h
                  0E477h
                  0E4CFh
                    0E400h
                  0E4ACh
                    0E477h
                    0E49Ch
                    0E422h
                      0E410h
                        0E400h
                    0E44Fh
                      0E410h
                        0E400h
                    0E42Fh
                      0E410h
                        0E400h
                      0E44Eh
              0E63Eh
                0E635h - Recursive
        0E4ACh
          0E477h
          0E49Ch
          0E422h
            0E410h
              0E400h
          0E44Fh
            0E410h
              0E400h
          0E42Fh
            0E410h
              0E400h
            0E44Eh
        0E5FDh
          0E613h
            0E608h
              0E5FBh
                0E5FDh - Recursive
              0E60Bh
          0E5FBh
            0E5FDh - Recursive
          0E60Bh
        0EB04h
        0F235h
          0F238h
            0F041h
              0F045h
                0F00Eh
                  0F162h
                0F16Ch
                  0F1B5h
                    0F1B8h
                      0F1C9h
                        0F1CDh
                  0F14Ah
                    0F045h - Recursive
                  0EC98h
                  0F14Dh
                    0F1CDh
                0F185h
                  0F1B8h
                    0F1C9h
                      0F1CDh
                  0E2F5h
                    0E30Dh
                  0F031h
                    0F00Eh
                      0F162h
                    0F040h
                      0F041h - Recursive
                    0F14Dh
                      0F1CDh
                    0F041h - Recursive
                  0F0BFh
                    0F1CDh
                    0F4EBh
                      0F544h
                      0F55Ch
                    0F57Ah
                      0F544h
                      0F56Bh
                      0F55Ch
                    0E4ACh
                      0E477h
                      0E49Ch
                      0E422h
                        0E410h
                          0E400h
                      0E44Fh
                        0E410h
                          0E400h
                      0E42Fh
                        0E410h
                          0E400h
                        0E44Eh
                    0F14Dh
                      0F1CDh
                    0F1C9h
                      0F1CDh
                    0F1BEh
                      0E5F2h
                        0E5FDh
                          0E613h
                            0E608h
                              0E5FBh
                                0E5FDh - Recursive
                              0E60Bh
                          0E5FBh
                            0E5FDh - Recursive
                          0E60Bh
                      0EB04h
                    0F14Ah
                      0F045h - Recursive
                  0F059h
                    0F14Dh
                      0F1CDh
                    0EC98h
                    0F031h
                      0F00Eh
                        0F162h
                      0F040h
                        0F041h - Recursive
                      0F14Dh
                        0F1CDh
                      0F041h - Recursive
                    0F1CDh
                    0F4EBh
                      0F544h
                      0F55Ch
                    0F57Ah
                      0F544h
                      0F56Bh
                      0F55Ch
                    0E4ACh
                      0E477h
                      0E49Ch
                      0E422h
                        0E410h
                          0E400h
                      0E44Fh
                        0E410h
                          0E400h
                      0E42Fh
                        0E410h
                          0E400h
                        0E44Eh
                    0F1C9h
                      0F1CDh
                    0F1BEh
                      0E5F2h
                        0E5FDh
                          0E613h
                            0E608h
                              0E5FBh
                                0E5FDh - Recursive
                              0E60Bh
                          0E5FBh
                            0E5FDh - Recursive
                          0E60Bh
                      0EB04h
                    0F14Ah
                      0F045h - Recursive
                  0F14Dh
                    0F1CDh
                0F059h
                  0F14Dh
                    0F1CDh
                  0EC98h
                  0F031h
                    0F00Eh
                      0F162h
                    0F040h
                      0F041h - Recursive
                    0F14Dh
                      0F1CDh
                    0F041h - Recursive
                  0F1CDh
                  0F4EBh
                    0F544h
                    0F55Ch
                  0F57Ah
                    0F544h
                    0F56Bh
                    0F55Ch
                  0E4ACh
                    0E477h
                    0E49Ch
                    0E422h
                      0E410h
                        0E400h
                    0E44Fh
                      0E410h
                        0E400h
                    0E42Fh
                      0E410h
                        0E400h
                      0E44Eh
                  0F1C9h
                    0F1CDh
                  0F1BEh
                    0E5F2h
                      0E5FDh
                        0E613h
                          0E608h
                            0E5FBh
                              0E5FDh - Recursive
                            0E60Bh
                        0E5FBh
                          0E5FDh - Recursive
                        0E60Bh
                    0EB04h
                  0F14Ah
                    0F045h - Recursive
            0F235h - Recursive
0D74Fh - Entry Point
  0D75Ah
    0E7F8h
0D763h - Entry Point
  0D75Ah
    0E7F8h
  0E702h
    0E6E0h
      0E1D1h
        0E1C8h
          0E2F5h
            0E30Dh
        0E23Dh
          0E2F5h
            0E30Dh
      0E25Fh
        0E270h
          0E277h
            0E23Dh
              0E2F5h
                0E30Dh
      0E277h
        0E23Dh
          0E2F5h
            0E30Dh
      0E23Dh
        0E2F5h
          0E30Dh
      0E1BEh
        0E2F5h
          0E30Dh
  0E6D4h
    0E6E0h
      0E1D1h
        0E1C8h
          0E2F5h
            0E30Dh
        0E23Dh
          0E2F5h
            0E30Dh
      0E25Fh
        0E270h
          0E277h
            0E23Dh
              0E2F5h
                0E30Dh
      0E277h
        0E23Dh
          0E2F5h
            0E30Dh
      0E23Dh
        0E2F5h
          0E30Dh
      0E1BEh
        0E2F5h
          0E30Dh
  0EC40h
    0EC4Bh
  0E0BDh
  0D1A2h
    0D1C7h
    0D1B7h
      0EC4Bh
      0D192h
        0EC40h
          0EC4Bh
        0E35Bh
          0E35Eh
            0E369h
              0EC98h
              0E3D3h
              0E3DBh
                0E374h
                  0EC98h
                  0E3C4h
                    0E3D1h
                      0E3D3h
                    0E351h
                  0E3D3h
                  0E369h - Recursive
                  0E3DBh - Recursive
                  0E3C1h
                    0E374h - Recursive
                0E3C1h
                  0E374h
                    0EC98h
                    0E3C4h
                      0E3D1h
                        0E3D3h
                      0E351h
                    0E3D3h
                    0E369h - Recursive
                    0E3DBh - Recursive
                    0E3C1h - Recursive
              0E3D1h
                0E3D3h
              0E351h
        0D1D7h
          0D230h
            0D3EAh
              0D40Ah
              0EC4Bh
            0D26Fh
              0D192h - Recursive
          0D39Dh
            0D3EAh
              0D40Ah
              0EC4Bh
            0D351h
            0D3C0h
            0D24Eh
              0D26Fh
                0D192h - Recursive
          0D1B7h - Recursive
        0D1A2h - Recursive
0D7E0h - Entry Point
  0D75Ah
    0E7F8h
  0D3EAh
    0D40Ah
    0EC4Bh
  0E778h
    0E758h
      0E18Bh
        0E1C8h
          0E2F5h
            0E30Dh
        0E115h
          0E2F5h
            0E30Dh
      0E172h
        0E144h
          0E2F5h
            0E30Dh
      0E144h
        0E2F5h
          0E30Dh
      0E6FFh
        0E1BEh
          0E2F5h
            0E30Dh
  0D74Fh
    0D75Ah
      0E7F8h
  0EC40h
    0EC4Bh
  0D7C0h
    0EC40h
      0EC4Bh
    0E0BDh
    0D7D2h
      0EC40h
        0EC4Bh
      0D1A2h
        0D1C7h
        0D1B7h
          0EC4Bh
          0D192h
            0EC40h
              0EC4Bh
            0E35Bh
              0E35Eh
                0E369h
                  0EC98h
                  0E3D3h
                  0E3DBh
                    0E374h
                      0EC98h
                      0E3C4h
                        0E3D1h
                          0E3D3h
                        0E351h
                      0E3D3h
                      0E369h - Recursive
                      0E3DBh - Recursive
                      0E3C1h
                        0E374h - Recursive
                    0E3C1h
                      0E374h
                        0EC98h
                        0E3C4h
                          0E3D1h
                            0E3D3h
                          0E351h
                        0E3D3h
                        0E369h - Recursive
                        0E3DBh - Recursive
                        0E3C1h - Recursive
                  0E3D1h
                    0E3D3h
                  0E351h
            0D1D7h
              0D230h
                0D3EAh
                  0D40Ah
                  0EC4Bh
                0D26Fh
                  0D192h - Recursive
              0D39Dh
                0D3EAh
                  0D40Ah
                  0EC4Bh
                0D351h
                0D3C0h
                0D24Eh
                  0D26Fh
                    0D192h - Recursive
              0D1B7h - Recursive
            0D1A2h - Recursive
0D83Ch - Entry Point
  0D74Fh
    0D75Ah
      0E7F8h
  0D7D2h
    0EC40h
      0EC4Bh
    0D1A2h
      0D1C7h
      0D1B7h
        0EC4Bh
        0D192h
          0EC40h
            0EC4Bh
          0E35Bh
            0E35Eh
              0E369h
                0EC98h
                0E3D3h
                0E3DBh
                  0E374h
                    0EC98h
                    0E3C4h
                      0E3D1h
                        0E3D3h
                      0E351h
                    0E3D3h
                    0E369h - Recursive
                    0E3DBh - Recursive
                    0E3C1h
                      0E374h - Recursive
                  0E3C1h
                    0E374h
                      0EC98h
                      0E3C4h
                        0E3D1h
                          0E3D3h
                        0E351h
                      0E3D3h
                      0E369h - Recursive
                      0E3DBh - Recursive
                      0E3C1h - Recursive
                0E3D1h
                  0E3D3h
                0E351h
          0D1D7h
            0D230h
              0D3EAh
                0D40Ah
                0EC4Bh
              0D26Fh
                0D192h - Recursive
            0D39Dh
              0D3EAh
                0D40Ah
                0EC4Bh
              0D351h
              0D3C0h
              0D24Eh
                0D26Fh
                  0D192h - Recursive
            0D1B7h - Recursive
          0D1A2h - Recursive
0D84Dh - Entry Point
  0E6A3h
    0E477h
    0E641h
      0E63Eh
        0E635h
          0E5A1h
            0E5A6h
              0E4D9h
                0E400h
              0E312h
              0E529h
              0E328h
              0E477h
              0E4CFh
                0E400h
              0E4ACh
                0E477h
                0E49Ch
                0E422h
                  0E410h
                    0E400h
                0E44Fh
                  0E410h
                    0E400h
                0E42Fh
                  0E410h
                    0E400h
                  0E44Eh
          0E63Eh - Recursive
    0E6B8h
      0E5A1h
        0E5A6h
          0E4D9h
            0E400h
          0E312h
          0E529h
          0E328h
          0E477h
          0E4CFh
            0E400h
          0E4ACh
            0E477h
            0E49Ch
            0E422h
              0E410h
                0E400h
            0E44Fh
              0E410h
                0E400h
            0E42Fh
              0E410h
                0E400h
              0E44Eh
      0E635h
        0E5A1h
          0E5A6h
            0E4D9h
              0E400h
            0E312h
            0E529h
            0E328h
            0E477h
            0E4CFh
              0E400h
            0E4ACh
              0E477h
              0E49Ch
              0E422h
                0E410h
                  0E400h
              0E44Fh
                0E410h
                  0E400h
              0E42Fh
                0E410h
                  0E400h
                0E44Eh
        0E63Eh
          0E635h - Recursive
  0E4ACh
    0E477h
    0E49Ch
    0E422h
      0E410h
        0E400h
    0E44Fh
      0E410h
        0E400h
    0E42Fh
      0E410h
        0E400h
      0E44Eh
  0E5F2h
    0E5FDh
      0E613h
        0E608h
          0E5FBh
            0E5FDh - Recursive
          0E60Bh
      0E5FBh
        0E5FDh - Recursive
      0E60Bh
  0D192h
    0EC40h
      0EC4Bh
    0E35Bh
      0E35Eh
        0E369h
          0EC98h
          0E3D3h
          0E3DBh
            0E374h
              0EC98h
              0E3C4h
                0E3D1h
                  0E3D3h
                0E351h
              0E3D3h
              0E369h - Recursive
              0E3DBh - Recursive
              0E3C1h
                0E374h - Recursive
            0E3C1h
              0E374h
                0EC98h
                0E3C4h
                  0E3D1h
                    0E3D3h
                  0E351h
                0E3D3h
                0E369h - Recursive
                0E3DBh - Recursive
                0E3C1h - Recursive
          0E3D1h
            0E3D3h
          0E351h
    0D1D7h
      0D230h
        0D3EAh
          0D40Ah
          0EC4Bh
        0D26Fh
          0D192h - Recursive
      0D39Dh
        0D3EAh
          0D40Ah
          0EC4Bh
        0D351h
        0D3C0h
        0D24Eh
          0D26Fh
            0D192h - Recursive
      0D1B7h
        0EC4Bh
        0D192h - Recursive
    0D1A2h
      0D1C7h
      0D1B7h
        0EC4Bh
        0D192h - Recursive
0D874h - Entry Point
  0D968h
    0FF85h
      0EA09h
    0FFEEh
      0EC8Ah
    0FF64h
      0F041h
        0F045h
          0F00Eh
            0F162h
          0F16Ch
            0F1B5h
              0F1B8h
                0F1C9h
                  0F1CDh
            0F14Ah
              0F045h - Recursive
            0EC98h
            0F14Dh
              0F1CDh
          0F185h
            0F1B8h
              0F1C9h
                0F1CDh
            0E2F5h
              0E30Dh
            0F031h
              0F00Eh
                0F162h
              0F040h
                0F041h - Recursive
              0F14Dh
                0F1CDh
              0F041h - Recursive
            0F0BFh
              0F1CDh
              0F4EBh
                0F544h
                0F55Ch
              0F57Ah
                0F544h
                0F56Bh
                0F55Ch
              0E4ACh
                0E477h
                0E49Ch
                0E422h
                  0E410h
                    0E400h
                0E44Fh
                  0E410h
                    0E400h
                0E42Fh
                  0E410h
                    0E400h
                  0E44Eh
              0F14Dh
                0F1CDh
              0F1C9h
                0F1CDh
              0F1BEh
                0E5F2h
                  0E5FDh
                    0E613h
                      0E608h
                        0E5FBh
                          0E5FDh - Recursive
                        0E60Bh
                    0E5FBh
                      0E5FDh - Recursive
                    0E60Bh
                0EB04h
              0F14Ah
                0F045h - Recursive
            0F059h
              0F14Dh
                0F1CDh
              0EC98h
              0F031h
                0F00Eh
                  0F162h
                0F040h
                  0F041h - Recursive
                0F14Dh
                  0F1CDh
                0F041h - Recursive
              0F1CDh
              0F4EBh
                0F544h
                0F55Ch
              0F57Ah
                0F544h
                0F56Bh
                0F55Ch
              0E4ACh
                0E477h
                0E49Ch
                0E422h
                  0E410h
                    0E400h
                0E44Fh
                  0E410h
                    0E400h
                0E42Fh
                  0E410h
                    0E400h
                  0E44Eh
              0F1C9h
                0F1CDh
              0F1BEh
                0E5F2h
                  0E5FDh
                    0E613h
                      0E608h
                        0E5FBh
                          0E5FDh - Recursive
                        0E60Bh
                    0E5FBh
                      0E5FDh - Recursive
                    0E60Bh
                0EB04h
              0F14Ah
                0F045h - Recursive
            0F14Dh
              0F1CDh
          0F059h
            0F14Dh
              0F1CDh
            0EC98h
            0F031h
              0F00Eh
                0F162h
              0F040h
                0F041h - Recursive
              0F14Dh
                0F1CDh
              0F041h - Recursive
            0F1CDh
            0F4EBh
              0F544h
              0F55Ch
            0F57Ah
              0F544h
              0F56Bh
              0F55Ch
            0E4ACh
              0E477h
              0E49Ch
              0E422h
                0E410h
                  0E400h
              0E44Fh
                0E410h
                  0E400h
              0E42Fh
                0E410h
                  0E400h
                0E44Eh
            0F1C9h
              0F1CDh
            0F1BEh
              0E5F2h
                0E5FDh
                  0E613h
                    0E608h
                      0E5FBh
                        0E5FDh - Recursive
                      0E60Bh
                  0E5FBh
                    0E5FDh - Recursive
                  0E60Bh
              0EB04h
            0F14Ah
              0F045h - Recursive
    0DA58h
      0FFE2h
        0E0C0h
      0FF88h
        0E9BAh
          0EA3Ah
            0EA58h
              0EADDh
                0EACFh
                  0E2F5h
                    0E30Dh
              0EC40h
                0EC4Bh
              0EA8Dh
                0EA8Fh
                  0E2F5h
                    0E30Dh
          0EA58h
            0EADDh
              0EACFh
                0E2F5h
                  0E30Dh
            0EC40h
              0EC4Bh
            0EA8Dh
              0EA8Fh
                0E2F5h
                  0E30Dh
          0EA21h
            0EA58h
              0EADDh
                0EACFh
                  0E2F5h
                    0E30Dh
              0EC40h
                0EC4Bh
              0EA8Dh
                0EA8Fh
                  0E2F5h
                    0E30Dh
            0EA3Ah
              0EA58h
                0EADDh
                  0EACFh
                    0E2F5h
                      0E30Dh
                0EC40h
                  0EC4Bh
                0EA8Dh
                  0EA8Fh
                    0E2F5h
                      0E30Dh
          0EA1Bh
          0EA09h
    0DA75h
      0FFEEh
        0EC8Ah
      0FFCDh
        0E35Bh
          0E35Eh
            0E369h
              0EC98h
              0E3D3h
              0E3DBh
                0E374h
                  0EC98h
                  0E3C4h
                    0E3D1h
                      0E3D3h
                    0E351h
                  0E3D3h
                  0E369h - Recursive
                  0E3DBh - Recursive
                  0E3C1h
                    0E374h - Recursive
                0E3C1h
                  0E374h
                    0EC98h
                    0E3C4h
                      0E3D1h
                        0E3D3h
                      0E351h
                    0E3D3h
                    0E369h - Recursive
                    0E3DBh - Recursive
                    0E3C1h - Recursive
              0E3D1h
                0E3D3h
              0E351h
      0FF61h
        0E003h
          0EF6Ch
          0ED0Fh
          0E00Dh
            0EC8Ah
            0F1DFh
              0F041h
                0F045h
                  0F00Eh
                    0F162h
                  0F16Ch
                    0F1B5h
                      0F1B8h
                        0F1C9h
                          0F1CDh
                    0F14Ah
                      0F045h - Recursive
                    0EC98h
                    0F14Dh
                      0F1CDh
                  0F185h
                    0F1B8h
                      0F1C9h
                        0F1CDh
                    0E2F5h
                      0E30Dh
                    0F031h
                      0F00Eh
                        0F162h
                      0F040h
                        0F041h - Recursive
                      0F14Dh
                        0F1CDh
                      0F041h - Recursive
                    0F0BFh
                      0F1CDh
                      0F4EBh
                        0F544h
                        0F55Ch
                      0F57Ah
                        0F544h
                        0F56Bh
                        0F55Ch
                      0E4ACh
                        0E477h
                        0E49Ch
                        0E422h
                          0E410h
                            0E400h
                        0E44Fh
                          0E410h
                            0E400h
                        0E42Fh
                          0E410h
                            0E400h
                          0E44Eh
                      0F14Dh
                        0F1CDh
                      0F1C9h
                        0F1CDh
                      0F1BEh
                        0E5F2h
                          0E5FDh
                            0E613h
                              0E608h
                                0E5FBh
                                  0E5FDh - Recursive
                                0E60Bh
                            0E5FBh
                              0E5FDh - Recursive
                            0E60Bh
                        0EB04h
                      0F14Ah
                        0F045h - Recursive
                    0F059h
                      0F14Dh
                        0F1CDh
                      0EC98h
                      0F031h
                        0F00Eh
                          0F162h
                        0F040h
                          0F041h - Recursive
                        0F14Dh
                          0F1CDh
                        0F041h - Recursive
                      0F1CDh
                      0F4EBh
                        0F544h
                        0F55Ch
                      0F57Ah
                        0F544h
                        0F56Bh
                        0F55Ch
                      0E4ACh
                        0E477h
                        0E49Ch
                        0E422h
                          0E410h
                            0E400h
                        0E44Fh
                          0E410h
                            0E400h
                        0E42Fh
                          0E410h
                            0E400h
                          0E44Eh
                      0F1C9h
                        0F1CDh
                      0F1BEh
                        0E5F2h
                          0E5FDh
                            0E613h
                              0E608h
                                0E5FBh
                                  0E5FDh - Recursive
                                0E60Bh
                            0E5FBh
                              0E5FDh - Recursive
                            0E60Bh
                        0EB04h
                      0F14Ah
                        0F045h - Recursive
                    0F14Dh
                      0F1CDh
                  0F059h
                    0F14Dh
                      0F1CDh
                    0EC98h
                    0F031h
                      0F00Eh
                        0F162h
                      0F040h
                        0F041h - Recursive
                      0F14Dh
                        0F1CDh
                      0F041h - Recursive
                    0F1CDh
                    0F4EBh
                      0F544h
                      0F55Ch
                    0F57Ah
                      0F544h
                      0F56Bh
                      0F55Ch
                    0E4ACh
                      0E477h
                      0E49Ch
                      0E422h
                        0E410h
                          0E400h
                      0E44Fh
                        0E410h
                          0E400h
                      0E42Fh
                        0E410h
                          0E400h
                        0E44Eh
                    0F1C9h
                      0F1CDh
                    0F1BEh
                      0E5F2h
                        0E5FDh
                          0E613h
                            0E608h
                              0E5FBh
                                0E5FDh - Recursive
                              0E60Bh
                          0E5FBh
                            0E5FDh - Recursive
                          0E60Bh
                      0EB04h
                    0F14Ah
                      0F045h - Recursive
              0F23Dh
              0E6A3h
                0E477h
                0E641h
                  0E63Eh
                    0E635h
                      0E5A1h
                        0E5A6h
                          0E4D9h
                            0E400h
                          0E312h
                          0E529h
                          0E328h
                          0E477h
                          0E4CFh
                            0E400h
                          0E4ACh
                            0E477h
                            0E49Ch
                            0E422h
                              0E410h
                                0E400h
                            0E44Fh
                              0E410h
                                0E400h
                            0E42Fh
                              0E410h
                                0E400h
                              0E44Eh
                      0E63Eh - Recursive
                0E6B8h
                  0E5A1h
                    0E5A6h
                      0E4D9h
                        0E400h
                      0E312h
                      0E529h
                      0E328h
                      0E477h
                      0E4CFh
                        0E400h
                      0E4ACh
                        0E477h
                        0E49Ch
                        0E422h
                          0E410h
                            0E400h
                        0E44Fh
                          0E410h
                            0E400h
                        0E42Fh
                          0E410h
                            0E400h
                          0E44Eh
                  0E635h
                    0E5A1h
                      0E5A6h
                        0E4D9h
                          0E400h
                        0E312h
                        0E529h
                        0E328h
                        0E477h
                        0E4CFh
                          0E400h
                        0E4ACh
                          0E477h
                          0E49Ch
                          0E422h
                            0E410h
                              0E400h
                          0E44Fh
                            0E410h
                              0E400h
                          0E42Fh
                            0E410h
                              0E400h
                            0E44Eh
                    0E63Eh
                      0E635h - Recursive
              0E4ACh
                0E477h
                0E49Ch
                0E422h
                  0E410h
                    0E400h
                0E44Fh
                  0E410h
                    0E400h
                0E42Fh
                  0E410h
                    0E400h
                  0E44Eh
              0E5FDh
                0E613h
                  0E608h
                    0E5FBh
                      0E5FDh - Recursive
                    0E60Bh
                0E5FBh
                  0E5FDh - Recursive
                0E60Bh
              0EB04h
              0F235h
                0F238h
                  0F041h
                    0F045h
                      0F00Eh
                        0F162h
                      0F16Ch
                        0F1B5h
                          0F1B8h
                            0F1C9h
                              0F1CDh
                        0F14Ah
                          0F045h - Recursive
                        0EC98h
                        0F14Dh
                          0F1CDh
                      0F185h
                        0F1B8h
                          0F1C9h
                            0F1CDh
                        0E2F5h
                          0E30Dh
                        0F031h
                          0F00Eh
                            0F162h
                          0F040h
                            0F041h - Recursive
                          0F14Dh
                            0F1CDh
                          0F041h - Recursive
                        0F0BFh
                          0F1CDh
                          0F4EBh
                            0F544h
                            0F55Ch
                          0F57Ah
                            0F544h
                            0F56Bh
                            0F55Ch
                          0E4ACh
                            0E477h
                            0E49Ch
                            0E422h
                              0E410h
                                0E400h
                            0E44Fh
                              0E410h
                                0E400h
                            0E42Fh
                              0E410h
                                0E400h
                              0E44Eh
                          0F14Dh
                            0F1CDh
                          0F1C9h
                            0F1CDh
                          0F1BEh
                            0E5F2h
                              0E5FDh
                                0E613h
                                  0E608h
                                    0E5FBh
                                      0E5FDh - Recursive
                                    0E60Bh
                                0E5FBh
                                  0E5FDh - Recursive
                                0E60Bh
                            0EB04h
                          0F14Ah
                            0F045h - Recursive
                        0F059h
                          0F14Dh
                            0F1CDh
                          0EC98h
                          0F031h
                            0F00Eh
                              0F162h
                            0F040h
                              0F041h - Recursive
                            0F14Dh
                              0F1CDh
                            0F041h - Recursive
                          0F1CDh
                          0F4EBh
                            0F544h
                            0F55Ch
                          0F57Ah
                            0F544h
                            0F56Bh
                            0F55Ch
                          0E4ACh
                            0E477h
                            0E49Ch
                            0E422h
                              0E410h
                                0E400h
                            0E44Fh
                              0E410h
                                0E400h
                            0E42Fh
                              0E410h
                                0E400h
                              0E44Eh
                          0F1C9h
                            0F1CDh
                          0F1BEh
                            0E5F2h
                              0E5FDh
                                0E613h
                                  0E608h
                                    0E5FBh
                                      0E5FDh - Recursive
                                    0E60Bh
                                0E5FBh
                                  0E5FDh - Recursive
                                0E60Bh
                            0EB04h
                          0F14Ah
                            0F045h - Recursive
                        0F14Dh
                          0F1CDh
                      0F059h
                        0F14Dh
                          0F1CDh
                        0EC98h
                        0F031h
                          0F00Eh
                            0F162h
                          0F040h
                            0F041h - Recursive
                          0F14Dh
                            0F1CDh
                          0F041h - Recursive
                        0F1CDh
                        0F4EBh
                          0F544h
                          0F55Ch
                        0F57Ah
                          0F544h
                          0F56Bh
                          0F55Ch
                        0E4ACh
                          0E477h
                          0E49Ch
                          0E422h
                            0E410h
                              0E400h
                          0E44Fh
                            0E410h
                              0E400h
                          0E42Fh
                            0E410h
                              0E400h
                            0E44Eh
                        0F1C9h
                          0F1CDh
                        0F1BEh
                          0E5F2h
                            0E5FDh
                              0E613h
                                0E608h
                                  0E5FBh
                                    0E5FDh - Recursive
                                  0E60Bh
                              0E5FBh
                                0E5FDh - Recursive
                              0E60Bh
                          0EB04h
                        0F14Ah
                          0F045h - Recursive
                  0F235h - Recursive
      0D990h
        0FFEEh
          0EC8Ah
        0FF64h
          0F041h
            0F045h
              0F00Eh
                0F162h
              0F16Ch
                0F1B5h
                  0F1B8h
                    0F1C9h
                      0F1CDh
                0F14Ah
                  0F045h - Recursive
                0EC98h
                0F14Dh
                  0F1CDh
              0F185h
                0F1B8h
                  0F1C9h
                    0F1CDh
                0E2F5h
                  0E30Dh
                0F031h
                  0F00Eh
                    0F162h
                  0F040h
                    0F041h - Recursive
                  0F14Dh
                    0F1CDh
                  0F041h - Recursive
                0F0BFh
                  0F1CDh
                  0F4EBh
                    0F544h
                    0F55Ch
                  0F57Ah
                    0F544h
                    0F56Bh
                    0F55Ch
                  0E4ACh
                    0E477h
                    0E49Ch
                    0E422h
                      0E410h
                        0E400h
                    0E44Fh
                      0E410h
                        0E400h
                    0E42Fh
                      0E410h
                        0E400h
                      0E44Eh
                  0F14Dh
                    0F1CDh
                  0F1C9h
                    0F1CDh
                  0F1BEh
                    0E5F2h
                      0E5FDh
                        0E613h
                          0E608h
                            0E5FBh
                              0E5FDh - Recursive
                            0E60Bh
                        0E5FBh
                          0E5FDh - Recursive
                        0E60Bh
                    0EB04h
                  0F14Ah
                    0F045h - Recursive
                0F059h
                  0F14Dh
                    0F1CDh
                  0EC98h
                  0F031h
                    0F00Eh
                      0F162h
                    0F040h
                      0F041h - Recursive
                    0F14Dh
                      0F1CDh
                    0F041h - Recursive
                  0F1CDh
                  0F4EBh
                    0F544h
                    0F55Ch
                  0F57Ah
                    0F544h
                    0F56Bh
                    0F55Ch
                  0E4ACh
                    0E477h
                    0E49Ch
                    0E422h
                      0E410h
                        0E400h
                    0E44Fh
                      0E410h
                        0E400h
                    0E42Fh
                      0E410h
                        0E400h
                      0E44Eh
                  0F1C9h
                    0F1CDh
                  0F1BEh
                    0E5F2h
                      0E5FDh
                        0E613h
                          0E608h
                            0E5FBh
                              0E5FDh - Recursive
                            0E60Bh
                        0E5FBh
                          0E5FDh - Recursive
                        0E60Bh
                    0EB04h
                  0F14Ah
                    0F045h - Recursive
                0F14Dh
                  0F1CDh
              0F059h
                0F14Dh
                  0F1CDh
                0EC98h
                0F031h
                  0F00Eh
                    0F162h
                  0F040h
                    0F041h - Recursive
                  0F14Dh
                    0F1CDh
                  0F041h - Recursive
                0F1CDh
                0F4EBh
                  0F544h
                  0F55Ch
                0F57Ah
                  0F544h
                  0F56Bh
                  0F55Ch
                0E4ACh
                  0E477h
                  0E49Ch
                  0E422h
                    0E410h
                      0E400h
                  0E44Fh
                    0E410h
                      0E400h
                  0E42Fh
                    0E410h
                      0E400h
                    0E44Eh
                0F1C9h
                  0F1CDh
                0F1BEh
                  0E5F2h
                    0E5FDh
                      0E613h
                        0E608h
                          0E5FBh
                            0E5FDh - Recursive
                          0E60Bh
                      0E5FBh
                        0E5FDh - Recursive
                      0E60Bh
                  0EB04h
                0F14Ah
                  0F045h - Recursive
        0DA58h
          0FFE2h
            0E0C0h
          0FF88h
            0E9BAh
              0EA3Ah
                0EA58h
                  0EADDh
                    0EACFh
                      0E2F5h
                        0E30Dh
                  0EC40h
                    0EC4Bh
                  0EA8Dh
                    0EA8Fh
                      0E2F5h
                        0E30Dh
              0EA58h
                0EADDh
                  0EACFh
                    0E2F5h
                      0E30Dh
                0EC40h
                  0EC4Bh
                0EA8Dh
                  0EA8Fh
                    0E2F5h
                      0E30Dh
              0EA21h
                0EA58h
                  0EADDh
                    0EACFh
                      0E2F5h
                        0E30Dh
                  0EC40h
                    0EC4Bh
                  0EA8Dh
                    0EA8Fh
                      0E2F5h
                        0E30Dh
                0EA3Ah
                  0EA58h
                    0EADDh
                      0EACFh
                        0E2F5h
                          0E30Dh
                    0EC40h
                      0EC4Bh
                    0EA8Dh
                      0EA8Fh
                        0E2F5h
                          0E30Dh
              0EA1Bh
              0EA09h
        0DA75h - Recursive
        0FFF1h
          0EC22h
            0EC34h
        0FF88h
          0E9BAh
            0EA3Ah
              0EA58h
                0EADDh
                  0EACFh
                    0E2F5h
                      0E30Dh
                0EC40h
                  0EC4Bh
                0EA8Dh
                  0EA8Fh
                    0E2F5h
                      0E30Dh
            0EA58h
              0EADDh
                0EACFh
                  0E2F5h
                    0E30Dh
              0EC40h
                0EC4Bh
              0EA8Dh
                0EA8Fh
                  0E2F5h
                    0E30Dh
            0EA21h
              0EA58h
                0EADDh
                  0EACFh
                    0E2F5h
                      0E30Dh
                0EC40h
                  0EC4Bh
                0EA8Dh
                  0EA8Fh
                    0E2F5h
                      0E30Dh
              0EA3Ah
                0EA58h
                  0EADDh
                    0EACFh
                      0E2F5h
                        0E30Dh
                  0EC40h
                    0EC4Bh
                  0EA8Dh
                    0EA8Fh
                      0E2F5h
                        0E30Dh
            0EA1Bh
            0EA09h
    0FFF1h
      0EC22h
        0EC34h
    0FF88h
      0E9BAh
        0EA3Ah
          0EA58h
            0EADDh
              0EACFh
                0E2F5h
                  0E30Dh
            0EC40h
              0EC4Bh
            0EA8Dh
              0EA8Fh
                0E2F5h
                  0E30Dh
        0EA58h
          0EADDh
            0EACFh
              0E2F5h
                0E30Dh
          0EC40h
            0EC4Bh
          0EA8Dh
            0EA8Fh
              0E2F5h
                0E30Dh
        0EA21h
          0EA58h
            0EADDh
              0EACFh
                0E2F5h
                  0E30Dh
            0EC40h
              0EC4Bh
            0EA8Dh
              0EA8Fh
                0E2F5h
                  0E30Dh
          0EA3Ah
            0EA58h
              0EADDh
                0EACFh
                  0E2F5h
                    0E30Dh
              0EC40h
                0EC4Bh
              0EA8Dh
                0EA8Fh
                  0E2F5h
                    0E30Dh
        0EA1Bh
        0EA09h
0D922h - Entry Point
  0FFF4h
    0EC00h
      0EC17h
0D95Bh - Entry Point
  0D958h
0E000h - Entry Point
  0F2BEh
    0E003h
      0EF6Ch
      0ED0Fh
      0E00Dh
        0EC8Ah
        0F1DFh
          0F041h
            0F045h
              0F00Eh
                0F162h
              0F16Ch
                0F1B5h
                  0F1B8h
                    0F1C9h
                      0F1CDh
                0F14Ah
                  0F045h - Recursive
                0EC98h
                0F14Dh
                  0F1CDh
              0F185h
                0F1B8h
                  0F1C9h
                    0F1CDh
                0E2F5h
                  0E30Dh
                0F031h
                  0F00Eh
                    0F162h
                  0F040h
                    0F041h - Recursive
                  0F14Dh
                    0F1CDh
                  0F041h - Recursive
                0F0BFh
                  0F1CDh
                  0F4EBh
                    0F544h
                    0F55Ch
                  0F57Ah
                    0F544h
                    0F56Bh
                    0F55Ch
                  0E4ACh
                    0E477h
                    0E49Ch
                    0E422h
                      0E410h
                        0E400h
                    0E44Fh
                      0E410h
                        0E400h
                    0E42Fh
                      0E410h
                        0E400h
                      0E44Eh
                  0F14Dh
                    0F1CDh
                  0F1C9h
                    0F1CDh
                  0F1BEh
                    0E5F2h
                      0E5FDh
                        0E613h
                          0E608h
                            0E5FBh
                              0E5FDh - Recursive
                            0E60Bh
                        0E5FBh
                          0E5FDh - Recursive
                        0E60Bh
                    0EB04h
                  0F14Ah
                    0F045h - Recursive
                0F059h
                  0F14Dh
                    0F1CDh
                  0EC98h
                  0F031h
                    0F00Eh
                      0F162h
                    0F040h
                      0F041h - Recursive
                    0F14Dh
                      0F1CDh
                    0F041h - Recursive
                  0F1CDh
                  0F4EBh
                    0F544h
                    0F55Ch
                  0F57Ah
                    0F544h
                    0F56Bh
                    0F55Ch
                  0E4ACh
                    0E477h
                    0E49Ch
                    0E422h
                      0E410h
                        0E400h
                    0E44Fh
                      0E410h
                        0E400h
                    0E42Fh
                      0E410h
                        0E400h
                      0E44Eh
                  0F1C9h
                    0F1CDh
                  0F1BEh
                    0E5F2h
                      0E5FDh
                        0E613h
                          0E608h
                            0E5FBh
                              0E5FDh - Recursive
                            0E60Bh
                        0E5FBh
                          0E5FDh - Recursive
                        0E60Bh
                    0EB04h
                  0F14Ah
                    0F045h - Recursive
                0F14Dh
                  0F1CDh
              0F059h
                0F14Dh
                  0F1CDh
                0EC98h
                0F031h
                  0F00Eh
                    0F162h
                  0F040h
                    0F041h - Recursive
                  0F14Dh
                    0F1CDh
                  0F041h - Recursive
                0F1CDh
                0F4EBh
                  0F544h
                  0F55Ch
                0F57Ah
                  0F544h
                  0F56Bh
                  0F55Ch
                0E4ACh
                  0E477h
                  0E49Ch
                  0E422h
                    0E410h
                      0E400h
                  0E44Fh
                    0E410h
                      0E400h
                  0E42Fh
                    0E410h
                      0E400h
                    0E44Eh
                0F1C9h
                  0F1CDh
                0F1BEh
                  0E5F2h
                    0E5FDh
                      0E613h
                        0E608h
                          0E5FBh
                            0E5FDh - Recursive
                          0E60Bh
                      0E5FBh
                        0E5FDh - Recursive
                      0E60Bh
                  0EB04h
                0F14Ah
                  0F045h - Recursive
          0F23Dh
          0E6A3h
            0E477h
            0E641h
              0E63Eh
                0E635h
                  0E5A1h
                    0E5A6h
                      0E4D9h
                        0E400h
                      0E312h
                      0E529h
                      0E328h
                      0E477h
                      0E4CFh
                        0E400h
                      0E4ACh
                        0E477h
                        0E49Ch
                        0E422h
                          0E410h
                            0E400h
                        0E44Fh
                          0E410h
                            0E400h
                        0E42Fh
                          0E410h
                            0E400h
                          0E44Eh
                  0E63Eh - Recursive
            0E6B8h
              0E5A1h
                0E5A6h
                  0E4D9h
                    0E400h
                  0E312h
                  0E529h
                  0E328h
                  0E477h
                  0E4CFh
                    0E400h
                  0E4ACh
                    0E477h
                    0E49Ch
                    0E422h
                      0E410h
                        0E400h
                    0E44Fh
                      0E410h
                        0E400h
                    0E42Fh
                      0E410h
                        0E400h
                      0E44Eh
              0E635h
                0E5A1h
                  0E5A6h
                    0E4D9h
                      0E400h
                    0E312h
                    0E529h
                    0E328h
                    0E477h
                    0E4CFh
                      0E400h
                    0E4ACh
                      0E477h
                      0E49Ch
                      0E422h
                        0E410h
                          0E400h
                      0E44Fh
                        0E410h
                          0E400h
                      0E42Fh
                        0E410h
                          0E400h
                        0E44Eh
                0E63Eh
                  0E635h - Recursive
          0E4ACh
            0E477h
            0E49Ch
            0E422h
              0E410h
                0E400h
            0E44Fh
              0E410h
                0E400h
            0E42Fh
              0E410h
                0E400h
              0E44Eh
          0E5FDh
            0E613h
              0E608h
                0E5FBh
                  0E5FDh - Recursive
                0E60Bh
            0E5FBh
              0E5FDh - Recursive
            0E60Bh
          0EB04h
          0F235h
            0F238h
              0F041h
                0F045h
                  0F00Eh
                    0F162h
                  0F16Ch
                    0F1B5h
                      0F1B8h
                        0F1C9h
                          0F1CDh
                    0F14Ah
                      0F045h - Recursive
                    0EC98h
                    0F14Dh
                      0F1CDh
                  0F185h
                    0F1B8h
                      0F1C9h
                        0F1CDh
                    0E2F5h
                      0E30Dh
                    0F031h
                      0F00Eh
                        0F162h
                      0F040h
                        0F041h - Recursive
                      0F14Dh
                        0F1CDh
                      0F041h - Recursive
                    0F0BFh
                      0F1CDh
                      0F4EBh
                        0F544h
                        0F55Ch
                      0F57Ah
                        0F544h
                        0F56Bh
                        0F55Ch
                      0E4ACh
                        0E477h
                        0E49Ch
                        0E422h
                          0E410h
                            0E400h
                        0E44Fh
                          0E410h
                            0E400h
                        0E42Fh
                          0E410h
                            0E400h
                          0E44Eh
                      0F14Dh
                        0F1CDh
                      0F1C9h
                        0F1CDh
                      0F1BEh
                        0E5F2h
                          0E5FDh
                            0E613h
                              0E608h
                                0E5FBh
                                  0E5FDh - Recursive
                                0E60Bh
                            0E5FBh
                              0E5FDh - Recursive
                            0E60Bh
                        0EB04h
                      0F14Ah
                        0F045h - Recursive
                    0F059h
                      0F14Dh
                        0F1CDh
                      0EC98h
                      0F031h
                        0F00Eh
                          0F162h
                        0F040h
                          0F041h - Recursive
                        0F14Dh
                          0F1CDh
                        0F041h - Recursive
                      0F1CDh
                      0F4EBh
                        0F544h
                        0F55Ch
                      0F57Ah
                        0F544h
                        0F56Bh
                        0F55Ch
                      0E4ACh
                        0E477h
                        0E49Ch
                        0E422h
                          0E410h
                            0E400h
                        0E44Fh
                          0E410h
                            0E400h
                        0E42Fh
                          0E410h
                            0E400h
                          0E44Eh
                      0F1C9h
                        0F1CDh
                      0F1BEh
                        0E5F2h
                          0E5FDh
                            0E613h
                              0E608h
                                0E5FBh
                                  0E5FDh - Recursive
                                0E60Bh
                            0E5FBh
                              0E5FDh - Recursive
                            0E60Bh
                        0EB04h
                      0F14Ah
                        0F045h - Recursive
                    0F14Dh
                      0F1CDh
                  0F059h
                    0F14Dh
                      0F1CDh
                    0EC98h
                    0F031h
                      0F00Eh
                        0F162h
                      0F040h
                        0F041h - Recursive
                      0F14Dh
                        0F1CDh
                      0F041h - Recursive
                    0F1CDh
                    0F4EBh
                      0F544h
                      0F55Ch
                    0F57Ah
                      0F544h
                      0F56Bh
                      0F55Ch
                    0E4ACh
                      0E477h
                      0E49Ch
                      0E422h
                        0E410h
                          0E400h
                      0E44Fh
                        0E410h
                          0E400h
                      0E42Fh
                        0E410h
                          0E400h
                        0E44Eh
                    0F1C9h
                      0F1CDh
                    0F1BEh
                      0E5F2h
                        0E5FDh
                          0E613h
                            0E608h
                              0E5FBh
                                0E5FDh - Recursive
                              0E60Bh
                          0E5FBh
                            0E5FDh - Recursive
                          0E60Bh
                      0EB04h
                    0F14Ah
                      0F045h - Recursive
              0F235h - Recursive
0E020h - Entry Point
  0F1D9h
    0EC98h
    0E003h
      0EF6Ch
      0ED0Fh
      0E00Dh
        0EC8Ah
        0F1DFh
          0F041h
            0F045h
              0F00Eh
                0F162h
              0F16Ch
                0F1B5h
                  0F1B8h
                    0F1C9h
                      0F1CDh
                0F14Ah
                  0F045h - Recursive
                0EC98h
                0F14Dh
                  0F1CDh
              0F185h
                0F1B8h
                  0F1C9h
                    0F1CDh
                0E2F5h
                  0E30Dh
                0F031h
                  0F00Eh
                    0F162h
                  0F040h
                    0F041h - Recursive
                  0F14Dh
                    0F1CDh
                  0F041h - Recursive
                0F0BFh
                  0F1CDh
                  0F4EBh
                    0F544h
                    0F55Ch
                  0F57Ah
                    0F544h
                    0F56Bh
                    0F55Ch
                  0E4ACh
                    0E477h
                    0E49Ch
                    0E422h
                      0E410h
                        0E400h
                    0E44Fh
                      0E410h
                        0E400h
                    0E42Fh
                      0E410h
                        0E400h
                      0E44Eh
                  0F14Dh
                    0F1CDh
                  0F1C9h
                    0F1CDh
                  0F1BEh
                    0E5F2h
                      0E5FDh
                        0E613h
                          0E608h
                            0E5FBh
                              0E5FDh - Recursive
                            0E60Bh
                        0E5FBh
                          0E5FDh - Recursive
                        0E60Bh
                    0EB04h
                  0F14Ah
                    0F045h - Recursive
                0F059h
                  0F14Dh
                    0F1CDh
                  0EC98h
                  0F031h
                    0F00Eh
                      0F162h
                    0F040h
                      0F041h - Recursive
                    0F14Dh
                      0F1CDh
                    0F041h - Recursive
                  0F1CDh
                  0F4EBh
                    0F544h
                    0F55Ch
                  0F57Ah
                    0F544h
                    0F56Bh
                    0F55Ch
                  0E4ACh
                    0E477h
                    0E49Ch
                    0E422h
                      0E410h
                        0E400h
                    0E44Fh
                      0E410h
                        0E400h
                    0E42Fh
                      0E410h
                        0E400h
                      0E44Eh
                  0F1C9h
                    0F1CDh
                  0F1BEh
                    0E5F2h
                      0E5FDh
                        0E613h
                          0E608h
                            0E5FBh
                              0E5FDh - Recursive
                            0E60Bh
                        0E5FBh
                          0E5FDh - Recursive
                        0E60Bh
                    0EB04h
                  0F14Ah
                    0F045h - Recursive
                0F14Dh
                  0F1CDh
              0F059h
                0F14Dh
                  0F1CDh
                0EC98h
                0F031h
                  0F00Eh
                    0F162h
                  0F040h
                    0F041h - Recursive
                  0F14Dh
                    0F1CDh
                  0F041h - Recursive
                0F1CDh
                0F4EBh
                  0F544h
                  0F55Ch
                0F57Ah
                  0F544h
                  0F56Bh
                  0F55Ch
                0E4ACh
                  0E477h
                  0E49Ch
                  0E422h
                    0E410h
                      0E400h
                  0E44Fh
                    0E410h
                      0E400h
                  0E42Fh
                    0E410h
                      0E400h
                    0E44Eh
                0F1C9h
                  0F1CDh
                0F1BEh
                  0E5F2h
                    0E5FDh
                      0E613h
                        0E608h
                          0E5FBh
                            0E5FDh - Recursive
                          0E60Bh
                      0E5FBh
                        0E5FDh - Recursive
                      0E60Bh
                  0EB04h
                0F14Ah
                  0F045h - Recursive
          0F23Dh
          0E6A3h
            0E477h
            0E641h
              0E63Eh
                0E635h
                  0E5A1h
                    0E5A6h
                      0E4D9h
                        0E400h
                      0E312h
                      0E529h
                      0E328h
                      0E477h
                      0E4CFh
                        0E400h
                      0E4ACh
                        0E477h
                        0E49Ch
                        0E422h
                          0E410h
                            0E400h
                        0E44Fh
                          0E410h
                            0E400h
                        0E42Fh
                          0E410h
                            0E400h
                          0E44Eh
                  0E63Eh - Recursive
            0E6B8h
              0E5A1h
                0E5A6h
                  0E4D9h
                    0E400h
                  0E312h
                  0E529h
                  0E328h
                  0E477h
                  0E4CFh
                    0E400h
                  0E4ACh
                    0E477h
                    0E49Ch
                    0E422h
                      0E410h
                        0E400h
                    0E44Fh
                      0E410h
                        0E400h
                    0E42Fh
                      0E410h
                        0E400h
                      0E44Eh
              0E635h
                0E5A1h
                  0E5A6h
                    0E4D9h
                      0E400h
                    0E312h
                    0E529h
                    0E328h
                    0E477h
                    0E4CFh
                      0E400h
                    0E4ACh
                      0E477h
                      0E49Ch
                      0E422h
                        0E410h
                          0E400h
                      0E44Fh
                        0E410h
                          0E400h
                      0E42Fh
                        0E410h
                          0E400h
                        0E44Eh
                0E63Eh
                  0E635h - Recursive
          0E4ACh
            0E477h
            0E49Ch
            0E422h
              0E410h
                0E400h
            0E44Fh
              0E410h
                0E400h
            0E42Fh
              0E410h
                0E400h
              0E44Eh
          0E5FDh
            0E613h
              0E608h
                0E5FBh
                  0E5FDh - Recursive
                0E60Bh
            0E5FBh
              0E5FDh - Recursive
            0E60Bh
          0EB04h
          0F235h
            0F238h
              0F041h
                0F045h
                  0F00Eh
                    0F162h
                  0F16Ch
                    0F1B5h
                      0F1B8h
                        0F1C9h
                          0F1CDh
                    0F14Ah
                      0F045h - Recursive
                    0EC98h
                    0F14Dh
                      0F1CDh
                  0F185h
                    0F1B8h
                      0F1C9h
                        0F1CDh
                    0E2F5h
                      0E30Dh
                    0F031h
                      0F00Eh
                        0F162h
                      0F040h
                        0F041h - Recursive
                      0F14Dh
                        0F1CDh
                      0F041h - Recursive
                    0F0BFh
                      0F1CDh
                      0F4EBh
                        0F544h
                        0F55Ch
                      0F57Ah
                        0F544h
                        0F56Bh
                        0F55Ch
                      0E4ACh
                        0E477h
                        0E49Ch
                        0E422h
                          0E410h
                            0E400h
                        0E44Fh
                          0E410h
                            0E400h
                        0E42Fh
                          0E410h
                            0E400h
                          0E44Eh
                      0F14Dh
                        0F1CDh
                      0F1C9h
                        0F1CDh
                      0F1BEh
                        0E5F2h
                          0E5FDh
                            0E613h
                              0E608h
                                0E5FBh
                                  0E5FDh - Recursive
                                0E60Bh
                            0E5FBh
                              0E5FDh - Recursive
                            0E60Bh
                        0EB04h
                      0F14Ah
                        0F045h - Recursive
                    0F059h
                      0F14Dh
                        0F1CDh
                      0EC98h
                      0F031h
                        0F00Eh
                          0F162h
                        0F040h
                          0F041h - Recursive
                        0F14Dh
                          0F1CDh
                        0F041h - Recursive
                      0F1CDh
                      0F4EBh
                        0F544h
                        0F55Ch
                      0F57Ah
                        0F544h
                        0F56Bh
                        0F55Ch
                      0E4ACh
                        0E477h
                        0E49Ch
                        0E422h
                          0E410h
                            0E400h
                        0E44Fh
                          0E410h
                            0E400h
                        0E42Fh
                          0E410h
                            0E400h
                          0E44Eh
                      0F1C9h
                        0F1CDh
                      0F1BEh
                        0E5F2h
                          0E5FDh
                            0E613h
                              0E608h
                                0E5FBh
                                  0E5FDh - Recursive
                                0E60Bh
                            0E5FBh
                              0E5FDh - Recursive
                            0E60Bh
                        0EB04h
                      0F14Ah
                        0F045h - Recursive
                    0F14Dh
                      0F1CDh
                  0F059h
                    0F14Dh
                      0F1CDh
                    0EC98h
                    0F031h
                      0F00Eh
                        0F162h
                      0F040h
                        0F041h - Recursive
                      0F14Dh
                        0F1CDh
                      0F041h - Recursive
                    0F1CDh
                    0F4EBh
                      0F544h
                      0F55Ch
                    0F57Ah
                      0F544h
                      0F56Bh
                      0F55Ch
                    0E4ACh
                      0E477h
                      0E49Ch
                      0E422h
                        0E410h
                          0E400h
                      0E44Fh
                        0E410h
                          0E400h
                      0E42Fh
                        0E410h
                          0E400h
                        0E44Eh
                    0F1C9h
                      0F1CDh
                    0F1BEh
                      0E5F2h
                        0E5FDh
                          0E613h
                            0E608h
                              0E5FBh
                                0E5FDh - Recursive
                              0E60Bh
                          0E5FBh
                            0E5FDh - Recursive
                          0E60Bh
                      0EB04h
                    0F14Ah
                      0F045h - Recursive
              0F235h - Recursive
0E032h - Entry Point
  0EC8Ah
  0E18Bh
    0E1C8h
      0E2F5h
        0E30Dh
    0E115h
      0E2F5h
        0E30Dh
  0E172h
    0E144h
      0E2F5h
        0E30Dh
  0E144h
    0E2F5h
      0E30Dh
  0E04Fh
    0E172h
      0E144h
        0E2F5h
          0E30Dh
    0E144h
      0E2F5h
        0E30Dh
    0E04Ah
      0E0DFh
        0E0E2h
          0E1BEh
            0E2F5h
              0E30Dh
      0E020h
        0F1D9h
          0EC98h
          0E003h
            0EF6Ch
            0ED0Fh
            0E00Dh
              0EC8Ah
              0F1DFh
                0F041h
                  0F045h
                    0F00Eh
                      0F162h
                    0F16Ch
                      0F1B5h
                        0F1B8h
                          0F1C9h
                            0F1CDh
                      0F14Ah
                        0F045h - Recursive
                      0EC98h
                      0F14Dh
                        0F1CDh
                    0F185h
                      0F1B8h
                        0F1C9h
                          0F1CDh
                      0E2F5h
                        0E30Dh
                      0F031h
                        0F00Eh
                          0F162h
                        0F040h
                          0F041h - Recursive
                        0F14Dh
                          0F1CDh
                        0F041h - Recursive
                      0F0BFh
                        0F1CDh
                        0F4EBh
                          0F544h
                          0F55Ch
                        0F57Ah
                          0F544h
                          0F56Bh
                          0F55Ch
                        0E4ACh
                          0E477h
                          0E49Ch
                          0E422h
                            0E410h
                              0E400h
                          0E44Fh
                            0E410h
                              0E400h
                          0E42Fh
                            0E410h
                              0E400h
                            0E44Eh
                        0F14Dh
                          0F1CDh
                        0F1C9h
                          0F1CDh
                        0F1BEh
                          0E5F2h
                            0E5FDh
                              0E613h
                                0E608h
                                  0E5FBh
                                    0E5FDh - Recursive
                                  0E60Bh
                              0E5FBh
                                0E5FDh - Recursive
                              0E60Bh
                          0EB04h
                        0F14Ah
                          0F045h - Recursive
                      0F059h
                        0F14Dh
                          0F1CDh
                        0EC98h
                        0F031h
                          0F00Eh
                            0F162h
                          0F040h
                            0F041h - Recursive
                          0F14Dh
                            0F1CDh
                          0F041h - Recursive
                        0F1CDh
                        0F4EBh
                          0F544h
                          0F55Ch
                        0F57Ah
                          0F544h
                          0F56Bh
                          0F55Ch
                        0E4ACh
                          0E477h
                          0E49Ch
                          0E422h
                            0E410h
                              0E400h
                          0E44Fh
                            0E410h
                              0E400h
                          0E42Fh
                            0E410h
                              0E400h
                            0E44Eh
                        0F1C9h
                          0F1CDh
                        0F1BEh
                          0E5F2h
                            0E5FDh
                              0E613h
                                0E608h
                                  0E5FBh
                                    0E5FDh - Recursive
                                  0E60Bh
                              0E5FBh
                                0E5FDh - Recursive
                              0E60Bh
                          0EB04h
                        0F14Ah
                          0F045h - Recursive
                      0F14Dh
                        0F1CDh
                    0F059h
                      0F14Dh
                        0F1CDh
                      0EC98h
                      0F031h
                        0F00Eh
                          0F162h
                        0F040h
                          0F041h - Recursive
                        0F14Dh
                          0F1CDh
                        0F041h - Recursive
                      0F1CDh
                      0F4EBh
                        0F544h
                        0F55Ch
                      0F57Ah
                        0F544h
                        0F56Bh
                        0F55Ch
                      0E4ACh
                        0E477h
                        0E49Ch
                        0E422h
                          0E410h
                            0E400h
                        0E44Fh
                          0E410h
                            0E400h
                        0E42Fh
                          0E410h
                            0E400h
                          0E44Eh
                      0F1C9h
                        0F1CDh
                      0F1BEh
                        0E5F2h
                          0E5FDh
                            0E613h
                              0E608h
                                0E5FBh
                                  0E5FDh - Recursive
                                0E60Bh
                            0E5FBh
                              0E5FDh - Recursive
                            0E60Bh
                        0EB04h
                      0F14Ah
                        0F045h - Recursive
                0F23Dh
                0E6A3h
                  0E477h
                  0E641h
                    0E63Eh
                      0E635h
                        0E5A1h
                          0E5A6h
                            0E4D9h
                              0E400h
                            0E312h
                            0E529h
                            0E328h
                            0E477h
                            0E4CFh
                              0E400h
                            0E4ACh
                              0E477h
                              0E49Ch
                              0E422h
                                0E410h
                                  0E400h
                              0E44Fh
                                0E410h
                                  0E400h
                              0E42Fh
                                0E410h
                                  0E400h
                                0E44Eh
                        0E63Eh - Recursive
                  0E6B8h
                    0E5A1h
                      0E5A6h
                        0E4D9h
                          0E400h
                        0E312h
                        0E529h
                        0E328h
                        0E477h
                        0E4CFh
                          0E400h
                        0E4ACh
                          0E477h
                          0E49Ch
                          0E422h
                            0E410h
                              0E400h
                          0E44Fh
                            0E410h
                              0E400h
                          0E42Fh
                            0E410h
                              0E400h
                            0E44Eh
                    0E635h
                      0E5A1h
                        0E5A6h
                          0E4D9h
                            0E400h
                          0E312h
                          0E529h
                          0E328h
                          0E477h
                          0E4CFh
                            0E400h
                          0E4ACh
                            0E477h
                            0E49Ch
                            0E422h
                              0E410h
                                0E400h
                            0E44Fh
                              0E410h
                                0E400h
                            0E42Fh
                              0E410h
                                0E400h
                              0E44Eh
                      0E63Eh
                        0E635h - Recursive
                0E4ACh
                  0E477h
                  0E49Ch
                  0E422h
                    0E410h
                      0E400h
                  0E44Fh
                    0E410h
                      0E400h
                  0E42Fh
                    0E410h
                      0E400h
                    0E44Eh
                0E5FDh
                  0E613h
                    0E608h
                      0E5FBh
                        0E5FDh - Recursive
                      0E60Bh
                  0E5FBh
                    0E5FDh - Recursive
                  0E60Bh
                0EB04h
                0F235h
                  0F238h
                    0F041h
                      0F045h
                        0F00Eh
                          0F162h
                        0F16Ch
                          0F1B5h
                            0F1B8h
                              0F1C9h
                                0F1CDh
                          0F14Ah
                            0F045h - Recursive
                          0EC98h
                          0F14Dh
                            0F1CDh
                        0F185h
                          0F1B8h
                            0F1C9h
                              0F1CDh
                          0E2F5h
                            0E30Dh
                          0F031h
                            0F00Eh
                              0F162h
                            0F040h
                              0F041h - Recursive
                            0F14Dh
                              0F1CDh
                            0F041h - Recursive
                          0F0BFh
                            0F1CDh
                            0F4EBh
                              0F544h
                              0F55Ch
                            0F57Ah
                              0F544h
                              0F56Bh
                              0F55Ch
                            0E4ACh
                              0E477h
                              0E49Ch
                              0E422h
                                0E410h
                                  0E400h
                              0E44Fh
                                0E410h
                                  0E400h
                              0E42Fh
                                0E410h
                                  0E400h
                                0E44Eh
                            0F14Dh
                              0F1CDh
                            0F1C9h
                              0F1CDh
                            0F1BEh
                              0E5F2h
                                0E5FDh
                                  0E613h
                                    0E608h
                                      0E5FBh
                                        0E5FDh - Recursive
                                      0E60Bh
                                  0E5FBh
                                    0E5FDh - Recursive
                                  0E60Bh
                              0EB04h
                            0F14Ah
                              0F045h - Recursive
                          0F059h
                            0F14Dh
                              0F1CDh
                            0EC98h
                            0F031h
                              0F00Eh
                                0F162h
                              0F040h
                                0F041h - Recursive
                              0F14Dh
                                0F1CDh
                              0F041h - Recursive
                            0F1CDh
                            0F4EBh
                              0F544h
                              0F55Ch
                            0F57Ah
                              0F544h
                              0F56Bh
                              0F55Ch
                            0E4ACh
                              0E477h
                              0E49Ch
                              0E422h
                                0E410h
                                  0E400h
                              0E44Fh
                                0E410h
                                  0E400h
                              0E42Fh
                                0E410h
                                  0E400h
                                0E44Eh
                            0F1C9h
                              0F1CDh
                            0F1BEh
                              0E5F2h
                                0E5FDh
                                  0E613h
                                    0E608h
                                      0E5FBh
                                        0E5FDh - Recursive
                                      0E60Bh
                                  0E5FBh
                                    0E5FDh - Recursive
                                  0E60Bh
                              0EB04h
                            0F14Ah
                              0F045h - Recursive
                          0F14Dh
                            0F1CDh
                        0F059h
                          0F14Dh
                            0F1CDh
                          0EC98h
                          0F031h
                            0F00Eh
                              0F162h
                            0F040h
                              0F041h - Recursive
                            0F14Dh
                              0F1CDh
                            0F041h - Recursive
                          0F1CDh
                          0F4EBh
                            0F544h
                            0F55Ch
                          0F57Ah
                            0F544h
                            0F56Bh
                            0F55Ch
                          0E4ACh
                            0E477h
                            0E49Ch
                            0E422h
                              0E410h
                                0E400h
                            0E44Fh
                              0E410h
                                0E400h
                            0E42Fh
                              0E410h
                                0E400h
                              0E44Eh
                          0F1C9h
                            0F1CDh
                          0F1BEh
                            0E5F2h
                              0E5FDh
                                0E613h
                                  0E608h
                                    0E5FBh
                                      0E5FDh - Recursive
                                    0E60Bh
                                0E5FBh
                                  0E5FDh - Recursive
                                0E60Bh
                            0EB04h
                          0F14Ah
                            0F045h - Recursive
                    0F235h - Recursive
    0E0E2h
      0E1BEh
        0E2F5h
          0E30Dh
    0E020h
      0F1D9h
        0EC98h
        0E003h
          0EF6Ch
          0ED0Fh
          0E00Dh
            0EC8Ah
            0F1DFh
              0F041h
                0F045h
                  0F00Eh
                    0F162h
                  0F16Ch
                    0F1B5h
                      0F1B8h
                        0F1C9h
                          0F1CDh
                    0F14Ah
                      0F045h - Recursive
                    0EC98h
                    0F14Dh
                      0F1CDh
                  0F185h
                    0F1B8h
                      0F1C9h
                        0F1CDh
                    0E2F5h
                      0E30Dh
                    0F031h
                      0F00Eh
                        0F162h
                      0F040h
                        0F041h - Recursive
                      0F14Dh
                        0F1CDh
                      0F041h - Recursive
                    0F0BFh
                      0F1CDh
                      0F4EBh
                        0F544h
                        0F55Ch
                      0F57Ah
                        0F544h
                        0F56Bh
                        0F55Ch
                      0E4ACh
                        0E477h
                        0E49Ch
                        0E422h
                          0E410h
                            0E400h
                        0E44Fh
                          0E410h
                            0E400h
                        0E42Fh
                          0E410h
                            0E400h
                          0E44Eh
                      0F14Dh
                        0F1CDh
                      0F1C9h
                        0F1CDh
                      0F1BEh
                        0E5F2h
                          0E5FDh
                            0E613h
                              0E608h
                                0E5FBh
                                  0E5FDh - Recursive
                                0E60Bh
                            0E5FBh
                              0E5FDh - Recursive
                            0E60Bh
                        0EB04h
                      0F14Ah
                        0F045h - Recursive
                    0F059h
                      0F14Dh
                        0F1CDh
                      0EC98h
                      0F031h
                        0F00Eh
                          0F162h
                        0F040h
                          0F041h - Recursive
                        0F14Dh
                          0F1CDh
                        0F041h - Recursive
                      0F1CDh
                      0F4EBh
                        0F544h
                        0F55Ch
                      0F57Ah
                        0F544h
                        0F56Bh
                        0F55Ch
                      0E4ACh
                        0E477h
                        0E49Ch
                        0E422h
                          0E410h
                            0E400h
                        0E44Fh
                          0E410h
                            0E400h
                        0E42Fh
                          0E410h
                            0E400h
                          0E44Eh
                      0F1C9h
                        0F1CDh
                      0F1BEh
                        0E5F2h
                          0E5FDh
                            0E613h
                              0E608h
                                0E5FBh
                                  0E5FDh - Recursive
                                0E60Bh
                            0E5FBh
                              0E5FDh - Recursive
                            0E60Bh
                        0EB04h
                      0F14Ah
                        0F045h - Recursive
                    0F14Dh
                      0F1CDh
                  0F059h
                    0F14Dh
                      0F1CDh
                    0EC98h
                    0F031h
                      0F00Eh
                        0F162h
                      0F040h
                        0F041h - Recursive
                      0F14Dh
                        0F1CDh
                      0F041h - Recursive
                    0F1CDh
                    0F4EBh
                      0F544h
                      0F55Ch
                    0F57Ah
                      0F544h
                      0F56Bh
                      0F55Ch
                    0E4ACh
                      0E477h
                      0E49Ch
                      0E422h
                        0E410h
                          0E400h
                      0E44Fh
                        0E410h
                          0E400h
                      0E42Fh
                        0E410h
                          0E400h
                        0E44Eh
                    0F1C9h
                      0F1CDh
                    0F1BEh
                      0E5F2h
                        0E5FDh
                          0E613h
                            0E608h
                              0E5FBh
                                0E5FDh - Recursive
                              0E60Bh
                          0E5FBh
                            0E5FDh - Recursive
                          0E60Bh
                      0EB04h
                    0F14Ah
                      0F045h - Recursive
              0F23Dh
              0E6A3h
                0E477h
                0E641h
                  0E63Eh
                    0E635h
                      0E5A1h
                        0E5A6h
                          0E4D9h
                            0E400h
                          0E312h
                          0E529h
                          0E328h
                          0E477h
                          0E4CFh
                            0E400h
                          0E4ACh
                            0E477h
                            0E49Ch
                            0E422h
                              0E410h
                                0E400h
                            0E44Fh
                              0E410h
                                0E400h
                            0E42Fh
                              0E410h
                                0E400h
                              0E44Eh
                      0E63Eh - Recursive
                0E6B8h
                  0E5A1h
                    0E5A6h
                      0E4D9h
                        0E400h
                      0E312h
                      0E529h
                      0E328h
                      0E477h
                      0E4CFh
                        0E400h
                      0E4ACh
                        0E477h
                        0E49Ch
                        0E422h
                          0E410h
                            0E400h
                        0E44Fh
                          0E410h
                            0E400h
                        0E42Fh
                          0E410h
                            0E400h
                          0E44Eh
                  0E635h
                    0E5A1h
                      0E5A6h
                        0E4D9h
                          0E400h
                        0E312h
                        0E529h
                        0E328h
                        0E477h
                        0E4CFh
                          0E400h
                        0E4ACh
                          0E477h
                          0E49Ch
                          0E422h
                            0E410h
                              0E400h
                          0E44Fh
                            0E410h
                              0E400h
                          0E42Fh
                            0E410h
                              0E400h
                            0E44Eh
                    0E63Eh
                      0E635h - Recursive
              0E4ACh
                0E477h
                0E49Ch
                0E422h
                  0E410h
                    0E400h
                0E44Fh
                  0E410h
                    0E400h
                0E42Fh
                  0E410h
                    0E400h
                  0E44Eh
              0E5FDh
                0E613h
                  0E608h
                    0E5FBh
                      0E5FDh - Recursive
                    0E60Bh
                0E5FBh
                  0E5FDh - Recursive
                0E60Bh
              0EB04h
              0F235h
                0F238h
                  0F041h
                    0F045h
                      0F00Eh
                        0F162h
                      0F16Ch
                        0F1B5h
                          0F1B8h
                            0F1C9h
                              0F1CDh
                        0F14Ah
                          0F045h - Recursive
                        0EC98h
                        0F14Dh
                          0F1CDh
                      0F185h
                        0F1B8h
                          0F1C9h
                            0F1CDh
                        0E2F5h
                          0E30Dh
                        0F031h
                          0F00Eh
                            0F162h
                          0F040h
                            0F041h - Recursive
                          0F14Dh
                            0F1CDh
                          0F041h - Recursive
                        0F0BFh
                          0F1CDh
                          0F4EBh
                            0F544h
                            0F55Ch
                          0F57Ah
                            0F544h
                            0F56Bh
                            0F55Ch
                          0E4ACh
                            0E477h
                            0E49Ch
                            0E422h
                              0E410h
                                0E400h
                            0E44Fh
                              0E410h
                                0E400h
                            0E42Fh
                              0E410h
                                0E400h
                              0E44Eh
                          0F14Dh
                            0F1CDh
                          0F1C9h
                            0F1CDh
                          0F1BEh
                            0E5F2h
                              0E5FDh
                                0E613h
                                  0E608h
                                    0E5FBh
                                      0E5FDh - Recursive
                                    0E60Bh
                                0E5FBh
                                  0E5FDh - Recursive
                                0E60Bh
                            0EB04h
                          0F14Ah
                            0F045h - Recursive
                        0F059h
                          0F14Dh
                            0F1CDh
                          0EC98h
                          0F031h
                            0F00Eh
                              0F162h
                            0F040h
                              0F041h - Recursive
                            0F14Dh
                              0F1CDh
                            0F041h - Recursive
                          0F1CDh
                          0F4EBh
                            0F544h
                            0F55Ch
                          0F57Ah
                            0F544h
                            0F56Bh
                            0F55Ch
                          0E4ACh
                            0E477h
                            0E49Ch
                            0E422h
                              0E410h
                                0E400h
                            0E44Fh
                              0E410h
                                0E400h
                            0E42Fh
                              0E410h
                                0E400h
                              0E44Eh
                          0F1C9h
                            0F1CDh
                          0F1BEh
                            0E5F2h
                              0E5FDh
                                0E613h
                                  0E608h
                                    0E5FBh
                                      0E5FDh - Recursive
                                    0E60Bh
                                0E5FBh
                                  0E5FDh - Recursive
                                0E60Bh
                            0EB04h
                          0F14Ah
                            0F045h - Recursive
                        0F14Dh
                          0F1CDh
                      0F059h
                        0F14Dh
                          0F1CDh
                        0EC98h
                        0F031h
                          0F00Eh
                            0F162h
                          0F040h
                            0F041h - Recursive
                          0F14Dh
                            0F1CDh
                          0F041h - Recursive
                        0F1CDh
                        0F4EBh
                          0F544h
                          0F55Ch
                        0F57Ah
                          0F544h
                          0F56Bh
                          0F55Ch
                        0E4ACh
                          0E477h
                          0E49Ch
                          0E422h
                            0E410h
                              0E400h
                          0E44Fh
                            0E410h
                              0E400h
                          0E42Fh
                            0E410h
                              0E400h
                            0E44Eh
                        0F1C9h
                          0F1CDh
                        0F1BEh
                          0E5F2h
                            0E5FDh
                              0E613h
                                0E608h
                                  0E5FBh
                                    0E5FDh - Recursive
                                  0E60Bh
                              0E5FBh
                                0E5FDh - Recursive
                              0E60Bh
                          0EB04h
                        0F14Ah
                          0F045h - Recursive
                  0F235h - Recursive
    0E0BDh
    0E35Bh
      0E35Eh
        0E369h
          0EC98h
          0E3D3h
          0E3DBh
            0E374h
              0EC98h
              0E3C4h
                0E3D1h
                  0E3D3h
                0E351h
              0E3D3h
              0E369h - Recursive
              0E3DBh - Recursive
              0E3C1h
                0E374h - Recursive
            0E3C1h
              0E374h
                0EC98h
                0E3C4h
                  0E3D1h
                    0E3D3h
                  0E351h
                0E3D3h
                0E369h - Recursive
                0E3DBh - Recursive
                0E3C1h - Recursive
          0E3D1h
            0E3D3h
          0E351h
    0E00Dh
      0EC8Ah
      0F1DFh
        0F041h
          0F045h
            0F00Eh
              0F162h
            0F16Ch
              0F1B5h
                0F1B8h
                  0F1C9h
                    0F1CDh
              0F14Ah
                0F045h - Recursive
              0EC98h
              0F14Dh
                0F1CDh
            0F185h
              0F1B8h
                0F1C9h
                  0F1CDh
              0E2F5h
                0E30Dh
              0F031h
                0F00Eh
                  0F162h
                0F040h
                  0F041h - Recursive
                0F14Dh
                  0F1CDh
                0F041h - Recursive
              0F0BFh
                0F1CDh
                0F4EBh
                  0F544h
                  0F55Ch
                0F57Ah
                  0F544h
                  0F56Bh
                  0F55Ch
                0E4ACh
                  0E477h
                  0E49Ch
                  0E422h
                    0E410h
                      0E400h
                  0E44Fh
                    0E410h
                      0E400h
                  0E42Fh
                    0E410h
                      0E400h
                    0E44Eh
                0F14Dh
                  0F1CDh
                0F1C9h
                  0F1CDh
                0F1BEh
                  0E5F2h
                    0E5FDh
                      0E613h
                        0E608h
                          0E5FBh
                            0E5FDh - Recursive
                          0E60Bh
                      0E5FBh
                        0E5FDh - Recursive
                      0E60Bh
                  0EB04h
                0F14Ah
                  0F045h - Recursive
              0F059h
                0F14Dh
                  0F1CDh
                0EC98h
                0F031h
                  0F00Eh
                    0F162h
                  0F040h
                    0F041h - Recursive
                  0F14Dh
                    0F1CDh
                  0F041h - Recursive
                0F1CDh
                0F4EBh
                  0F544h
                  0F55Ch
                0F57Ah
                  0F544h
                  0F56Bh
                  0F55Ch
                0E4ACh
                  0E477h
                  0E49Ch
                  0E422h
                    0E410h
                      0E400h
                  0E44Fh
                    0E410h
                      0E400h
                  0E42Fh
                    0E410h
                      0E400h
                    0E44Eh
                0F1C9h
                  0F1CDh
                0F1BEh
                  0E5F2h
                    0E5FDh
                      0E613h
                        0E608h
                          0E5FBh
                            0E5FDh - Recursive
                          0E60Bh
                      0E5FBh
                        0E5FDh - Recursive
                      0E60Bh
                  0EB04h
                0F14Ah
                  0F045h - Recursive
              0F14Dh
                0F1CDh
            0F059h
              0F14Dh
                0F1CDh
              0EC98h
              0F031h
                0F00Eh
                  0F162h
                0F040h
                  0F041h - Recursive
                0F14Dh
                  0F1CDh
                0F041h - Recursive
              0F1CDh
              0F4EBh
                0F544h
                0F55Ch
              0F57Ah
                0F544h
                0F56Bh
                0F55Ch
              0E4ACh
                0E477h
                0E49Ch
                0E422h
                  0E410h
                    0E400h
                0E44Fh
                  0E410h
                    0E400h
                0E42Fh
                  0E410h
                    0E400h
                  0E44Eh
              0F1C9h
                0F1CDh
              0F1BEh
                0E5F2h
                  0E5FDh
                    0E613h
                      0E608h
                        0E5FBh
                          0E5FDh - Recursive
                        0E60Bh
                    0E5FBh
                      0E5FDh - Recursive
                    0E60Bh
                0EB04h
              0F14Ah
                0F045h - Recursive
        0F23Dh
        0E6A3h
          0E477h
          0E641h
            0E63Eh
              0E635h
                0E5A1h
                  0E5A6h
                    0E4D9h
                      0E400h
                    0E312h
                    0E529h
                    0E328h
                    0E477h
                    0E4CFh
                      0E400h
                    0E4ACh
                      0E477h
                      0E49Ch
                      0E422h
                        0E410h
                          0E400h
                      0E44Fh
                        0E410h
                          0E400h
                      0E42Fh
                        0E410h
                          0E400h
                        0E44Eh
                0E63Eh - Recursive
          0E6B8h
            0E5A1h
              0E5A6h
                0E4D9h
                  0E400h
                0E312h
                0E529h
                0E328h
                0E477h
                0E4CFh
                  0E400h
                0E4ACh
                  0E477h
                  0E49Ch
                  0E422h
                    0E410h
                      0E400h
                  0E44Fh
                    0E410h
                      0E400h
                  0E42Fh
                    0E410h
                      0E400h
                    0E44Eh
            0E635h
              0E5A1h
                0E5A6h
                  0E4D9h
                    0E400h
                  0E312h
                  0E529h
                  0E328h
                  0E477h
                  0E4CFh
                    0E400h
                  0E4ACh
                    0E477h
                    0E49Ch
                    0E422h
                      0E410h
                        0E400h
                    0E44Fh
                      0E410h
                        0E400h
                    0E42Fh
                      0E410h
                        0E400h
                      0E44Eh
              0E63Eh
                0E635h - Recursive
        0E4ACh
          0E477h
          0E49Ch
          0E422h
            0E410h
              0E400h
          0E44Fh
            0E410h
              0E400h
          0E42Fh
            0E410h
              0E400h
            0E44Eh
        0E5FDh
          0E613h
            0E608h
              0E5FBh
                0E5FDh - Recursive
              0E60Bh
          0E5FBh
            0E5FDh - Recursive
          0E60Bh
        0EB04h
        0F235h
          0F238h
            0F041h
              0F045h
                0F00Eh
                  0F162h
                0F16Ch
                  0F1B5h
                    0F1B8h
                      0F1C9h
                        0F1CDh
                  0F14Ah
                    0F045h - Recursive
                  0EC98h
                  0F14Dh
                    0F1CDh
                0F185h
                  0F1B8h
                    0F1C9h
                      0F1CDh
                  0E2F5h
                    0E30Dh
                  0F031h
                    0F00Eh
                      0F162h
                    0F040h
                      0F041h - Recursive
                    0F14Dh
                      0F1CDh
                    0F041h - Recursive
                  0F0BFh
                    0F1CDh
                    0F4EBh
                      0F544h
                      0F55Ch
                    0F57Ah
                      0F544h
                      0F56Bh
                      0F55Ch
                    0E4ACh
                      0E477h
                      0E49Ch
                      0E422h
                        0E410h
                          0E400h
                      0E44Fh
                        0E410h
                          0E400h
                      0E42Fh
                        0E410h
                          0E400h
                        0E44Eh
                    0F14Dh
                      0F1CDh
                    0F1C9h
                      0F1CDh
                    0F1BEh
                      0E5F2h
                        0E5FDh
                          0E613h
                            0E608h
                              0E5FBh
                                0E5FDh - Recursive
                              0E60Bh
                          0E5FBh
                            0E5FDh - Recursive
                          0E60Bh
                      0EB04h
                    0F14Ah
                      0F045h - Recursive
                  0F059h
                    0F14Dh
                      0F1CDh
                    0EC98h
                    0F031h
                      0F00Eh
                        0F162h
                      0F040h
                        0F041h - Recursive
                      0F14Dh
                        0F1CDh
                      0F041h - Recursive
                    0F1CDh
                    0F4EBh
                      0F544h
                      0F55Ch
                    0F57Ah
                      0F544h
                      0F56Bh
                      0F55Ch
                    0E4ACh
                      0E477h
                      0E49Ch
                      0E422h
                        0E410h
                          0E400h
                      0E44Fh
                        0E410h
                          0E400h
                      0E42Fh
                        0E410h
                          0E400h
                        0E44Eh
                    0F1C9h
                      0F1CDh
                    0F1BEh
                      0E5F2h
                        0E5FDh
                          0E613h
                            0E608h
                              0E5FBh
                                0E5FDh - Recursive
                              0E60Bh
                          0E5FBh
                            0E5FDh - Recursive
                          0E60Bh
                      0EB04h
                    0F14Ah
                      0F045h - Recursive
                  0F14Dh
                    0F1CDh
                0F059h
                  0F14Dh
                    0F1CDh
                  0EC98h
                  0F031h
                    0F00Eh
                      0F162h
                    0F040h
                      0F041h - Recursive
                    0F14Dh
                      0F1CDh
                    0F041h - Recursive
                  0F1CDh
                  0F4EBh
                    0F544h
                    0F55Ch
                  0F57Ah
                    0F544h
                    0F56Bh
                    0F55Ch
                  0E4ACh
                    0E477h
                    0E49Ch
                    0E422h
                      0E410h
                        0E400h
                    0E44Fh
                      0E410h
                        0E400h
                    0E42Fh
                      0E410h
                        0E400h
                      0E44Eh
                  0F1C9h
                    0F1CDh
                  0F1BEh
                    0E5F2h
                      0E5FDh
                        0E613h
                          0E608h
                            0E5FBh
                              0E5FDh - Recursive
                            0E60Bh
                        0E5FBh
                          0E5FDh - Recursive
                        0E60Bh
                    0EB04h
                  0F14Ah
                    0F045h - Recursive
            0F235h - Recursive
    0EC8Ah
    0EC6Fh
      0EC80h
  0E04Ah
    0E0DFh
      0E0E2h
        0E1BEh
          0E2F5h
            0E30Dh
    0E020h
      0F1D9h
        0EC98h
        0E003h
          0EF6Ch
          0ED0Fh
          0E00Dh
            0EC8Ah
            0F1DFh
              0F041h
                0F045h
                  0F00Eh
                    0F162h
                  0F16Ch
                    0F1B5h
                      0F1B8h
                        0F1C9h
                          0F1CDh
                    0F14Ah
                      0F045h - Recursive
                    0EC98h
                    0F14Dh
                      0F1CDh
                  0F185h
                    0F1B8h
                      0F1C9h
                        0F1CDh
                    0E2F5h
                      0E30Dh
                    0F031h
                      0F00Eh
                        0F162h
                      0F040h
                        0F041h - Recursive
                      0F14Dh
                        0F1CDh
                      0F041h - Recursive
                    0F0BFh
                      0F1CDh
                      0F4EBh
                        0F544h
                        0F55Ch
                      0F57Ah
                        0F544h
                        0F56Bh
                        0F55Ch
                      0E4ACh
                        0E477h
                        0E49Ch
                        0E422h
                          0E410h
                            0E400h
                        0E44Fh
                          0E410h
                            0E400h
                        0E42Fh
                          0E410h
                            0E400h
                          0E44Eh
                      0F14Dh
                        0F1CDh
                      0F1C9h
                        0F1CDh
                      0F1BEh
                        0E5F2h
                          0E5FDh
                            0E613h
                              0E608h
                                0E5FBh
                                  0E5FDh - Recursive
                                0E60Bh
                            0E5FBh
                              0E5FDh - Recursive
                            0E60Bh
                        0EB04h
                      0F14Ah
                        0F045h - Recursive
                    0F059h
                      0F14Dh
                        0F1CDh
                      0EC98h
                      0F031h
                        0F00Eh
                          0F162h
                        0F040h
                          0F041h - Recursive
                        0F14Dh
                          0F1CDh
                        0F041h - Recursive
                      0F1CDh
                      0F4EBh
                        0F544h
                        0F55Ch
                      0F57Ah
                        0F544h
                        0F56Bh
                        0F55Ch
                      0E4ACh
                        0E477h
                        0E49Ch
                        0E422h
                          0E410h
                            0E400h
                        0E44Fh
                          0E410h
                            0E400h
                        0E42Fh
                          0E410h
                            0E400h
                          0E44Eh
                      0F1C9h
                        0F1CDh
                      0F1BEh
                        0E5F2h
                          0E5FDh
                            0E613h
                              0E608h
                                0E5FBh
                                  0E5FDh - Recursive
                                0E60Bh
                            0E5FBh
                              0E5FDh - Recursive
                            0E60Bh
                        0EB04h
                      0F14Ah
                        0F045h - Recursive
                    0F14Dh
                      0F1CDh
                  0F059h
                    0F14Dh
                      0F1CDh
                    0EC98h
                    0F031h
                      0F00Eh
                        0F162h
                      0F040h
                        0F041h - Recursive
                      0F14Dh
                        0F1CDh
                      0F041h - Recursive
                    0F1CDh
                    0F4EBh
                      0F544h
                      0F55Ch
                    0F57Ah
                      0F544h
                      0F56Bh
                      0F55Ch
                    0E4ACh
                      0E477h
                      0E49Ch
                      0E422h
                        0E410h
                          0E400h
                      0E44Fh
                        0E410h
                          0E400h
                      0E42Fh
                        0E410h
                          0E400h
                        0E44Eh
                    0F1C9h
                      0F1CDh
                    0F1BEh
                      0E5F2h
                        0E5FDh
                          0E613h
                            0E608h
                              0E5FBh
                                0E5FDh - Recursive
                              0E60Bh
                          0E5FBh
                            0E5FDh - Recursive
                          0E60Bh
                      0EB04h
                    0F14Ah
                      0F045h - Recursive
              0F23Dh
              0E6A3h
                0E477h
                0E641h
                  0E63Eh
                    0E635h
                      0E5A1h
                        0E5A6h
                          0E4D9h
                            0E400h
                          0E312h
                          0E529h
                          0E328h
                          0E477h
                          0E4CFh
                            0E400h
                          0E4ACh
                            0E477h
                            0E49Ch
                            0E422h
                              0E410h
                                0E400h
                            0E44Fh
                              0E410h
                                0E400h
                            0E42Fh
                              0E410h
                                0E400h
                              0E44Eh
                      0E63Eh - Recursive
                0E6B8h
                  0E5A1h
                    0E5A6h
                      0E4D9h
                        0E400h
                      0E312h
                      0E529h
                      0E328h
                      0E477h
                      0E4CFh
                        0E400h
                      0E4ACh
                        0E477h
                        0E49Ch
                        0E422h
                          0E410h
                            0E400h
                        0E44Fh
                          0E410h
                            0E400h
                        0E42Fh
                          0E410h
                            0E400h
                          0E44Eh
                  0E635h
                    0E5A1h
                      0E5A6h
                        0E4D9h
                          0E400h
                        0E312h
                        0E529h
                        0E328h
                        0E477h
                        0E4CFh
                          0E400h
                        0E4ACh
                          0E477h
                          0E49Ch
                          0E422h
                            0E410h
                              0E400h
                          0E44Fh
                            0E410h
                              0E400h
                          0E42Fh
                            0E410h
                              0E400h
                            0E44Eh
                    0E63Eh
                      0E635h - Recursive
              0E4ACh
                0E477h
                0E49Ch
                0E422h
                  0E410h
                    0E400h
                0E44Fh
                  0E410h
                    0E400h
                0E42Fh
                  0E410h
                    0E400h
                  0E44Eh
              0E5FDh
                0E613h
                  0E608h
                    0E5FBh
                      0E5FDh - Recursive
                    0E60Bh
                0E5FBh
                  0E5FDh - Recursive
                0E60Bh
              0EB04h
              0F235h
                0F238h
                  0F041h
                    0F045h
                      0F00Eh
                        0F162h
                      0F16Ch
                        0F1B5h
                          0F1B8h
                            0F1C9h
                              0F1CDh
                        0F14Ah
                          0F045h - Recursive
                        0EC98h
                        0F14Dh
                          0F1CDh
                      0F185h
                        0F1B8h
                          0F1C9h
                            0F1CDh
                        0E2F5h
                          0E30Dh
                        0F031h
                          0F00Eh
                            0F162h
                          0F040h
                            0F041h - Recursive
                          0F14Dh
                            0F1CDh
                          0F041h - Recursive
                        0F0BFh
                          0F1CDh
                          0F4EBh
                            0F544h
                            0F55Ch
                          0F57Ah
                            0F544h
                            0F56Bh
                            0F55Ch
                          0E4ACh
                            0E477h
                            0E49Ch
                            0E422h
                              0E410h
                                0E400h
                            0E44Fh
                              0E410h
                                0E400h
                            0E42Fh
                              0E410h
                                0E400h
                              0E44Eh
                          0F14Dh
                            0F1CDh
                          0F1C9h
                            0F1CDh
                          0F1BEh
                            0E5F2h
                              0E5FDh
                                0E613h
                                  0E608h
                                    0E5FBh
                                      0E5FDh - Recursive
                                    0E60Bh
                                0E5FBh
                                  0E5FDh - Recursive
                                0E60Bh
                            0EB04h
                          0F14Ah
                            0F045h - Recursive
                        0F059h
                          0F14Dh
                            0F1CDh
                          0EC98h
                          0F031h
                            0F00Eh
                              0F162h
                            0F040h
                              0F041h - Recursive
                            0F14Dh
                              0F1CDh
                            0F041h - Recursive
                          0F1CDh
                          0F4EBh
                            0F544h
                            0F55Ch
                          0F57Ah
                            0F544h
                            0F56Bh
                            0F55Ch
                          0E4ACh
                            0E477h
                            0E49Ch
                            0E422h
                              0E410h
                                0E400h
                            0E44Fh
                              0E410h
                                0E400h
                            0E42Fh
                              0E410h
                                0E400h
                              0E44Eh
                          0F1C9h
                            0F1CDh
                          0F1BEh
                            0E5F2h
                              0E5FDh
                                0E613h
                                  0E608h
                                    0E5FBh
                                      0E5FDh - Recursive
                                    0E60Bh
                                0E5FBh
                                  0E5FDh - Recursive
                                0E60Bh
                            0EB04h
                          0F14Ah
                            0F045h - Recursive
                        0F14Dh
                          0F1CDh
                      0F059h
                        0F14Dh
                          0F1CDh
                        0EC98h
                        0F031h
                          0F00Eh
                            0F162h
                          0F040h
                            0F041h - Recursive
                          0F14Dh
                            0F1CDh
                          0F041h - Recursive
                        0F1CDh
                        0F4EBh
                          0F544h
                          0F55Ch
                        0F57Ah
                          0F544h
                          0F56Bh
                          0F55Ch
                        0E4ACh
                          0E477h
                          0E49Ch
                          0E422h
                            0E410h
                              0E400h
                          0E44Fh
                            0E410h
                              0E400h
                          0E42Fh
                            0E410h
                              0E400h
                            0E44Eh
                        0F1C9h
                          0F1CDh
                        0F1BEh
                          0E5F2h
                            0E5FDh
                              0E613h
                                0E608h
                                  0E5FBh
                                    0E5FDh - Recursive
                                  0E60Bh
                              0E5FBh
                                0E5FDh - Recursive
                              0E60Bh
                          0EB04h
                        0F14Ah
                          0F045h - Recursive
                  0F235h - Recursive
0E04Ah - Entry Point
  0E0DFh
    0E0E2h
      0E1BEh
        0E2F5h
          0E30Dh
  0E020h
    0F1D9h
      0EC98h
      0E003h
        0EF6Ch
        0ED0Fh
        0E00Dh
          0EC8Ah
          0F1DFh
            0F041h
              0F045h
                0F00Eh
                  0F162h
                0F16Ch
                  0F1B5h
                    0F1B8h
                      0F1C9h
                        0F1CDh
                  0F14Ah
                    0F045h - Recursive
                  0EC98h
                  0F14Dh
                    0F1CDh
                0F185h
                  0F1B8h
                    0F1C9h
                      0F1CDh
                  0E2F5h
                    0E30Dh
                  0F031h
                    0F00Eh
                      0F162h
                    0F040h
                      0F041h - Recursive
                    0F14Dh
                      0F1CDh
                    0F041h - Recursive
                  0F0BFh
                    0F1CDh
                    0F4EBh
                      0F544h
                      0F55Ch
                    0F57Ah
                      0F544h
                      0F56Bh
                      0F55Ch
                    0E4ACh
                      0E477h
                      0E49Ch
                      0E422h
                        0E410h
                          0E400h
                      0E44Fh
                        0E410h
                          0E400h
                      0E42Fh
                        0E410h
                          0E400h
                        0E44Eh
                    0F14Dh
                      0F1CDh
                    0F1C9h
                      0F1CDh
                    0F1BEh
                      0E5F2h
                        0E5FDh
                          0E613h
                            0E608h
                              0E5FBh
                                0E5FDh - Recursive
                              0E60Bh
                          0E5FBh
                            0E5FDh - Recursive
                          0E60Bh
                      0EB04h
                    0F14Ah
                      0F045h - Recursive
                  0F059h
                    0F14Dh
                      0F1CDh
                    0EC98h
                    0F031h
                      0F00Eh
                        0F162h
                      0F040h
                        0F041h - Recursive
                      0F14Dh
                        0F1CDh
                      0F041h - Recursive
                    0F1CDh
                    0F4EBh
                      0F544h
                      0F55Ch
                    0F57Ah
                      0F544h
                      0F56Bh
                      0F55Ch
                    0E4ACh
                      0E477h
                      0E49Ch
                      0E422h
                        0E410h
                          0E400h
                      0E44Fh
                        0E410h
                          0E400h
                      0E42Fh
                        0E410h
                          0E400h
                        0E44Eh
                    0F1C9h
                      0F1CDh
                    0F1BEh
                      0E5F2h
                        0E5FDh
                          0E613h
                            0E608h
                              0E5FBh
                                0E5FDh - Recursive
                              0E60Bh
                          0E5FBh
                            0E5FDh - Recursive
                          0E60Bh
                      0EB04h
                    0F14Ah
                      0F045h - Recursive
                  0F14Dh
                    0F1CDh
                0F059h
                  0F14Dh
                    0F1CDh
                  0EC98h
                  0F031h
                    0F00Eh
                      0F162h
                    0F040h
                      0F041h - Recursive
                    0F14Dh
                      0F1CDh
                    0F041h - Recursive
                  0F1CDh
                  0F4EBh
                    0F544h
                    0F55Ch
                  0F57Ah
                    0F544h
                    0F56Bh
                    0F55Ch
                  0E4ACh
                    0E477h
                    0E49Ch
                    0E422h
                      0E410h
                        0E400h
                    0E44Fh
                      0E410h
                        0E400h
                    0E42Fh
                      0E410h
                        0E400h
                      0E44Eh
                  0F1C9h
                    0F1CDh
                  0F1BEh
                    0E5F2h
                      0E5FDh
                        0E613h
                          0E608h
                            0E5FBh
                              0E5FDh - Recursive
                            0E60Bh
                        0E5FBh
                          0E5FDh - Recursive
                        0E60Bh
                    0EB04h
                  0F14Ah
                    0F045h - Recursive
            0F23Dh
            0E6A3h
              0E477h
              0E641h
                0E63Eh
                  0E635h
                    0E5A1h
                      0E5A6h
                        0E4D9h
                          0E400h
                        0E312h
                        0E529h
                        0E328h
                        0E477h
                        0E4CFh
                          0E400h
                        0E4ACh
                          0E477h
                          0E49Ch
                          0E422h
                            0E410h
                              0E400h
                          0E44Fh
                            0E410h
                              0E400h
                          0E42Fh
                            0E410h
                              0E400h
                            0E44Eh
                    0E63Eh - Recursive
              0E6B8h
                0E5A1h
                  0E5A6h
                    0E4D9h
                      0E400h
                    0E312h
                    0E529h
                    0E328h
                    0E477h
                    0E4CFh
                      0E400h
                    0E4ACh
                      0E477h
                      0E49Ch
                      0E422h
                        0E410h
                          0E400h
                      0E44Fh
                        0E410h
                          0E400h
                      0E42Fh
                        0E410h
                          0E400h
                        0E44Eh
                0E635h
                  0E5A1h
                    0E5A6h
                      0E4D9h
                        0E400h
                      0E312h
                      0E529h
                      0E328h
                      0E477h
                      0E4CFh
                        0E400h
                      0E4ACh
                        0E477h
                        0E49Ch
                        0E422h
                          0E410h
                            0E400h
                        0E44Fh
                          0E410h
                            0E400h
                        0E42Fh
                          0E410h
                            0E400h
                          0E44Eh
                  0E63Eh
                    0E635h - Recursive
            0E4ACh
              0E477h
              0E49Ch
              0E422h
                0E410h
                  0E400h
              0E44Fh
                0E410h
                  0E400h
              0E42Fh
                0E410h
                  0E400h
                0E44Eh
            0E5FDh
              0E613h
                0E608h
                  0E5FBh
                    0E5FDh - Recursive
                  0E60Bh
              0E5FBh
                0E5FDh - Recursive
              0E60Bh
            0EB04h
            0F235h
              0F238h
                0F041h
                  0F045h
                    0F00Eh
                      0F162h
                    0F16Ch
                      0F1B5h
                        0F1B8h
                          0F1C9h
                            0F1CDh
                      0F14Ah
                        0F045h - Recursive
                      0EC98h
                      0F14Dh
                        0F1CDh
                    0F185h
                      0F1B8h
                        0F1C9h
                          0F1CDh
                      0E2F5h
                        0E30Dh
                      0F031h
                        0F00Eh
                          0F162h
                        0F040h
                          0F041h - Recursive
                        0F14Dh
                          0F1CDh
                        0F041h - Recursive
                      0F0BFh
                        0F1CDh
                        0F4EBh
                          0F544h
                          0F55Ch
                        0F57Ah
                          0F544h
                          0F56Bh
                          0F55Ch
                        0E4ACh
                          0E477h
                          0E49Ch
                          0E422h
                            0E410h
                              0E400h
                          0E44Fh
                            0E410h
                              0E400h
                          0E42Fh
                            0E410h
                              0E400h
                            0E44Eh
                        0F14Dh
                          0F1CDh
                        0F1C9h
                          0F1CDh
                        0F1BEh
                          0E5F2h
                            0E5FDh
                              0E613h
                                0E608h
                                  0E5FBh
                                    0E5FDh - Recursive
                                  0E60Bh
                              0E5FBh
                                0E5FDh - Recursive
                              0E60Bh
                          0EB04h
                        0F14Ah
                          0F045h - Recursive
                      0F059h
                        0F14Dh
                          0F1CDh
                        0EC98h
                        0F031h
                          0F00Eh
                            0F162h
                          0F040h
                            0F041h - Recursive
                          0F14Dh
                            0F1CDh
                          0F041h - Recursive
                        0F1CDh
                        0F4EBh
                          0F544h
                          0F55Ch
                        0F57Ah
                          0F544h
                          0F56Bh
                          0F55Ch
                        0E4ACh
                          0E477h
                          0E49Ch
                          0E422h
                            0E410h
                              0E400h
                          0E44Fh
                            0E410h
                              0E400h
                          0E42Fh
                            0E410h
                              0E400h
                            0E44Eh
                        0F1C9h
                          0F1CDh
                        0F1BEh
                          0E5F2h
                            0E5FDh
                              0E613h
                                0E608h
                                  0E5FBh
                                    0E5FDh - Recursive
                                  0E60Bh
                              0E5FBh
                                0E5FDh - Recursive
                              0E60Bh
                          0EB04h
                        0F14Ah
                          0F045h - Recursive
                      0F14Dh
                        0F1CDh
                    0F059h
                      0F14Dh
                        0F1CDh
                      0EC98h
                      0F031h
                        0F00Eh
                          0F162h
                        0F040h
                          0F041h - Recursive
                        0F14Dh
                          0F1CDh
                        0F041h - Recursive
                      0F1CDh
                      0F4EBh
                        0F544h
                        0F55Ch
                      0F57Ah
                        0F544h
                        0F56Bh
                        0F55Ch
                      0E4ACh
                        0E477h
                        0E49Ch
                        0E422h
                          0E410h
                            0E400h
                        0E44Fh
                          0E410h
                            0E400h
                        0E42Fh
                          0E410h
                            0E400h
                          0E44Eh
                      0F1C9h
                        0F1CDh
                      0F1BEh
                        0E5F2h
                          0E5FDh
                            0E613h
                              0E608h
                                0E5FBh
                                  0E5FDh - Recursive
                                0E60Bh
                            0E5FBh
                              0E5FDh - Recursive
                            0E60Bh
                        0EB04h
                      0F14Ah
                        0F045h - Recursive
                0F235h - Recursive
0E04Fh - Entry Point
  0E172h
    0E144h
      0E2F5h
        0E30Dh
  0E144h
    0E2F5h
      0E30Dh
  0E04Ah
    0E0DFh
      0E0E2h
        0E1BEh
          0E2F5h
            0E30Dh
    0E020h
      0F1D9h
        0EC98h
        0E003h
          0EF6Ch
          0ED0Fh
          0E00Dh
            0EC8Ah
            0F1DFh
              0F041h
                0F045h
                  0F00Eh
                    0F162h
                  0F16Ch
                    0F1B5h
                      0F1B8h
                        0F1C9h
                          0F1CDh
                    0F14Ah
                      0F045h - Recursive
                    0EC98h
                    0F14Dh
                      0F1CDh
                  0F185h
                    0F1B8h
                      0F1C9h
                        0F1CDh
                    0E2F5h
                      0E30Dh
                    0F031h
                      0F00Eh
                        0F162h
                      0F040h
                        0F041h - Recursive
                      0F14Dh
                        0F1CDh
                      0F041h - Recursive
                    0F0BFh
                      0F1CDh
                      0F4EBh
                        0F544h
                        0F55Ch
                      0F57Ah
                        0F544h
                        0F56Bh
                        0F55Ch
                      0E4ACh
                        0E477h
                        0E49Ch
                        0E422h
                          0E410h
                            0E400h
                        0E44Fh
                          0E410h
                            0E400h
                        0E42Fh
                          0E410h
                            0E400h
                          0E44Eh
                      0F14Dh
                        0F1CDh
                      0F1C9h
                        0F1CDh
                      0F1BEh
                        0E5F2h
                          0E5FDh
                            0E613h
                              0E608h
                                0E5FBh
                                  0E5FDh - Recursive
                                0E60Bh
                            0E5FBh
                              0E5FDh - Recursive
                            0E60Bh
                        0EB04h
                      0F14Ah
                        0F045h - Recursive
                    0F059h
                      0F14Dh
                        0F1CDh
                      0EC98h
                      0F031h
                        0F00Eh
                          0F162h
                        0F040h
                          0F041h - Recursive
                        0F14Dh
                          0F1CDh
                        0F041h - Recursive
                      0F1CDh
                      0F4EBh
                        0F544h
                        0F55Ch
                      0F57Ah
                        0F544h
                        0F56Bh
                        0F55Ch
                      0E4ACh
                        0E477h
                        0E49Ch
                        0E422h
                          0E410h
                            0E400h
                        0E44Fh
                          0E410h
                            0E400h
                        0E42Fh
                          0E410h
                            0E400h
                          0E44Eh
                      0F1C9h
                        0F1CDh
                      0F1BEh
                        0E5F2h
                          0E5FDh
                            0E613h
                              0E608h
                                0E5FBh
                                  0E5FDh - Recursive
                                0E60Bh
                            0E5FBh
                              0E5FDh - Recursive
                            0E60Bh
                        0EB04h
                      0F14Ah
                        0F045h - Recursive
                    0F14Dh
                      0F1CDh
                  0F059h
                    0F14Dh
                      0F1CDh
                    0EC98h
                    0F031h
                      0F00Eh
                        0F162h
                      0F040h
                        0F041h - Recursive
                      0F14Dh
                        0F1CDh
                      0F041h - Recursive
                    0F1CDh
                    0F4EBh
                      0F544h
                      0F55Ch
                    0F57Ah
                      0F544h
                      0F56Bh
                      0F55Ch
                    0E4ACh
                      0E477h
                      0E49Ch
                      0E422h
                        0E410h
                          0E400h
                      0E44Fh
                        0E410h
                          0E400h
                      0E42Fh
                        0E410h
                          0E400h
                        0E44Eh
                    0F1C9h
                      0F1CDh
                    0F1BEh
                      0E5F2h
                        0E5FDh
                          0E613h
                            0E608h
                              0E5FBh
                                0E5FDh - Recursive
                              0E60Bh
                          0E5FBh
                            0E5FDh - Recursive
                          0E60Bh
                      0EB04h
                    0F14Ah
                      0F045h - Recursive
              0F23Dh
              0E6A3h
                0E477h
                0E641h
                  0E63Eh
                    0E635h
                      0E5A1h
                        0E5A6h
                          0E4D9h
                            0E400h
                          0E312h
                          0E529h
                          0E328h
                          0E477h
                          0E4CFh
                            0E400h
                          0E4ACh
                            0E477h
                            0E49Ch
                            0E422h
                              0E410h
                                0E400h
                            0E44Fh
                              0E410h
                                0E400h
                            0E42Fh
                              0E410h
                                0E400h
                              0E44Eh
                      0E63Eh - Recursive
                0E6B8h
                  0E5A1h
                    0E5A6h
                      0E4D9h
                        0E400h
                      0E312h
                      0E529h
                      0E328h
                      0E477h
                      0E4CFh
                        0E400h
                      0E4ACh
                        0E477h
                        0E49Ch
                        0E422h
                          0E410h
                            0E400h
                        0E44Fh
                          0E410h
                            0E400h
                        0E42Fh
                          0E410h
                            0E400h
                          0E44Eh
                  0E635h
                    0E5A1h
                      0E5A6h
                        0E4D9h
                          0E400h
                        0E312h
                        0E529h
                        0E328h
                        0E477h
                        0E4CFh
                          0E400h
                        0E4ACh
                          0E477h
                          0E49Ch
                          0E422h
                            0E410h
                              0E400h
                          0E44Fh
                            0E410h
                              0E400h
                          0E42Fh
                            0E410h
                              0E400h
                            0E44Eh
                    0E63Eh
                      0E635h - Recursive
              0E4ACh
                0E477h
                0E49Ch
                0E422h
                  0E410h
                    0E400h
                0E44Fh
                  0E410h
                    0E400h
                0E42Fh
                  0E410h
                    0E400h
                  0E44Eh
              0E5FDh
                0E613h
                  0E608h
                    0E5FBh
                      0E5FDh - Recursive
                    0E60Bh
                0E5FBh
                  0E5FDh - Recursive
                0E60Bh
              0EB04h
              0F235h
                0F238h
                  0F041h
                    0F045h
                      0F00Eh
                        0F162h
                      0F16Ch
                        0F1B5h
                          0F1B8h
                            0F1C9h
                              0F1CDh
                        0F14Ah
                          0F045h - Recursive
                        0EC98h
                        0F14Dh
                          0F1CDh
                      0F185h
                        0F1B8h
                          0F1C9h
                            0F1CDh
                        0E2F5h
                          0E30Dh
                        0F031h
                          0F00Eh
                            0F162h
                          0F040h
                            0F041h - Recursive
                          0F14Dh
                            0F1CDh
                          0F041h - Recursive
                        0F0BFh
                          0F1CDh
                          0F4EBh
                            0F544h
                            0F55Ch
                          0F57Ah
                            0F544h
                            0F56Bh
                            0F55Ch
                          0E4ACh
                            0E477h
                            0E49Ch
                            0E422h
                              0E410h
                                0E400h
                            0E44Fh
                              0E410h
                                0E400h
                            0E42Fh
                              0E410h
                                0E400h
                              0E44Eh
                          0F14Dh
                            0F1CDh
                          0F1C9h
                            0F1CDh
                          0F1BEh
                            0E5F2h
                              0E5FDh
                                0E613h
                                  0E608h
                                    0E5FBh
                                      0E5FDh - Recursive
                                    0E60Bh
                                0E5FBh
                                  0E5FDh - Recursive
                                0E60Bh
                            0EB04h
                          0F14Ah
                            0F045h - Recursive
                        0F059h
                          0F14Dh
                            0F1CDh
                          0EC98h
                          0F031h
                            0F00Eh
                              0F162h
                            0F040h
                              0F041h - Recursive
                            0F14Dh
                              0F1CDh
                            0F041h - Recursive
                          0F1CDh
                          0F4EBh
                            0F544h
                            0F55Ch
                          0F57Ah
                            0F544h
                            0F56Bh
                            0F55Ch
                          0E4ACh
                            0E477h
                            0E49Ch
                            0E422h
                              0E410h
                                0E400h
                            0E44Fh
                              0E410h
                                0E400h
                            0E42Fh
                              0E410h
                                0E400h
                              0E44Eh
                          0F1C9h
                            0F1CDh
                          0F1BEh
                            0E5F2h
                              0E5FDh
                                0E613h
                                  0E608h
                                    0E5FBh
                                      0E5FDh - Recursive
                                    0E60Bh
                                0E5FBh
                                  0E5FDh - Recursive
                                0E60Bh
                            0EB04h
                          0F14Ah
                            0F045h - Recursive
                        0F14Dh
                          0F1CDh
                      0F059h
                        0F14Dh
                          0F1CDh
                        0EC98h
                        0F031h
                          0F00Eh
                            0F162h
                          0F040h
                            0F041h - Recursive
                          0F14Dh
                            0F1CDh
                          0F041h - Recursive
                        0F1CDh
                        0F4EBh
                          0F544h
                          0F55Ch
                        0F57Ah
                          0F544h
                          0F56Bh
                          0F55Ch
                        0E4ACh
                          0E477h
                          0E49Ch
                          0E422h
                            0E410h
                              0E400h
                          0E44Fh
                            0E410h
                              0E400h
                          0E42Fh
                            0E410h
                              0E400h
                            0E44Eh
                        0F1C9h
                          0F1CDh
                        0F1BEh
                          0E5F2h
                            0E5FDh
                              0E613h
                                0E608h
                                  0E5FBh
                                    0E5FDh - Recursive
                                  0E60Bh
                              0E5FBh
                                0E5FDh - Recursive
                              0E60Bh
                          0EB04h
                        0F14Ah
                          0F045h - Recursive
                  0F235h - Recursive
  0E0E2h
    0E1BEh
      0E2F5h
        0E30Dh
  0E020h
    0F1D9h
      0EC98h
      0E003h
        0EF6Ch
        0ED0Fh
        0E00Dh
          0EC8Ah
          0F1DFh
            0F041h
              0F045h
                0F00Eh
                  0F162h
                0F16Ch
                  0F1B5h
                    0F1B8h
                      0F1C9h
                        0F1CDh
                  0F14Ah
                    0F045h - Recursive
                  0EC98h
                  0F14Dh
                    0F1CDh
                0F185h
                  0F1B8h
                    0F1C9h
                      0F1CDh
                  0E2F5h
                    0E30Dh
                  0F031h
                    0F00Eh
                      0F162h
                    0F040h
                      0F041h - Recursive
                    0F14Dh
                      0F1CDh
                    0F041h - Recursive
                  0F0BFh
                    0F1CDh
                    0F4EBh
                      0F544h
                      0F55Ch
                    0F57Ah
                      0F544h
                      0F56Bh
                      0F55Ch
                    0E4ACh
                      0E477h
                      0E49Ch
                      0E422h
                        0E410h
                          0E400h
                      0E44Fh
                        0E410h
                          0E400h
                      0E42Fh
                        0E410h
                          0E400h
                        0E44Eh
                    0F14Dh
                      0F1CDh
                    0F1C9h
                      0F1CDh
                    0F1BEh
                      0E5F2h
                        0E5FDh
                          0E613h
                            0E608h
                              0E5FBh
                                0E5FDh - Recursive
                              0E60Bh
                          0E5FBh
                            0E5FDh - Recursive
                          0E60Bh
                      0EB04h
                    0F14Ah
                      0F045h - Recursive
                  0F059h
                    0F14Dh
                      0F1CDh
                    0EC98h
                    0F031h
                      0F00Eh
                        0F162h
                      0F040h
                        0F041h - Recursive
                      0F14Dh
                        0F1CDh
                      0F041h - Recursive
                    0F1CDh
                    0F4EBh
                      0F544h
                      0F55Ch
                    0F57Ah
                      0F544h
                      0F56Bh
                      0F55Ch
                    0E4ACh
                      0E477h
                      0E49Ch
                      0E422h
                        0E410h
                          0E400h
                      0E44Fh
                        0E410h
                          0E400h
                      0E42Fh
                        0E410h
                          0E400h
                        0E44Eh
                    0F1C9h
                      0F1CDh
                    0F1BEh
                      0E5F2h
                        0E5FDh
                          0E613h
                            0E608h
                              0E5FBh
                                0E5FDh - Recursive
                              0E60Bh
                          0E5FBh
                            0E5FDh - Recursive
                          0E60Bh
                      0EB04h
                    0F14Ah
                      0F045h - Recursive
                  0F14Dh
                    0F1CDh
                0F059h
                  0F14Dh
                    0F1CDh
                  0EC98h
                  0F031h
                    0F00Eh
                      0F162h
                    0F040h
                      0F041h - Recursive
                    0F14Dh
                      0F1CDh
                    0F041h - Recursive
                  0F1CDh
                  0F4EBh
                    0F544h
                    0F55Ch
                  0F57Ah
                    0F544h
                    0F56Bh
                    0F55Ch
                  0E4ACh
                    0E477h
                    0E49Ch
                    0E422h
                      0E410h
                        0E400h
                    0E44Fh
                      0E410h
                        0E400h
                    0E42Fh
                      0E410h
                        0E400h
                      0E44Eh
                  0F1C9h
                    0F1CDh
                  0F1BEh
                    0E5F2h
                      0E5FDh
                        0E613h
                          0E608h
                            0E5FBh
                              0E5FDh - Recursive
                            0E60Bh
                        0E5FBh
                          0E5FDh - Recursive
                        0E60Bh
                    0EB04h
                  0F14Ah
                    0F045h - Recursive
            0F23Dh
            0E6A3h
              0E477h
              0E641h
                0E63Eh
                  0E635h
                    0E5A1h
                      0E5A6h
                        0E4D9h
                          0E400h
                        0E312h
                        0E529h
                        0E328h
                        0E477h
                        0E4CFh
                          0E400h
                        0E4ACh
                          0E477h
                          0E49Ch
                          0E422h
                            0E410h
                              0E400h
                          0E44Fh
                            0E410h
                              0E400h
                          0E42Fh
                            0E410h
                              0E400h
                            0E44Eh
                    0E63Eh - Recursive
              0E6B8h
                0E5A1h
                  0E5A6h
                    0E4D9h
                      0E400h
                    0E312h
                    0E529h
                    0E328h
                    0E477h
                    0E4CFh
                      0E400h
                    0E4ACh
                      0E477h
                      0E49Ch
                      0E422h
                        0E410h
                          0E400h
                      0E44Fh
                        0E410h
                          0E400h
                      0E42Fh
                        0E410h
                          0E400h
                        0E44Eh
                0E635h
                  0E5A1h
                    0E5A6h
                      0E4D9h
                        0E400h
                      0E312h
                      0E529h
                      0E328h
                      0E477h
                      0E4CFh
                        0E400h
                      0E4ACh
                        0E477h
                        0E49Ch
                        0E422h
                          0E410h
                            0E400h
                        0E44Fh
                          0E410h
                            0E400h
                        0E42Fh
                          0E410h
                            0E400h
                          0E44Eh
                  0E63Eh
                    0E635h - Recursive
            0E4ACh
              0E477h
              0E49Ch
              0E422h
                0E410h
                  0E400h
              0E44Fh
                0E410h
                  0E400h
              0E42Fh
                0E410h
                  0E400h
                0E44Eh
            0E5FDh
              0E613h
                0E608h
                  0E5FBh
                    0E5FDh - Recursive
                  0E60Bh
              0E5FBh
                0E5FDh - Recursive
              0E60Bh
            0EB04h
            0F235h
              0F238h
                0F041h
                  0F045h
                    0F00Eh
                      0F162h
                    0F16Ch
                      0F1B5h
                        0F1B8h
                          0F1C9h
                            0F1CDh
                      0F14Ah
                        0F045h - Recursive
                      0EC98h
                      0F14Dh
                        0F1CDh
                    0F185h
                      0F1B8h
                        0F1C9h
                          0F1CDh
                      0E2F5h
                        0E30Dh
                      0F031h
                        0F00Eh
                          0F162h
                        0F040h
                          0F041h - Recursive
                        0F14Dh
                          0F1CDh
                        0F041h - Recursive
                      0F0BFh
                        0F1CDh
                        0F4EBh
                          0F544h
                          0F55Ch
                        0F57Ah
                          0F544h
                          0F56Bh
                          0F55Ch
                        0E4ACh
                          0E477h
                          0E49Ch
                          0E422h
                            0E410h
                              0E400h
                          0E44Fh
                            0E410h
                              0E400h
                          0E42Fh
                            0E410h
                              0E400h
                            0E44Eh
                        0F14Dh
                          0F1CDh
                        0F1C9h
                          0F1CDh
                        0F1BEh
                          0E5F2h
                            0E5FDh
                              0E613h
                                0E608h
                                  0E5FBh
                                    0E5FDh - Recursive
                                  0E60Bh
                              0E5FBh
                                0E5FDh - Recursive
                              0E60Bh
                          0EB04h
                        0F14Ah
                          0F045h - Recursive
                      0F059h
                        0F14Dh
                          0F1CDh
                        0EC98h
                        0F031h
                          0F00Eh
                            0F162h
                          0F040h
                            0F041h - Recursive
                          0F14Dh
                            0F1CDh
                          0F041h - Recursive
                        0F1CDh
                        0F4EBh
                          0F544h
                          0F55Ch
                        0F57Ah
                          0F544h
                          0F56Bh
                          0F55Ch
                        0E4ACh
                          0E477h
                          0E49Ch
                          0E422h
                            0E410h
                              0E400h
                          0E44Fh
                            0E410h
                              0E400h
                          0E42Fh
                            0E410h
                              0E400h
                            0E44Eh
                        0F1C9h
                          0F1CDh
                        0F1BEh
                          0E5F2h
                            0E5FDh
                              0E613h
                                0E608h
                                  0E5FBh
                                    0E5FDh - Recursive
                                  0E60Bh
                              0E5FBh
                                0E5FDh - Recursive
                              0E60Bh
                          0EB04h
                        0F14Ah
                          0F045h - Recursive
                      0F14Dh
                        0F1CDh
                    0F059h
                      0F14Dh
                        0F1CDh
                      0EC98h
                      0F031h
                        0F00Eh
                          0F162h
                        0F040h
                          0F041h - Recursive
                        0F14Dh
                          0F1CDh
                        0F041h - Recursive
                      0F1CDh
                      0F4EBh
                        0F544h
                        0F55Ch
                      0F57Ah
                        0F544h
                        0F56Bh
                        0F55Ch
                      0E4ACh
                        0E477h
                        0E49Ch
                        0E422h
                          0E410h
                            0E400h
                        0E44Fh
                          0E410h
                            0E400h
                        0E42Fh
                          0E410h
                            0E400h
                          0E44Eh
                      0F1C9h
                        0F1CDh
                      0F1BEh
                        0E5F2h
                          0E5FDh
                            0E613h
                              0E608h
                                0E5FBh
                                  0E5FDh - Recursive
                                0E60Bh
                            0E5FBh
                              0E5FDh - Recursive
                            0E60Bh
                        0EB04h
                      0F14Ah
                        0F045h - Recursive
                0F235h - Recursive
  0E0BDh
  0E35Bh
    0E35Eh
      0E369h
        0EC98h
        0E3D3h
        0E3DBh
          0E374h
            0EC98h
            0E3C4h
              0E3D1h
                0E3D3h
              0E351h
            0E3D3h
            0E369h - Recursive
            0E3DBh - Recursive
            0E3C1h
              0E374h - Recursive
          0E3C1h
            0E374h
              0EC98h
              0E3C4h
                0E3D1h
                  0E3D3h
                0E351h
              0E3D3h
              0E369h - Recursive
              0E3DBh - Recursive
              0E3C1h - Recursive
        0E3D1h
          0E3D3h
        0E351h
  0E00Dh
    0EC8Ah
    0F1DFh
      0F041h
        0F045h
          0F00Eh
            0F162h
          0F16Ch
            0F1B5h
              0F1B8h
                0F1C9h
                  0F1CDh
            0F14Ah
              0F045h - Recursive
            0EC98h
            0F14Dh
              0F1CDh
          0F185h
            0F1B8h
              0F1C9h
                0F1CDh
            0E2F5h
              0E30Dh
            0F031h
              0F00Eh
                0F162h
              0F040h
                0F041h - Recursive
              0F14Dh
                0F1CDh
              0F041h - Recursive
            0F0BFh
              0F1CDh
              0F4EBh
                0F544h
                0F55Ch
              0F57Ah
                0F544h
                0F56Bh
                0F55Ch
              0E4ACh
                0E477h
                0E49Ch
                0E422h
                  0E410h
                    0E400h
                0E44Fh
                  0E410h
                    0E400h
                0E42Fh
                  0E410h
                    0E400h
                  0E44Eh
              0F14Dh
                0F1CDh
              0F1C9h
                0F1CDh
              0F1BEh
                0E5F2h
                  0E5FDh
                    0E613h
                      0E608h
                        0E5FBh
                          0E5FDh - Recursive
                        0E60Bh
                    0E5FBh
                      0E5FDh - Recursive
                    0E60Bh
                0EB04h
              0F14Ah
                0F045h - Recursive
            0F059h
              0F14Dh
                0F1CDh
              0EC98h
              0F031h
                0F00Eh
                  0F162h
                0F040h
                  0F041h - Recursive
                0F14Dh
                  0F1CDh
                0F041h - Recursive
              0F1CDh
              0F4EBh
                0F544h
                0F55Ch
              0F57Ah
                0F544h
                0F56Bh
                0F55Ch
              0E4ACh
                0E477h
                0E49Ch
                0E422h
                  0E410h
                    0E400h
                0E44Fh
                  0E410h
                    0E400h
                0E42Fh
                  0E410h
                    0E400h
                  0E44Eh
              0F1C9h
                0F1CDh
              0F1BEh
                0E5F2h
                  0E5FDh
                    0E613h
                      0E608h
                        0E5FBh
                          0E5FDh - Recursive
                        0E60Bh
                    0E5FBh
                      0E5FDh - Recursive
                    0E60Bh
                0EB04h
              0F14Ah
                0F045h - Recursive
            0F14Dh
              0F1CDh
          0F059h
            0F14Dh
              0F1CDh
            0EC98h
            0F031h
              0F00Eh
                0F162h
              0F040h
                0F041h - Recursive
              0F14Dh
                0F1CDh
              0F041h - Recursive
            0F1CDh
            0F4EBh
              0F544h
              0F55Ch
            0F57Ah
              0F544h
              0F56Bh
              0F55Ch
            0E4ACh
              0E477h
              0E49Ch
              0E422h
                0E410h
                  0E400h
              0E44Fh
                0E410h
                  0E400h
              0E42Fh
                0E410h
                  0E400h
                0E44Eh
            0F1C9h
              0F1CDh
            0F1BEh
              0E5F2h
                0E5FDh
                  0E613h
                    0E608h
                      0E5FBh
                        0E5FDh - Recursive
                      0E60Bh
                  0E5FBh
                    0E5FDh - Recursive
                  0E60Bh
              0EB04h
            0F14Ah
              0F045h - Recursive
      0F23Dh
      0E6A3h
        0E477h
        0E641h
          0E63Eh
            0E635h
              0E5A1h
                0E5A6h
                  0E4D9h
                    0E400h
                  0E312h
                  0E529h
                  0E328h
                  0E477h
                  0E4CFh
                    0E400h
                  0E4ACh
                    0E477h
                    0E49Ch
                    0E422h
                      0E410h
                        0E400h
                    0E44Fh
                      0E410h
                        0E400h
                    0E42Fh
                      0E410h
                        0E400h
                      0E44Eh
              0E63Eh - Recursive
        0E6B8h
          0E5A1h
            0E5A6h
              0E4D9h
                0E400h
              0E312h
              0E529h
              0E328h
              0E477h
              0E4CFh
                0E400h
              0E4ACh
                0E477h
                0E49Ch
                0E422h
                  0E410h
                    0E400h
                0E44Fh
                  0E410h
                    0E400h
                0E42Fh
                  0E410h
                    0E400h
                  0E44Eh
          0E635h
            0E5A1h
              0E5A6h
                0E4D9h
                  0E400h
                0E312h
                0E529h
                0E328h
                0E477h
                0E4CFh
                  0E400h
                0E4ACh
                  0E477h
                  0E49Ch
                  0E422h
                    0E410h
                      0E400h
                  0E44Fh
                    0E410h
                      0E400h
                  0E42Fh
                    0E410h
                      0E400h
                    0E44Eh
            0E63Eh
              0E635h - Recursive
      0E4ACh
        0E477h
        0E49Ch
        0E422h
          0E410h
            0E400h
        0E44Fh
          0E410h
            0E400h
        0E42Fh
          0E410h
            0E400h
          0E44Eh
      0E5FDh
        0E613h
          0E608h
            0E5FBh
              0E5FDh - Recursive
            0E60Bh
        0E5FBh
          0E5FDh - Recursive
        0E60Bh
      0EB04h
      0F235h
        0F238h
          0F041h
            0F045h
              0F00Eh
                0F162h
              0F16Ch
                0F1B5h
                  0F1B8h
                    0F1C9h
                      0F1CDh
                0F14Ah
                  0F045h - Recursive
                0EC98h
                0F14Dh
                  0F1CDh
              0F185h
                0F1B8h
                  0F1C9h
                    0F1CDh
                0E2F5h
                  0E30Dh
                0F031h
                  0F00Eh
                    0F162h
                  0F040h
                    0F041h - Recursive
                  0F14Dh
                    0F1CDh
                  0F041h - Recursive
                0F0BFh
                  0F1CDh
                  0F4EBh
                    0F544h
                    0F55Ch
                  0F57Ah
                    0F544h
                    0F56Bh
                    0F55Ch
                  0E4ACh
                    0E477h
                    0E49Ch
                    0E422h
                      0E410h
                        0E400h
                    0E44Fh
                      0E410h
                        0E400h
                    0E42Fh
                      0E410h
                        0E400h
                      0E44Eh
                  0F14Dh
                    0F1CDh
                  0F1C9h
                    0F1CDh
                  0F1BEh
                    0E5F2h
                      0E5FDh
                        0E613h
                          0E608h
                            0E5FBh
                              0E5FDh - Recursive
                            0E60Bh
                        0E5FBh
                          0E5FDh - Recursive
                        0E60Bh
                    0EB04h
                  0F14Ah
                    0F045h - Recursive
                0F059h
                  0F14Dh
                    0F1CDh
                  0EC98h
                  0F031h
                    0F00Eh
                      0F162h
                    0F040h
                      0F041h - Recursive
                    0F14Dh
                      0F1CDh
                    0F041h - Recursive
                  0F1CDh
                  0F4EBh
                    0F544h
                    0F55Ch
                  0F57Ah
                    0F544h
                    0F56Bh
                    0F55Ch
                  0E4ACh
                    0E477h
                    0E49Ch
                    0E422h
                      0E410h
                        0E400h
                    0E44Fh
                      0E410h
                        0E400h
                    0E42Fh
                      0E410h
                        0E400h
                      0E44Eh
                  0F1C9h
                    0F1CDh
                  0F1BEh
                    0E5F2h
                      0E5FDh
                        0E613h
                          0E608h
                            0E5FBh
                              0E5FDh - Recursive
                            0E60Bh
                        0E5FBh
                          0E5FDh - Recursive
                        0E60Bh
                    0EB04h
                  0F14Ah
                    0F045h - Recursive
                0F14Dh
                  0F1CDh
              0F059h
                0F14Dh
                  0F1CDh
                0EC98h
                0F031h
                  0F00Eh
                    0F162h
                  0F040h
                    0F041h - Recursive
                  0F14Dh
                    0F1CDh
                  0F041h - Recursive
                0F1CDh
                0F4EBh
                  0F544h
                  0F55Ch
                0F57Ah
                  0F544h
                  0F56Bh
                  0F55Ch
                0E4ACh
                  0E477h
                  0E49Ch
                  0E422h
                    0E410h
                      0E400h
                  0E44Fh
                    0E410h
                      0E400h
                  0E42Fh
                    0E410h
                      0E400h
                    0E44Eh
                0F1C9h
                  0F1CDh
                0F1BEh
                  0E5F2h
                    0E5FDh
                      0E613h
                        0E608h
                          0E5FBh
                            0E5FDh - Recursive
                          0E60Bh
                      0E5FBh
                        0E5FDh - Recursive
                      0E60Bh
                  0EB04h
                0F14Ah
                  0F045h - Recursive
          0F235h - Recursive
  0EC8Ah
  0EC6Fh
    0EC80h
0E0FFh - Entry Point
0E10Bh - Entry Point
0E203h - Entry Point
  0E270h
    0E277h
      0E23Dh
        0E2F5h
          0E30Dh
  0E277h
    0E23Dh
      0E2F5h
        0E30Dh
  0E25Fh
    0E270h
      0E277h
        0E23Dh
          0E2F5h
            0E30Dh
  0E23Dh
    0E2F5h
      0E30Dh
0E29Ch - Entry Point
  0EC8Ah
  0E0BDh
  0E35Bh
    0E35Eh
      0E369h
        0EC98h
        0E3D3h
        0E3DBh
          0E374h
            0EC98h
            0E3C4h
              0E3D1h
                0E3D3h
              0E351h
            0E3D3h
            0E369h - Recursive
            0E3DBh - Recursive
            0E3C1h
              0E374h - Recursive
          0E3C1h
            0E374h
              0EC98h
              0E3C4h
                0E3D1h
                  0E3D3h
                0E351h
              0E3D3h
              0E369h - Recursive
              0E3DBh - Recursive
              0E3C1h - Recursive
        0E3D1h
          0E3D3h
        0E351h
  0EC4Bh
  0E1D1h
    0E1C8h
      0E2F5h
        0E30Dh
    0E23Dh
      0E2F5h
        0E30Dh
  0E203h
    0E270h
      0E277h
        0E23Dh
          0E2F5h
            0E30Dh
    0E277h
      0E23Dh
        0E2F5h
          0E30Dh
    0E25Fh
      0E270h
        0E277h
          0E23Dh
            0E2F5h
              0E30Dh
    0E23Dh
      0E2F5h
        0E30Dh
  0E1BEh
    0E2F5h
      0E30Dh
  0F1D9h
    0EC98h
    0E003h
      0EF6Ch
      0ED0Fh
      0E00Dh
        0EC8Ah
        0F1DFh
          0F041h
            0F045h
              0F00Eh
                0F162h
              0F16Ch
                0F1B5h
                  0F1B8h
                    0F1C9h
                      0F1CDh
                0F14Ah
                  0F045h - Recursive
                0EC98h
                0F14Dh
                  0F1CDh
              0F185h
                0F1B8h
                  0F1C9h
                    0F1CDh
                0E2F5h
                  0E30Dh
                0F031h
                  0F00Eh
                    0F162h
                  0F040h
                    0F041h - Recursive
                  0F14Dh
                    0F1CDh
                  0F041h - Recursive
                0F0BFh
                  0F1CDh
                  0F4EBh
                    0F544h
                    0F55Ch
                  0F57Ah
                    0F544h
                    0F56Bh
                    0F55Ch
                  0E4ACh
                    0E477h
                    0E49Ch
                    0E422h
                      0E410h
                        0E400h
                    0E44Fh
                      0E410h
                        0E400h
                    0E42Fh
                      0E410h
                        0E400h
                      0E44Eh
                  0F14Dh
                    0F1CDh
                  0F1C9h
                    0F1CDh
                  0F1BEh
                    0E5F2h
                      0E5FDh
                        0E613h
                          0E608h
                            0E5FBh
                              0E5FDh - Recursive
                            0E60Bh
                        0E5FBh
                          0E5FDh - Recursive
                        0E60Bh
                    0EB04h
                  0F14Ah
                    0F045h - Recursive
                0F059h
                  0F14Dh
                    0F1CDh
                  0EC98h
                  0F031h
                    0F00Eh
                      0F162h
                    0F040h
                      0F041h - Recursive
                    0F14Dh
                      0F1CDh
                    0F041h - Recursive
                  0F1CDh
                  0F4EBh
                    0F544h
                    0F55Ch
                  0F57Ah
                    0F544h
                    0F56Bh
                    0F55Ch
                  0E4ACh
                    0E477h
                    0E49Ch
                    0E422h
                      0E410h
                        0E400h
                    0E44Fh
                      0E410h
                        0E400h
                    0E42Fh
                      0E410h
                        0E400h
                      0E44Eh
                  0F1C9h
                    0F1CDh
                  0F1BEh
                    0E5F2h
                      0E5FDh
                        0E613h
                          0E608h
                            0E5FBh
                              0E5FDh - Recursive
                            0E60Bh
                        0E5FBh
                          0E5FDh - Recursive
                        0E60Bh
                    0EB04h
                  0F14Ah
                    0F045h - Recursive
                0F14Dh
                  0F1CDh
              0F059h
                0F14Dh
                  0F1CDh
                0EC98h
                0F031h
                  0F00Eh
                    0F162h
                  0F040h
                    0F041h - Recursive
                  0F14Dh
                    0F1CDh
                  0F041h - Recursive
                0F1CDh
                0F4EBh
                  0F544h
                  0F55Ch
                0F57Ah
                  0F544h
                  0F56Bh
                  0F55Ch
                0E4ACh
                  0E477h
                  0E49Ch
                  0E422h
                    0E410h
                      0E400h
                  0E44Fh
                    0E410h
                      0E400h
                  0E42Fh
                    0E410h
                      0E400h
                    0E44Eh
                0F1C9h
                  0F1CDh
                0F1BEh
                  0E5F2h
                    0E5FDh
                      0E613h
                        0E608h
                          0E5FBh
                            0E5FDh - Recursive
                          0E60Bh
                      0E5FBh
                        0E5FDh - Recursive
                      0E60Bh
                  0EB04h
                0F14Ah
                  0F045h - Recursive
          0F23Dh
          0E6A3h
            0E477h
            0E641h
              0E63Eh
                0E635h
                  0E5A1h
                    0E5A6h
                      0E4D9h
                        0E400h
                      0E312h
                      0E529h
                      0E328h
                      0E477h
                      0E4CFh
                        0E400h
                      0E4ACh
                        0E477h
                        0E49Ch
                        0E422h
                          0E410h
                            0E400h
                        0E44Fh
                          0E410h
                            0E400h
                        0E42Fh
                          0E410h
                            0E400h
                          0E44Eh
                  0E63Eh - Recursive
            0E6B8h
              0E5A1h
                0E5A6h
                  0E4D9h
                    0E400h
                  0E312h
                  0E529h
                  0E328h
                  0E477h
                  0E4CFh
                    0E400h
                  0E4ACh
                    0E477h
                    0E49Ch
                    0E422h
                      0E410h
                        0E400h
                    0E44Fh
                      0E410h
                        0E400h
                    0E42Fh
                      0E410h
                        0E400h
                      0E44Eh
              0E635h
                0E5A1h
                  0E5A6h
                    0E4D9h
                      0E400h
                    0E312h
                    0E529h
                    0E328h
                    0E477h
                    0E4CFh
                      0E400h
                    0E4ACh
                      0E477h
                      0E49Ch
                      0E422h
                        0E410h
                          0E400h
                      0E44Fh
                        0E410h
                          0E400h
                      0E42Fh
                        0E410h
                          0E400h
                        0E44Eh
                0E63Eh
                  0E635h - Recursive
          0E4ACh
            0E477h
            0E49Ch
            0E422h
              0E410h
                0E400h
            0E44Fh
              0E410h
                0E400h
            0E42Fh
              0E410h
                0E400h
              0E44Eh
          0E5FDh
            0E613h
              0E608h
                0E5FBh
                  0E5FDh - Recursive
                0E60Bh
            0E5FBh
              0E5FDh - Recursive
            0E60Bh
          0EB04h
          0F235h
            0F238h
              0F041h
                0F045h
                  0F00Eh
                    0F162h
                  0F16Ch
                    0F1B5h
                      0F1B8h
                        0F1C9h
                          0F1CDh
                    0F14Ah
                      0F045h - Recursive
                    0EC98h
                    0F14Dh
                      0F1CDh
                  0F185h
                    0F1B8h
                      0F1C9h
                        0F1CDh
                    0E2F5h
                      0E30Dh
                    0F031h
                      0F00Eh
                        0F162h
                      0F040h
                        0F041h - Recursive
                      0F14Dh
                        0F1CDh
                      0F041h - Recursive
                    0F0BFh
                      0F1CDh
                      0F4EBh
                        0F544h
                        0F55Ch
                      0F57Ah
                        0F544h
                        0F56Bh
                        0F55Ch
                      0E4ACh
                        0E477h
                        0E49Ch
                        0E422h
                          0E410h
                            0E400h
                        0E44Fh
                          0E410h
                            0E400h
                        0E42Fh
                          0E410h
                            0E400h
                          0E44Eh
                      0F14Dh
                        0F1CDh
                      0F1C9h
                        0F1CDh
                      0F1BEh
                        0E5F2h
                          0E5FDh
                            0E613h
                              0E608h
                                0E5FBh
                                  0E5FDh - Recursive
                                0E60Bh
                            0E5FBh
                              0E5FDh - Recursive
                            0E60Bh
                        0EB04h
                      0F14Ah
                        0F045h - Recursive
                    0F059h
                      0F14Dh
                        0F1CDh
                      0EC98h
                      0F031h
                        0F00Eh
                          0F162h
                        0F040h
                          0F041h - Recursive
                        0F14Dh
                          0F1CDh
                        0F041h - Recursive
                      0F1CDh
                      0F4EBh
                        0F544h
                        0F55Ch
                      0F57Ah
                        0F544h
                        0F56Bh
                        0F55Ch
                      0E4ACh
                        0E477h
                        0E49Ch
                        0E422h
                          0E410h
                            0E400h
                        0E44Fh
                          0E410h
                            0E400h
                        0E42Fh
                          0E410h
                            0E400h
                          0E44Eh
                      0F1C9h
                        0F1CDh
                      0F1BEh
                        0E5F2h
                          0E5FDh
                            0E613h
                              0E608h
                                0E5FBh
                                  0E5FDh - Recursive
                                0E60Bh
                            0E5FBh
                              0E5FDh - Recursive
                            0E60Bh
                        0EB04h
                      0F14Ah
                        0F045h - Recursive
                    0F14Dh
                      0F1CDh
                  0F059h
                    0F14Dh
                      0F1CDh
                    0EC98h
                    0F031h
                      0F00Eh
                        0F162h
                      0F040h
                        0F041h - Recursive
                      0F14Dh
                        0F1CDh
                      0F041h - Recursive
                    0F1CDh
                    0F4EBh
                      0F544h
                      0F55Ch
                    0F57Ah
                      0F544h
                      0F56Bh
                      0F55Ch
                    0E4ACh
                      0E477h
                      0E49Ch
                      0E422h
                        0E410h
                          0E400h
                      0E44Fh
                        0E410h
                          0E400h
                      0E42Fh
                        0E410h
                          0E400h
                        0E44Eh
                    0F1C9h
                      0F1CDh
                    0F1BEh
                      0E5F2h
                        0E5FDh
                          0E613h
                            0E608h
                              0E5FBh
                                0E5FDh - Recursive
                              0E60Bh
                          0E5FBh
                            0E5FDh - Recursive
                          0E60Bh
                      0EB04h
                    0F14Ah
                      0F045h - Recursive
              0F235h - Recursive
0E33Eh - Entry Point
0E358h - Entry Point
  0E35Bh
    0E35Eh
      0E369h
        0EC98h
        0E3D3h
        0E3DBh
          0E374h
            0EC98h
            0E3C4h
              0E3D1h
                0E3D3h
              0E351h
            0E3D3h
            0E369h - Recursive
            0E3DBh - Recursive
            0E3C1h
              0E374h - Recursive
          0E3C1h
            0E374h
              0EC98h
              0E3C4h
                0E3D1h
                  0E3D3h
                0E351h
              0E3D3h
              0E369h - Recursive
              0E3DBh - Recursive
              0E3C1h - Recursive
        0E3D1h
          0E3D3h
        0E351h
0E4E5h - Entry Point
  0E400h
  0E529h
0E597h - Entry Point
  0E5A6h
    0E4D9h
      0E400h
    0E312h
    0E529h
    0E328h
    0E477h
    0E4CFh
      0E400h
    0E4ACh
      0E477h
      0E49Ch
      0E422h
        0E410h
          0E400h
      0E44Fh
        0E410h
          0E400h
      0E42Fh
        0E410h
          0E400h
        0E44Eh
0E617h - Entry Point
  0E60Bh
0E651h - Entry Point
  0E641h
    0E63Eh
      0E635h
        0E5A1h
          0E5A6h
            0E4D9h
              0E400h
            0E312h
            0E529h
            0E328h
            0E477h
            0E4CFh
              0E400h
            0E4ACh
              0E477h
              0E49Ch
              0E422h
                0E410h
                  0E400h
              0E44Fh
                0E410h
                  0E400h
              0E42Fh
                0E410h
                  0E400h
                0E44Eh
        0E63Eh - Recursive
  0E4E5h
    0E400h
    0E529h
  0E4CFh
    0E400h
  0E67Bh
    0E641h
      0E63Eh
        0E635h
          0E5A1h
            0E5A6h
              0E4D9h
                0E400h
              0E312h
              0E529h
              0E328h
              0E477h
              0E4CFh
                0E400h
              0E4ACh
                0E477h
                0E49Ch
                0E422h
                  0E410h
                    0E400h
                0E44Fh
                  0E410h
                    0E400h
                0E42Fh
                  0E410h
                    0E400h
                  0E44Eh
          0E63Eh - Recursive
    0E4E5h
      0E400h
      0E529h
    0E597h
      0E5A6h
        0E4D9h
          0E400h
        0E312h
        0E529h
        0E328h
        0E477h
        0E4CFh
          0E400h
        0E4ACh
          0E477h
          0E49Ch
          0E422h
            0E410h
              0E400h
          0E44Fh
            0E410h
              0E400h
          0E42Fh
            0E410h
              0E400h
            0E44Eh
0E6D4h - Entry Point
  0E6E0h
    0E1D1h
      0E1C8h
        0E2F5h
          0E30Dh
      0E23Dh
        0E2F5h
          0E30Dh
    0E25Fh
      0E270h
        0E277h
          0E23Dh
            0E2F5h
              0E30Dh
    0E277h
      0E23Dh
        0E2F5h
          0E30Dh
    0E23Dh
      0E2F5h
        0E30Dh
    0E1BEh
      0E2F5h
        0E30Dh
0E7D6h - Entry Point
0E7F2h - Entry Point
0E800h - Entry Point
  0E84Ah
    0E5A1h
      0E5A6h
        0E4D9h
          0E400h
        0E312h
        0E529h
        0E328h
        0E477h
        0E4CFh
          0E400h
        0E4ACh
          0E477h
          0E49Ch
          0E422h
            0E410h
              0E400h
          0E44Fh
            0E410h
              0E400h
          0E42Fh
            0E410h
              0E400h
            0E44Eh
0E807h - Entry Point
  0E4CFh
    0E400h
  0E477h
  0E800h
    0E84Ah
      0E5A1h
        0E5A6h
          0E4D9h
            0E400h
          0E312h
          0E529h
          0E328h
          0E477h
          0E4CFh
            0E400h
          0E4ACh
            0E477h
            0E49Ch
            0E422h
              0E410h
                0E400h
            0E44Fh
              0E410h
                0E400h
            0E42Fh
              0E410h
                0E400h
              0E44Eh
  0E84Ah
    0E5A1h
      0E5A6h
        0E4D9h
          0E400h
        0E312h
        0E529h
        0E328h
        0E477h
        0E4CFh
          0E400h
        0E4ACh
          0E477h
          0E49Ch
          0E422h
            0E410h
              0E400h
          0E44Fh
            0E410h
              0E400h
          0E42Fh
            0E410h
              0E400h
            0E44Eh
0E8B1h - Entry Point
  0E477h
  0E597h
    0E5A6h
      0E4D9h
        0E400h
      0E312h
      0E529h
      0E328h
      0E477h
      0E4CFh
        0E400h
      0E4ACh
        0E477h
        0E49Ch
        0E422h
          0E410h
            0E400h
        0E44Fh
          0E410h
            0E400h
        0E42Fh
          0E410h
            0E400h
          0E44Eh
  0E5A1h
    0E5A6h
      0E4D9h
        0E400h
      0E312h
      0E529h
      0E328h
      0E477h
      0E4CFh
        0E400h
      0E4ACh
        0E477h
        0E49Ch
        0E422h
          0E410h
            0E400h
        0E44Fh
          0E410h
            0E400h
        0E42Fh
          0E410h
            0E400h
          0E44Eh
0E993h - Entry Point
0EB52h - Entry Point
  0EB76h
    0EA58h
      0EADDh
        0EACFh
          0E2F5h
            0E30Dh
      0EC40h
        0EC4Bh
      0EA8Dh
        0EA8Fh
          0E2F5h
            0E30Dh
  0EC40h
    0EC4Bh
0EC56h - Entry Point
  0EC60h
    0EC5Ch
      0EC60h - Recursive
0ECB5h - Entry Point
0ECE3h - Entry Point
  0EC6Fh
    0EC80h
  0EF6Ch
  0ED42h
    0EC98h
    0E003h
      0EF6Ch
      0ED0Fh
      0E00Dh
        0EC8Ah
        0F1DFh
          0F041h
            0F045h
              0F00Eh
                0F162h
              0F16Ch
                0F1B5h
                  0F1B8h
                    0F1C9h
                      0F1CDh
                0F14Ah
                  0F045h - Recursive
                0EC98h
                0F14Dh
                  0F1CDh
              0F185h
                0F1B8h
                  0F1C9h
                    0F1CDh
                0E2F5h
                  0E30Dh
                0F031h
                  0F00Eh
                    0F162h
                  0F040h
                    0F041h - Recursive
                  0F14Dh
                    0F1CDh
                  0F041h - Recursive
                0F0BFh
                  0F1CDh
                  0F4EBh
                    0F544h
                    0F55Ch
                  0F57Ah
                    0F544h
                    0F56Bh
                    0F55Ch
                  0E4ACh
                    0E477h
                    0E49Ch
                    0E422h
                      0E410h
                        0E400h
                    0E44Fh
                      0E410h
                        0E400h
                    0E42Fh
                      0E410h
                        0E400h
                      0E44Eh
                  0F14Dh
                    0F1CDh
                  0F1C9h
                    0F1CDh
                  0F1BEh
                    0E5F2h
                      0E5FDh
                        0E613h
                          0E608h
                            0E5FBh
                              0E5FDh - Recursive
                            0E60Bh
                        0E5FBh
                          0E5FDh - Recursive
                        0E60Bh
                    0EB04h
                  0F14Ah
                    0F045h - Recursive
                0F059h
                  0F14Dh
                    0F1CDh
                  0EC98h
                  0F031h
                    0F00Eh
                      0F162h
                    0F040h
                      0F041h - Recursive
                    0F14Dh
                      0F1CDh
                    0F041h - Recursive
                  0F1CDh
                  0F4EBh
                    0F544h
                    0F55Ch
                  0F57Ah
                    0F544h
                    0F56Bh
                    0F55Ch
                  0E4ACh
                    0E477h
                    0E49Ch
                    0E422h
                      0E410h
                        0E400h
                    0E44Fh
                      0E410h
                        0E400h
                    0E42Fh
                      0E410h
                        0E400h
                      0E44Eh
                  0F1C9h
                    0F1CDh
                  0F1BEh
                    0E5F2h
                      0E5FDh
                        0E613h
                          0E608h
                            0E5FBh
                              0E5FDh - Recursive
                            0E60Bh
                        0E5FBh
                          0E5FDh - Recursive
                        0E60Bh
                    0EB04h
                  0F14Ah
                    0F045h - Recursive
                0F14Dh
                  0F1CDh
              0F059h
                0F14Dh
                  0F1CDh
                0EC98h
                0F031h
                  0F00Eh
                    0F162h
                  0F040h
                    0F041h - Recursive
                  0F14Dh
                    0F1CDh
                  0F041h - Recursive
                0F1CDh
                0F4EBh
                  0F544h
                  0F55Ch
                0F57Ah
                  0F544h
                  0F56Bh
                  0F55Ch
                0E4ACh
                  0E477h
                  0E49Ch
                  0E422h
                    0E410h
                      0E400h
                  0E44Fh
                    0E410h
                      0E400h
                  0E42Fh
                    0E410h
                      0E400h
                    0E44Eh
                0F1C9h
                  0F1CDh
                0F1BEh
                  0E5F2h
                    0E5FDh
                      0E613h
                        0E608h
                          0E5FBh
                            0E5FDh - Recursive
                          0E60Bh
                      0E5FBh
                        0E5FDh - Recursive
                      0E60Bh
                  0EB04h
                0F14Ah
                  0F045h - Recursive
          0F23Dh
          0E6A3h
            0E477h
            0E641h
              0E63Eh
                0E635h
                  0E5A1h
                    0E5A6h
                      0E4D9h
                        0E400h
                      0E312h
                      0E529h
                      0E328h
                      0E477h
                      0E4CFh
                        0E400h
                      0E4ACh
                        0E477h
                        0E49Ch
                        0E422h
                          0E410h
                            0E400h
                        0E44Fh
                          0E410h
                            0E400h
                        0E42Fh
                          0E410h
                            0E400h
                          0E44Eh
                  0E63Eh - Recursive
            0E6B8h
              0E5A1h
                0E5A6h
                  0E4D9h
                    0E400h
                  0E312h
                  0E529h
                  0E328h
                  0E477h
                  0E4CFh
                    0E400h
                  0E4ACh
                    0E477h
                    0E49Ch
                    0E422h
                      0E410h
                        0E400h
                    0E44Fh
                      0E410h
                        0E400h
                    0E42Fh
                      0E410h
                        0E400h
                      0E44Eh
              0E635h
                0E5A1h
                  0E5A6h
                    0E4D9h
                      0E400h
                    0E312h
                    0E529h
                    0E328h
                    0E477h
                    0E4CFh
                      0E400h
                    0E4ACh
                      0E477h
                      0E49Ch
                      0E422h
                        0E410h
                          0E400h
                      0E44Fh
                        0E410h
                          0E400h
                      0E42Fh
                        0E410h
                          0E400h
                        0E44Eh
                0E63Eh
                  0E635h - Recursive
          0E4ACh
            0E477h
            0E49Ch
            0E422h
              0E410h
                0E400h
            0E44Fh
              0E410h
                0E400h
            0E42Fh
              0E410h
                0E400h
              0E44Eh
          0E5FDh
            0E613h
              0E608h
                0E5FBh
                  0E5FDh - Recursive
                0E60Bh
            0E5FBh
              0E5FDh - Recursive
            0E60Bh
          0EB04h
          0F235h
            0F238h
              0F041h
                0F045h
                  0F00Eh
                    0F162h
                  0F16Ch
                    0F1B5h
                      0F1B8h
                        0F1C9h
                          0F1CDh
                    0F14Ah
                      0F045h - Recursive
                    0EC98h
                    0F14Dh
                      0F1CDh
                  0F185h
                    0F1B8h
                      0F1C9h
                        0F1CDh
                    0E2F5h
                      0E30Dh
                    0F031h
                      0F00Eh
                        0F162h
                      0F040h
                        0F041h - Recursive
                      0F14Dh
                        0F1CDh
                      0F041h - Recursive
                    0F0BFh
                      0F1CDh
                      0F4EBh
                        0F544h
                        0F55Ch
                      0F57Ah
                        0F544h
                        0F56Bh
                        0F55Ch
                      0E4ACh
                        0E477h
                        0E49Ch
                        0E422h
                          0E410h
                            0E400h
                        0E44Fh
                          0E410h
                            0E400h
                        0E42Fh
                          0E410h
                            0E400h
                          0E44Eh
                      0F14Dh
                        0F1CDh
                      0F1C9h
                        0F1CDh
                      0F1BEh
                        0E5F2h
                          0E5FDh
                            0E613h
                              0E608h
                                0E5FBh
                                  0E5FDh - Recursive
                                0E60Bh
                            0E5FBh
                              0E5FDh - Recursive
                            0E60Bh
                        0EB04h
                      0F14Ah
                        0F045h - Recursive
                    0F059h
                      0F14Dh
                        0F1CDh
                      0EC98h
                      0F031h
                        0F00Eh
                          0F162h
                        0F040h
                          0F041h - Recursive
                        0F14Dh
                          0F1CDh
                        0F041h - Recursive
                      0F1CDh
                      0F4EBh
                        0F544h
                        0F55Ch
                      0F57Ah
                        0F544h
                        0F56Bh
                        0F55Ch
                      0E4ACh
                        0E477h
                        0E49Ch
                        0E422h
                          0E410h
                            0E400h
                        0E44Fh
                          0E410h
                            0E400h
                        0E42Fh
                          0E410h
                            0E400h
                          0E44Eh
                      0F1C9h
                        0F1CDh
                      0F1BEh
                        0E5F2h
                          0E5FDh
                            0E613h
                              0E608h
                                0E5FBh
                                  0E5FDh - Recursive
                                0E60Bh
                            0E5FBh
                              0E5FDh - Recursive
                            0E60Bh
                        0EB04h
                      0F14Ah
                        0F045h - Recursive
                    0F14Dh
                      0F1CDh
                  0F059h
                    0F14Dh
                      0F1CDh
                    0EC98h
                    0F031h
                      0F00Eh
                        0F162h
                      0F040h
                        0F041h - Recursive
                      0F14Dh
                        0F1CDh
                      0F041h - Recursive
                    0F1CDh
                    0F4EBh
                      0F544h
                      0F55Ch
                    0F57Ah
                      0F544h
                      0F56Bh
                      0F55Ch
                    0E4ACh
                      0E477h
                      0E49Ch
                      0E422h
                        0E410h
                          0E400h
                      0E44Fh
                        0E410h
                          0E400h
                      0E42Fh
                        0E410h
                          0E400h
                        0E44Eh
                    0F1C9h
                      0F1CDh
                    0F1BEh
                      0E5F2h
                        0E5FDh
                          0E613h
                            0E608h
                              0E5FBh
                                0E5FDh - Recursive
                              0E60Bh
                          0E5FBh
                            0E5FDh - Recursive
                          0E60Bh
                      0EB04h
                    0F14Ah
                      0F045h - Recursive
              0F235h - Recursive
    0EF75h
      0EF1Eh
        0ED3Fh
          0EC4Bh
          0ED42h - Recursive
      0EC4Bh
      0EC98h
      0ED3Fh
        0EC4Bh
        0ED42h - Recursive
      0EC00h
        0EC17h
      0EC40h
        0EC4Bh
    0EF30h
      0EC6Fh
        0EC80h
      0099h - External
    0ED3Fh
      0EC4Bh
      0ED42h - Recursive
    0EC00h
      0EC17h
    0EC60h
      0EC5Ch
        0EC60h - Recursive
    0EC22h
      0EC34h
    0EC40h
      0EC4Bh
    0EC6Fh
      0EC80h
    0099h - External
    0EC80h
    0EC56h
      0EC60h
        0EC5Ch
          0EC60h - Recursive
    0EF21h
      0EC22h
        0EC34h
0ED39h - Entry Point
  0ED0Fh
  0EC8Ah
  0EC4Bh
  0ED42h
    0EC98h
    0E003h
      0EF6Ch
      0ED0Fh
      0E00Dh
        0EC8Ah
        0F1DFh
          0F041h
            0F045h
              0F00Eh
                0F162h
              0F16Ch
                0F1B5h
                  0F1B8h
                    0F1C9h
                      0F1CDh
                0F14Ah
                  0F045h - Recursive
                0EC98h
                0F14Dh
                  0F1CDh
              0F185h
                0F1B8h
                  0F1C9h
                    0F1CDh
                0E2F5h
                  0E30Dh
                0F031h
                  0F00Eh
                    0F162h
                  0F040h
                    0F041h - Recursive
                  0F14Dh
                    0F1CDh
                  0F041h - Recursive
                0F0BFh
                  0F1CDh
                  0F4EBh
                    0F544h
                    0F55Ch
                  0F57Ah
                    0F544h
                    0F56Bh
                    0F55Ch
                  0E4ACh
                    0E477h
                    0E49Ch
                    0E422h
                      0E410h
                        0E400h
                    0E44Fh
                      0E410h
                        0E400h
                    0E42Fh
                      0E410h
                        0E400h
                      0E44Eh
                  0F14Dh
                    0F1CDh
                  0F1C9h
                    0F1CDh
                  0F1BEh
                    0E5F2h
                      0E5FDh
                        0E613h
                          0E608h
                            0E5FBh
                              0E5FDh - Recursive
                            0E60Bh
                        0E5FBh
                          0E5FDh - Recursive
                        0E60Bh
                    0EB04h
                  0F14Ah
                    0F045h - Recursive
                0F059h
                  0F14Dh
                    0F1CDh
                  0EC98h
                  0F031h
                    0F00Eh
                      0F162h
                    0F040h
                      0F041h - Recursive
                    0F14Dh
                      0F1CDh
                    0F041h - Recursive
                  0F1CDh
                  0F4EBh
                    0F544h
                    0F55Ch
                  0F57Ah
                    0F544h
                    0F56Bh
                    0F55Ch
                  0E4ACh
                    0E477h
                    0E49Ch
                    0E422h
                      0E410h
                        0E400h
                    0E44Fh
                      0E410h
                        0E400h
                    0E42Fh
                      0E410h
                        0E400h
                      0E44Eh
                  0F1C9h
                    0F1CDh
                  0F1BEh
                    0E5F2h
                      0E5FDh
                        0E613h
                          0E608h
                            0E5FBh
                              0E5FDh - Recursive
                            0E60Bh
                        0E5FBh
                          0E5FDh - Recursive
                        0E60Bh
                    0EB04h
                  0F14Ah
                    0F045h - Recursive
                0F14Dh
                  0F1CDh
              0F059h
                0F14Dh
                  0F1CDh
                0EC98h
                0F031h
                  0F00Eh
                    0F162h
                  0F040h
                    0F041h - Recursive
                  0F14Dh
                    0F1CDh
                  0F041h - Recursive
                0F1CDh
                0F4EBh
                  0F544h
                  0F55Ch
                0F57Ah
                  0F544h
                  0F56Bh
                  0F55Ch
                0E4ACh
                  0E477h
                  0E49Ch
                  0E422h
                    0E410h
                      0E400h
                  0E44Fh
                    0E410h
                      0E400h
                  0E42Fh
                    0E410h
                      0E400h
                    0E44Eh
                0F1C9h
                  0F1CDh
                0F1BEh
                  0E5F2h
                    0E5FDh
                      0E613h
                        0E608h
                          0E5FBh
                            0E5FDh - Recursive
                          0E60Bh
                      0E5FBh
                        0E5FDh - Recursive
                      0E60Bh
                  0EB04h
                0F14Ah
                  0F045h - Recursive
          0F23Dh
          0E6A3h
            0E477h
            0E641h
              0E63Eh
                0E635h
                  0E5A1h
                    0E5A6h
                      0E4D9h
                        0E400h
                      0E312h
                      0E529h
                      0E328h
                      0E477h
                      0E4CFh
                        0E400h
                      0E4ACh
                        0E477h
                        0E49Ch
                        0E422h
                          0E410h
                            0E400h
                        0E44Fh
                          0E410h
                            0E400h
                        0E42Fh
                          0E410h
                            0E400h
                          0E44Eh
                  0E63Eh - Recursive
            0E6B8h
              0E5A1h
                0E5A6h
                  0E4D9h
                    0E400h
                  0E312h
                  0E529h
                  0E328h
                  0E477h
                  0E4CFh
                    0E400h
                  0E4ACh
                    0E477h
                    0E49Ch
                    0E422h
                      0E410h
                        0E400h
                    0E44Fh
                      0E410h
                        0E400h
                    0E42Fh
                      0E410h
                        0E400h
                      0E44Eh
              0E635h
                0E5A1h
                  0E5A6h
                    0E4D9h
                      0E400h
                    0E312h
                    0E529h
                    0E328h
                    0E477h
                    0E4CFh
                      0E400h
                    0E4ACh
                      0E477h
                      0E49Ch
                      0E422h
                        0E410h
                          0E400h
                      0E44Fh
                        0E410h
                          0E400h
                      0E42Fh
                        0E410h
                          0E400h
                        0E44Eh
                0E63Eh
                  0E635h - Recursive
          0E4ACh
            0E477h
            0E49Ch
            0E422h
              0E410h
                0E400h
            0E44Fh
              0E410h
                0E400h
            0E42Fh
              0E410h
                0E400h
              0E44Eh
          0E5FDh
            0E613h
              0E608h
                0E5FBh
                  0E5FDh - Recursive
                0E60Bh
            0E5FBh
              0E5FDh - Recursive
            0E60Bh
          0EB04h
          0F235h
            0F238h
              0F041h
                0F045h
                  0F00Eh
                    0F162h
                  0F16Ch
                    0F1B5h
                      0F1B8h
                        0F1C9h
                          0F1CDh
                    0F14Ah
                      0F045h - Recursive
                    0EC98h
                    0F14Dh
                      0F1CDh
                  0F185h
                    0F1B8h
                      0F1C9h
                        0F1CDh
                    0E2F5h
                      0E30Dh
                    0F031h
                      0F00Eh
                        0F162h
                      0F040h
                        0F041h - Recursive
                      0F14Dh
                        0F1CDh
                      0F041h - Recursive
                    0F0BFh
                      0F1CDh
                      0F4EBh
                        0F544h
                        0F55Ch
                      0F57Ah
                        0F544h
                        0F56Bh
                        0F55Ch
                      0E4ACh
                        0E477h
                        0E49Ch
                        0E422h
                          0E410h
                            0E400h
                        0E44Fh
                          0E410h
                            0E400h
                        0E42Fh
                          0E410h
                            0E400h
                          0E44Eh
                      0F14Dh
                        0F1CDh
                      0F1C9h
                        0F1CDh
                      0F1BEh
                        0E5F2h
                          0E5FDh
                            0E613h
                              0E608h
                                0E5FBh
                                  0E5FDh - Recursive
                                0E60Bh
                            0E5FBh
                              0E5FDh - Recursive
                            0E60Bh
                        0EB04h
                      0F14Ah
                        0F045h - Recursive
                    0F059h
                      0F14Dh
                        0F1CDh
                      0EC98h
                      0F031h
                        0F00Eh
                          0F162h
                        0F040h
                          0F041h - Recursive
                        0F14Dh
                          0F1CDh
                        0F041h - Recursive
                      0F1CDh
                      0F4EBh
                        0F544h
                        0F55Ch
                      0F57Ah
                        0F544h
                        0F56Bh
                        0F55Ch
                      0E4ACh
                        0E477h
                        0E49Ch
                        0E422h
                          0E410h
                            0E400h
                        0E44Fh
                          0E410h
                            0E400h
                        0E42Fh
                          0E410h
                            0E400h
                          0E44Eh
                      0F1C9h
                        0F1CDh
                      0F1BEh
                        0E5F2h
                          0E5FDh
                            0E613h
                              0E608h
                                0E5FBh
                                  0E5FDh - Recursive
                                0E60Bh
                            0E5FBh
                              0E5FDh - Recursive
                            0E60Bh
                        0EB04h
                      0F14Ah
                        0F045h - Recursive
                    0F14Dh
                      0F1CDh
                  0F059h
                    0F14Dh
                      0F1CDh
                    0EC98h
                    0F031h
                      0F00Eh
                        0F162h
                      0F040h
                        0F041h - Recursive
                      0F14Dh
                        0F1CDh
                      0F041h - Recursive
                    0F1CDh
                    0F4EBh
                      0F544h
                      0F55Ch
                    0F57Ah
                      0F544h
                      0F56Bh
                      0F55Ch
                    0E4ACh
                      0E477h
                      0E49Ch
                      0E422h
                        0E410h
                          0E400h
                      0E44Fh
                        0E410h
                          0E400h
                      0E42Fh
                        0E410h
                          0E400h
                        0E44Eh
                    0F1C9h
                      0F1CDh
                    0F1BEh
                      0E5F2h
                        0E5FDh
                          0E613h
                            0E608h
                              0E5FBh
                                0E5FDh - Recursive
                              0E60Bh
                          0E5FBh
                            0E5FDh - Recursive
                          0E60Bh
                      0EB04h
                    0F14Ah
                      0F045h - Recursive
              0F235h - Recursive
    0EF75h
      0EF1Eh
        0ED3Fh
          0EC4Bh
          0ED42h - Recursive
      0EC4Bh
      0EC98h
      0ED3Fh
        0EC4Bh
        0ED42h - Recursive
      0EC00h
        0EC17h
      0EC40h
        0EC4Bh
    0EF30h
      0EC6Fh
        0EC80h
      0099h - External
    0ED3Fh
      0EC4Bh
      0ED42h - Recursive
    0EC00h
      0EC17h
    0EC60h
      0EC5Ch
        0EC60h - Recursive
    0EC22h
      0EC34h
    0EC40h
      0EC4Bh
    0EC6Fh
      0EC80h
    0099h - External
    0EC80h
    0EC56h
      0EC60h
        0EC5Ch
          0EC60h - Recursive
    0EF21h
      0EC22h
        0EC34h
0F142h - Entry Point
  0F14Dh
    0F1CDh
  0F059h
    0F14Dh
      0F1CDh
    0EC98h
    0F031h
      0F00Eh
        0F162h
      0F040h
        0F041h
          0F045h
            0F00Eh
              0F162h
            0F16Ch
              0F1B5h
                0F1B8h
                  0F1C9h
                    0F1CDh
              0F14Ah
                0F045h - Recursive
              0EC98h
              0F14Dh
                0F1CDh
            0F185h
              0F1B8h
                0F1C9h
                  0F1CDh
              0E2F5h
                0E30Dh
              0F031h - Recursive
              0F0BFh
                0F1CDh
                0F4EBh
                  0F544h
                  0F55Ch
                0F57Ah
                  0F544h
                  0F56Bh
                  0F55Ch
                0E4ACh
                  0E477h
                  0E49Ch
                  0E422h
                    0E410h
                      0E400h
                  0E44Fh
                    0E410h
                      0E400h
                  0E42Fh
                    0E410h
                      0E400h
                    0E44Eh
                0F14Dh
                  0F1CDh
                0F1C9h
                  0F1CDh
                0F1BEh
                  0E5F2h
                    0E5FDh
                      0E613h
                        0E608h
                          0E5FBh
                            0E5FDh - Recursive
                          0E60Bh
                      0E5FBh
                        0E5FDh - Recursive
                      0E60Bh
                  0EB04h
                0F14Ah
                  0F045h - Recursive
              0F059h - Recursive
              0F14Dh
                0F1CDh
            0F059h - Recursive
      0F14Dh
        0F1CDh
      0F041h
        0F045h
          0F00Eh
            0F162h
          0F16Ch
            0F1B5h
              0F1B8h
                0F1C9h
                  0F1CDh
            0F14Ah
              0F045h - Recursive
            0EC98h
            0F14Dh
              0F1CDh
          0F185h
            0F1B8h
              0F1C9h
                0F1CDh
            0E2F5h
              0E30Dh
            0F031h - Recursive
            0F0BFh
              0F1CDh
              0F4EBh
                0F544h
                0F55Ch
              0F57Ah
                0F544h
                0F56Bh
                0F55Ch
              0E4ACh
                0E477h
                0E49Ch
                0E422h
                  0E410h
                    0E400h
                0E44Fh
                  0E410h
                    0E400h
                0E42Fh
                  0E410h
                    0E400h
                  0E44Eh
              0F14Dh
                0F1CDh
              0F1C9h
                0F1CDh
              0F1BEh
                0E5F2h
                  0E5FDh
                    0E613h
                      0E608h
                        0E5FBh
                          0E5FDh - Recursive
                        0E60Bh
                    0E5FBh
                      0E5FDh - Recursive
                    0E60Bh
                0EB04h
              0F14Ah
                0F045h - Recursive
            0F059h - Recursive
            0F14Dh
              0F1CDh
          0F059h - Recursive
    0F1CDh
    0F4EBh
      0F544h
      0F55Ch
    0F57Ah
      0F544h
      0F56Bh
      0F55Ch
    0E4ACh
      0E477h
      0E49Ch
      0E422h
        0E410h
          0E400h
      0E44Fh
        0E410h
          0E400h
      0E42Fh
        0E410h
          0E400h
        0E44Eh
    0F1C9h
      0F1CDh
    0F1BEh
      0E5F2h
        0E5FDh
          0E613h
            0E608h
              0E5FBh
                0E5FDh - Recursive
              0E60Bh
          0E5FBh
            0E5FDh - Recursive
          0E60Bh
      0EB04h
    0F14Ah
      0F045h
        0F00Eh
          0F162h
        0F16Ch
          0F1B5h
            0F1B8h
              0F1C9h
                0F1CDh
          0F14Ah - Recursive
          0EC98h
          0F14Dh
            0F1CDh
        0F185h
          0F1B8h
            0F1C9h
              0F1CDh
          0E2F5h
            0E30Dh
          0F031h
            0F00Eh
              0F162h
            0F040h
              0F041h
                0F045h - Recursive
            0F14Dh
              0F1CDh
            0F041h
              0F045h - Recursive
          0F0BFh
            0F1CDh
            0F4EBh
              0F544h
              0F55Ch
            0F57Ah
              0F544h
              0F56Bh
              0F55Ch
            0E4ACh
              0E477h
              0E49Ch
              0E422h
                0E410h
                  0E400h
              0E44Fh
                0E410h
                  0E400h
              0E42Fh
                0E410h
                  0E400h
                0E44Eh
            0F14Dh
              0F1CDh
            0F1C9h
              0F1CDh
            0F1BEh
              0E5F2h
                0E5FDh
                  0E613h
                    0E608h
                      0E5FBh
                        0E5FDh - Recursive
                      0E60Bh
                  0E5FBh
                    0E5FDh - Recursive
                  0E60Bh
              0EB04h
            0F14Ah - Recursive
          0F059h - Recursive
          0F14Dh
            0F1CDh
        0F059h - Recursive
  0F045h
    0F00Eh
      0F162h
    0F16Ch
      0F1B5h
        0F1B8h
          0F1C9h
            0F1CDh
      0F14Ah
        0F045h - Recursive
      0EC98h
      0F14Dh
        0F1CDh
    0F185h
      0F1B8h
        0F1C9h
          0F1CDh
      0E2F5h
        0E30Dh
      0F031h
        0F00Eh
          0F162h
        0F040h
          0F041h
            0F045h - Recursive
        0F14Dh
          0F1CDh
        0F041h
          0F045h - Recursive
      0F0BFh
        0F1CDh
        0F4EBh
          0F544h
          0F55Ch
        0F57Ah
          0F544h
          0F56Bh
          0F55Ch
        0E4ACh
          0E477h
          0E49Ch
          0E422h
            0E410h
              0E400h
          0E44Fh
            0E410h
              0E400h
          0E42Fh
            0E410h
              0E400h
            0E44Eh
        0F14Dh
          0F1CDh
        0F1C9h
          0F1CDh
        0F1BEh
          0E5F2h
            0E5FDh
              0E613h
                0E608h
                  0E5FBh
                    0E5FDh - Recursive
                  0E60Bh
              0E5FBh
                0E5FDh - Recursive
              0E60Bh
          0EB04h
        0F14Ah
          0F045h - Recursive
      0F059h
        0F14Dh
          0F1CDh
        0EC98h
        0F031h
          0F00Eh
            0F162h
          0F040h
            0F041h
              0F045h - Recursive
          0F14Dh
            0F1CDh
          0F041h
            0F045h - Recursive
        0F1CDh
        0F4EBh
          0F544h
          0F55Ch
        0F57Ah
          0F544h
          0F56Bh
          0F55Ch
        0E4ACh
          0E477h
          0E49Ch
          0E422h
            0E410h
              0E400h
          0E44Fh
            0E410h
              0E400h
          0E42Fh
            0E410h
              0E400h
            0E44Eh
        0F1C9h
          0F1CDh
        0F1BEh
          0E5F2h
            0E5FDh
              0E613h
                0E608h
                  0E5FBh
                    0E5FDh - Recursive
                  0E60Bh
              0E5FBh
                0E5FDh - Recursive
              0E60Bh
          0EB04h
        0F14Ah
          0F045h - Recursive
      0F14Dh
        0F1CDh
    0F059h
      0F14Dh
        0F1CDh
      0EC98h
      0F031h
        0F00Eh
          0F162h
        0F040h
          0F041h
            0F045h - Recursive
        0F14Dh
          0F1CDh
        0F041h
          0F045h - Recursive
      0F1CDh
      0F4EBh
        0F544h
        0F55Ch
      0F57Ah
        0F544h
        0F56Bh
        0F55Ch
      0E4ACh
        0E477h
        0E49Ch
        0E422h
          0E410h
            0E400h
        0E44Fh
          0E410h
            0E400h
        0E42Fh
          0E410h
            0E400h
          0E44Eh
      0F1C9h
        0F1CDh
      0F1BEh
        0E5F2h
          0E5FDh
            0E613h
              0E608h
                0E5FBh
                  0E5FDh - Recursive
                0E60Bh
            0E5FBh
              0E5FDh - Recursive
            0E60Bh
        0EB04h
      0F14Ah
        0F045h - Recursive
0F250h - Entry Point
  0F23Dh
  0F238h
    0F041h
      0F045h
        0F00Eh
          0F162h
        0F16Ch
          0F1B5h
            0F1B8h
              0F1C9h
                0F1CDh
          0F14Ah
            0F045h - Recursive
          0EC98h
          0F14Dh
            0F1CDh
        0F185h
          0F1B8h
            0F1C9h
              0F1CDh
          0E2F5h
            0E30Dh
          0F031h
            0F00Eh
              0F162h
            0F040h
              0F041h - Recursive
            0F14Dh
              0F1CDh
            0F041h - Recursive
          0F0BFh
            0F1CDh
            0F4EBh
              0F544h
              0F55Ch
            0F57Ah
              0F544h
              0F56Bh
              0F55Ch
            0E4ACh
              0E477h
              0E49Ch
              0E422h
                0E410h
                  0E400h
              0E44Fh
                0E410h
                  0E400h
              0E42Fh
                0E410h
                  0E400h
                0E44Eh
            0F14Dh
              0F1CDh
            0F1C9h
              0F1CDh
            0F1BEh
              0E5F2h
                0E5FDh
                  0E613h
                    0E608h
                      0E5FBh
                        0E5FDh - Recursive
                      0E60Bh
                  0E5FBh
                    0E5FDh - Recursive
                  0E60Bh
              0EB04h
            0F14Ah
              0F045h - Recursive
          0F059h
            0F14Dh
              0F1CDh
            0EC98h
            0F031h
              0F00Eh
                0F162h
              0F040h
                0F041h - Recursive
              0F14Dh
                0F1CDh
              0F041h - Recursive
            0F1CDh
            0F4EBh
              0F544h
              0F55Ch
            0F57Ah
              0F544h
              0F56Bh
              0F55Ch
            0E4ACh
              0E477h
              0E49Ch
              0E422h
                0E410h
                  0E400h
              0E44Fh
                0E410h
                  0E400h
              0E42Fh
                0E410h
                  0E400h
                0E44Eh
            0F1C9h
              0F1CDh
            0F1BEh
              0E5F2h
                0E5FDh
                  0E613h
                    0E608h
                      0E5FBh
                        0E5FDh - Recursive
                      0E60Bh
                  0E5FBh
                    0E5FDh - Recursive
                  0E60Bh
              0EB04h
            0F14Ah
              0F045h - Recursive
          0F14Dh
            0F1CDh
        0F059h
          0F14Dh
            0F1CDh
          0EC98h
          0F031h
            0F00Eh
              0F162h
            0F040h
              0F041h - Recursive
            0F14Dh
              0F1CDh
            0F041h - Recursive
          0F1CDh
          0F4EBh
            0F544h
            0F55Ch
          0F57Ah
            0F544h
            0F56Bh
            0F55Ch
          0E4ACh
            0E477h
            0E49Ch
            0E422h
              0E410h
                0E400h
            0E44Fh
              0E410h
                0E400h
            0E42Fh
              0E410h
                0E400h
              0E44Eh
          0F1C9h
            0F1CDh
          0F1BEh
            0E5F2h
              0E5FDh
                0E613h
                  0E608h
                    0E5FBh
                      0E5FDh - Recursive
                    0E60Bh
                0E5FBh
                  0E5FDh - Recursive
                0E60Bh
            0EB04h
          0F14Ah
            0F045h - Recursive
    0F235h
      0F238h - Recursive
0F260h - Entry Point
  0F293h
    0F238h
      0F041h
        0F045h
          0F00Eh
            0F162h
          0F16Ch
            0F1B5h
              0F1B8h
                0F1C9h
                  0F1CDh
            0F14Ah
              0F045h - Recursive
            0EC98h
            0F14Dh
              0F1CDh
          0F185h
            0F1B8h
              0F1C9h
                0F1CDh
            0E2F5h
              0E30Dh
            0F031h
              0F00Eh
                0F162h
              0F040h
                0F041h - Recursive
              0F14Dh
                0F1CDh
              0F041h - Recursive
            0F0BFh
              0F1CDh
              0F4EBh
                0F544h
                0F55Ch
              0F57Ah
                0F544h
                0F56Bh
                0F55Ch
              0E4ACh
                0E477h
                0E49Ch
                0E422h
                  0E410h
                    0E400h
                0E44Fh
                  0E410h
                    0E400h
                0E42Fh
                  0E410h
                    0E400h
                  0E44Eh
              0F14Dh
                0F1CDh
              0F1C9h
                0F1CDh
              0F1BEh
                0E5F2h
                  0E5FDh
                    0E613h
                      0E608h
                        0E5FBh
                          0E5FDh - Recursive
                        0E60Bh
                    0E5FBh
                      0E5FDh - Recursive
                    0E60Bh
                0EB04h
              0F14Ah
                0F045h - Recursive
            0F059h
              0F14Dh
                0F1CDh
              0EC98h
              0F031h
                0F00Eh
                  0F162h
                0F040h
                  0F041h - Recursive
                0F14Dh
                  0F1CDh
                0F041h - Recursive
              0F1CDh
              0F4EBh
                0F544h
                0F55Ch
              0F57Ah
                0F544h
                0F56Bh
                0F55Ch
              0E4ACh
                0E477h
                0E49Ch
                0E422h
                  0E410h
                    0E400h
                0E44Fh
                  0E410h
                    0E400h
                0E42Fh
                  0E410h
                    0E400h
                  0E44Eh
              0F1C9h
                0F1CDh
              0F1BEh
                0E5F2h
                  0E5FDh
                    0E613h
                      0E608h
                        0E5FBh
                          0E5FDh - Recursive
                        0E60Bh
                    0E5FBh
                      0E5FDh - Recursive
                    0E60Bh
                0EB04h
              0F14Ah
                0F045h - Recursive
            0F14Dh
              0F1CDh
          0F059h
            0F14Dh
              0F1CDh
            0EC98h
            0F031h
              0F00Eh
                0F162h
              0F040h
                0F041h - Recursive
              0F14Dh
                0F1CDh
              0F041h - Recursive
            0F1CDh
            0F4EBh
              0F544h
              0F55Ch
            0F57Ah
              0F544h
              0F56Bh
              0F55Ch
            0E4ACh
              0E477h
              0E49Ch
              0E422h
                0E410h
                  0E400h
              0E44Fh
                0E410h
                  0E400h
              0E42Fh
                0E410h
                  0E400h
                0E44Eh
            0F1C9h
              0F1CDh
            0F1BEh
              0E5F2h
                0E5FDh
                  0E613h
                    0E608h
                      0E5FBh
                        0E5FDh - Recursive
                      0E60Bh
                  0E5FBh
                    0E5FDh - Recursive
                  0E60Bh
              0EB04h
            0F14Ah
              0F045h - Recursive
      0F235h
        0F238h - Recursive
0F286h - Entry Point
  0F041h
    0F045h
      0F00Eh
        0F162h
      0F16Ch
        0F1B5h
          0F1B8h
            0F1C9h
              0F1CDh
        0F14Ah
          0F045h - Recursive
        0EC98h
        0F14Dh
          0F1CDh
      0F185h
        0F1B8h
          0F1C9h
            0F1CDh
        0E2F5h
          0E30Dh
        0F031h
          0F00Eh
            0F162h
          0F040h
            0F041h - Recursive
          0F14Dh
            0F1CDh
          0F041h - Recursive
        0F0BFh
          0F1CDh
          0F4EBh
            0F544h
            0F55Ch
          0F57Ah
            0F544h
            0F56Bh
            0F55Ch
          0E4ACh
            0E477h
            0E49Ch
            0E422h
              0E410h
                0E400h
            0E44Fh
              0E410h
                0E400h
            0E42Fh
              0E410h
                0E400h
              0E44Eh
          0F14Dh
            0F1CDh
          0F1C9h
            0F1CDh
          0F1BEh
            0E5F2h
              0E5FDh
                0E613h
                  0E608h
                    0E5FBh
                      0E5FDh - Recursive
                    0E60Bh
                0E5FBh
                  0E5FDh - Recursive
                0E60Bh
            0EB04h
          0F14Ah
            0F045h - Recursive
        0F059h
          0F14Dh
            0F1CDh
          0EC98h
          0F031h
            0F00Eh
              0F162h
            0F040h
              0F041h - Recursive
            0F14Dh
              0F1CDh
            0F041h - Recursive
          0F1CDh
          0F4EBh
            0F544h
            0F55Ch
          0F57Ah
            0F544h
            0F56Bh
            0F55Ch
          0E4ACh
            0E477h
            0E49Ch
            0E422h
              0E410h
                0E400h
            0E44Fh
              0E410h
                0E400h
            0E42Fh
              0E410h
                0E400h
              0E44Eh
          0F1C9h
            0F1CDh
          0F1BEh
            0E5F2h
              0E5FDh
                0E613h
                  0E608h
                    0E5FBh
                      0E5FDh - Recursive
                    0E60Bh
                0E5FBh
                  0E5FDh - Recursive
                0E60Bh
            0EB04h
          0F14Ah
            0F045h - Recursive
        0F14Dh
          0F1CDh
      0F059h
        0F14Dh
          0F1CDh
        0EC98h
        0F031h
          0F00Eh
            0F162h
          0F040h
            0F041h - Recursive
          0F14Dh
            0F1CDh
          0F041h - Recursive
        0F1CDh
        0F4EBh
          0F544h
          0F55Ch
        0F57Ah
          0F544h
          0F56Bh
          0F55Ch
        0E4ACh
          0E477h
          0E49Ch
          0E422h
            0E410h
              0E400h
          0E44Fh
            0E410h
              0E400h
          0E42Fh
            0E410h
              0E400h
            0E44Eh
        0F1C9h
          0F1CDh
        0F1BEh
          0E5F2h
            0E5FDh
              0E613h
                0E608h
                  0E5FBh
                    0E5FDh - Recursive
                  0E60Bh
              0E5FBh
                0E5FDh - Recursive
              0E60Bh
          0EB04h
        0F14Ah
          0F045h - Recursive
  0F293h
    0F238h
      0F041h
        0F045h
          0F00Eh
            0F162h
          0F16Ch
            0F1B5h
              0F1B8h
                0F1C9h
                  0F1CDh
            0F14Ah
              0F045h - Recursive
            0EC98h
            0F14Dh
              0F1CDh
          0F185h
            0F1B8h
              0F1C9h
                0F1CDh
            0E2F5h
              0E30Dh
            0F031h
              0F00Eh
                0F162h
              0F040h
                0F041h - Recursive
              0F14Dh
                0F1CDh
              0F041h - Recursive
            0F0BFh
              0F1CDh
              0F4EBh
                0F544h
                0F55Ch
              0F57Ah
                0F544h
                0F56Bh
                0F55Ch
              0E4ACh
                0E477h
                0E49Ch
                0E422h
                  0E410h
                    0E400h
                0E44Fh
                  0E410h
                    0E400h
                0E42Fh
                  0E410h
                    0E400h
                  0E44Eh
              0F14Dh
                0F1CDh
              0F1C9h
                0F1CDh
              0F1BEh
                0E5F2h
                  0E5FDh
                    0E613h
                      0E608h
                        0E5FBh
                          0E5FDh - Recursive
                        0E60Bh
                    0E5FBh
                      0E5FDh - Recursive
                    0E60Bh
                0EB04h
              0F14Ah
                0F045h - Recursive
            0F059h
              0F14Dh
                0F1CDh
              0EC98h
              0F031h
                0F00Eh
                  0F162h
                0F040h
                  0F041h - Recursive
                0F14Dh
                  0F1CDh
                0F041h - Recursive
              0F1CDh
              0F4EBh
                0F544h
                0F55Ch
              0F57Ah
                0F544h
                0F56Bh
                0F55Ch
              0E4ACh
                0E477h
                0E49Ch
                0E422h
                  0E410h
                    0E400h
                0E44Fh
                  0E410h
                    0E400h
                0E42Fh
                  0E410h
                    0E400h
                  0E44Eh
              0F1C9h
                0F1CDh
              0F1BEh
                0E5F2h
                  0E5FDh
                    0E613h
                      0E608h
                        0E5FBh
                          0E5FDh - Recursive
                        0E60Bh
                    0E5FBh
                      0E5FDh - Recursive
                    0E60Bh
                0EB04h
              0F14Ah
                0F045h - Recursive
            0F14Dh
              0F1CDh
          0F059h
            0F14Dh
              0F1CDh
            0EC98h
            0F031h
              0F00Eh
                0F162h
              0F040h
                0F041h - Recursive
              0F14Dh
                0F1CDh
              0F041h - Recursive
            0F1CDh
            0F4EBh
              0F544h
              0F55Ch
            0F57Ah
              0F544h
              0F56Bh
              0F55Ch
            0E4ACh
              0E477h
              0E49Ch
              0E422h
                0E410h
                  0E400h
              0E44Fh
                0E410h
                  0E400h
              0E42Fh
                0E410h
                  0E400h
                0E44Eh
            0F1C9h
              0F1CDh
            0F1BEh
              0E5F2h
                0E5FDh
                  0E613h
                    0E608h
                      0E5FBh
                        0E5FDh - Recursive
                      0E60Bh
                  0E5FBh
                    0E5FDh - Recursive
                  0E60Bh
              0EB04h
            0F14Ah
              0F045h - Recursive
      0F235h
        0F238h - Recursive
0F29Dh - Entry Point
0F2ADh - Entry Point
  0EC8Ah
  0F2BDh
  0E003h
    0EF6Ch
    0ED0Fh
    0E00Dh
      0EC8Ah
      0F1DFh
        0F041h
          0F045h
            0F00Eh
              0F162h
            0F16Ch
              0F1B5h
                0F1B8h
                  0F1C9h
                    0F1CDh
              0F14Ah
                0F045h - Recursive
              0EC98h
              0F14Dh
                0F1CDh
            0F185h
              0F1B8h
                0F1C9h
                  0F1CDh
              0E2F5h
                0E30Dh
              0F031h
                0F00Eh
                  0F162h
                0F040h
                  0F041h - Recursive
                0F14Dh
                  0F1CDh
                0F041h - Recursive
              0F0BFh
                0F1CDh
                0F4EBh
                  0F544h
                  0F55Ch
                0F57Ah
                  0F544h
                  0F56Bh
                  0F55Ch
                0E4ACh
                  0E477h
                  0E49Ch
                  0E422h
                    0E410h
                      0E400h
                  0E44Fh
                    0E410h
                      0E400h
                  0E42Fh
                    0E410h
                      0E400h
                    0E44Eh
                0F14Dh
                  0F1CDh
                0F1C9h
                  0F1CDh
                0F1BEh
                  0E5F2h
                    0E5FDh
                      0E613h
                        0E608h
                          0E5FBh
                            0E5FDh - Recursive
                          0E60Bh
                      0E5FBh
                        0E5FDh - Recursive
                      0E60Bh
                  0EB04h
                0F14Ah
                  0F045h - Recursive
              0F059h
                0F14Dh
                  0F1CDh
                0EC98h
                0F031h
                  0F00Eh
                    0F162h
                  0F040h
                    0F041h - Recursive
                  0F14Dh
                    0F1CDh
                  0F041h - Recursive
                0F1CDh
                0F4EBh
                  0F544h
                  0F55Ch
                0F57Ah
                  0F544h
                  0F56Bh
                  0F55Ch
                0E4ACh
                  0E477h
                  0E49Ch
                  0E422h
                    0E410h
                      0E400h
                  0E44Fh
                    0E410h
                      0E400h
                  0E42Fh
                    0E410h
                      0E400h
                    0E44Eh
                0F1C9h
                  0F1CDh
                0F1BEh
                  0E5F2h
                    0E5FDh
                      0E613h
                        0E608h
                          0E5FBh
                            0E5FDh - Recursive
                          0E60Bh
                      0E5FBh
                        0E5FDh - Recursive
                      0E60Bh
                  0EB04h
                0F14Ah
                  0F045h - Recursive
              0F14Dh
                0F1CDh
            0F059h
              0F14Dh
                0F1CDh
              0EC98h
              0F031h
                0F00Eh
                  0F162h
                0F040h
                  0F041h - Recursive
                0F14Dh
                  0F1CDh
                0F041h - Recursive
              0F1CDh
              0F4EBh
                0F544h
                0F55Ch
              0F57Ah
                0F544h
                0F56Bh
                0F55Ch
              0E4ACh
                0E477h
                0E49Ch
                0E422h
                  0E410h
                    0E400h
                0E44Fh
                  0E410h
                    0E400h
                0E42Fh
                  0E410h
                    0E400h
                  0E44Eh
              0F1C9h
                0F1CDh
              0F1BEh
                0E5F2h
                  0E5FDh
                    0E613h
                      0E608h
                        0E5FBh
                          0E5FDh - Recursive
                        0E60Bh
                    0E5FBh
                      0E5FDh - Recursive
                    0E60Bh
                0EB04h
              0F14Ah
                0F045h - Recursive
        0F23Dh
        0E6A3h
          0E477h
          0E641h
            0E63Eh
              0E635h
                0E5A1h
                  0E5A6h
                    0E4D9h
                      0E400h
                    0E312h
                    0E529h
                    0E328h
                    0E477h
                    0E4CFh
                      0E400h
                    0E4ACh
                      0E477h
                      0E49Ch
                      0E422h
                        0E410h
                          0E400h
                      0E44Fh
                        0E410h
                          0E400h
                      0E42Fh
                        0E410h
                          0E400h
                        0E44Eh
                0E63Eh - Recursive
          0E6B8h
            0E5A1h
              0E5A6h
                0E4D9h
                  0E400h
                0E312h
                0E529h
                0E328h
                0E477h
                0E4CFh
                  0E400h
                0E4ACh
                  0E477h
                  0E49Ch
                  0E422h
                    0E410h
                      0E400h
                  0E44Fh
                    0E410h
                      0E400h
                  0E42Fh
                    0E410h
                      0E400h
                    0E44Eh
            0E635h
              0E5A1h
                0E5A6h
                  0E4D9h
                    0E400h
                  0E312h
                  0E529h
                  0E328h
                  0E477h
                  0E4CFh
                    0E400h
                  0E4ACh
                    0E477h
                    0E49Ch
                    0E422h
                      0E410h
                        0E400h
                    0E44Fh
                      0E410h
                        0E400h
                    0E42Fh
                      0E410h
                        0E400h
                      0E44Eh
              0E63Eh
                0E635h - Recursive
        0E4ACh
          0E477h
          0E49Ch
          0E422h
            0E410h
              0E400h
          0E44Fh
            0E410h
              0E400h
          0E42Fh
            0E410h
              0E400h
            0E44Eh
        0E5FDh
          0E613h
            0E608h
              0E5FBh
                0E5FDh - Recursive
              0E60Bh
          0E5FBh
            0E5FDh - Recursive
          0E60Bh
        0EB04h
        0F235h
          0F238h
            0F041h
              0F045h
                0F00Eh
                  0F162h
                0F16Ch
                  0F1B5h
                    0F1B8h
                      0F1C9h
                        0F1CDh
                  0F14Ah
                    0F045h - Recursive
                  0EC98h
                  0F14Dh
                    0F1CDh
                0F185h
                  0F1B8h
                    0F1C9h
                      0F1CDh
                  0E2F5h
                    0E30Dh
                  0F031h
                    0F00Eh
                      0F162h
                    0F040h
                      0F041h - Recursive
                    0F14Dh
                      0F1CDh
                    0F041h - Recursive
                  0F0BFh
                    0F1CDh
                    0F4EBh
                      0F544h
                      0F55Ch
                    0F57Ah
                      0F544h
                      0F56Bh
                      0F55Ch
                    0E4ACh
                      0E477h
                      0E49Ch
                      0E422h
                        0E410h
                          0E400h
                      0E44Fh
                        0E410h
                          0E400h
                      0E42Fh
                        0E410h
                          0E400h
                        0E44Eh
                    0F14Dh
                      0F1CDh
                    0F1C9h
                      0F1CDh
                    0F1BEh
                      0E5F2h
                        0E5FDh
                          0E613h
                            0E608h
                              0E5FBh
                                0E5FDh - Recursive
                              0E60Bh
                          0E5FBh
                            0E5FDh - Recursive
                          0E60Bh
                      0EB04h
                    0F14Ah
                      0F045h - Recursive
                  0F059h
                    0F14Dh
                      0F1CDh
                    0EC98h
                    0F031h
                      0F00Eh
                        0F162h
                      0F040h
                        0F041h - Recursive
                      0F14Dh
                        0F1CDh
                      0F041h - Recursive
                    0F1CDh
                    0F4EBh
                      0F544h
                      0F55Ch
                    0F57Ah
                      0F544h
                      0F56Bh
                      0F55Ch
                    0E4ACh
                      0E477h
                      0E49Ch
                      0E422h
                        0E410h
                          0E400h
                      0E44Fh
                        0E410h
                          0E400h
                      0E42Fh
                        0E410h
                          0E400h
                        0E44Eh
                    0F1C9h
                      0F1CDh
                    0F1BEh
                      0E5F2h
                        0E5FDh
                          0E613h
                            0E608h
                              0E5FBh
                                0E5FDh - Recursive
                              0E60Bh
                          0E5FBh
                            0E5FDh - Recursive
                          0E60Bh
                      0EB04h
                    0F14Ah
                      0F045h - Recursive
                  0F14Dh
                    0F1CDh
                0F059h
                  0F14Dh
                    0F1CDh
                  0EC98h
                  0F031h
                    0F00Eh
                      0F162h
                    0F040h
                      0F041h - Recursive
                    0F14Dh
                      0F1CDh
                    0F041h - Recursive
                  0F1CDh
                  0F4EBh
                    0F544h
                    0F55Ch
                  0F57Ah
                    0F544h
                    0F56Bh
                    0F55Ch
                  0E4ACh
                    0E477h
                    0E49Ch
                    0E422h
                      0E410h
                        0E400h
                    0E44Fh
                      0E410h
                        0E400h
                    0E42Fh
                      0E410h
                        0E400h
                      0E44Eh
                  0F1C9h
                    0F1CDh
                  0F1BEh
                    0E5F2h
                      0E5FDh
                        0E613h
                          0E608h
                            0E5FBh
                              0E5FDh - Recursive
                            0E60Bh
                        0E5FBh
                          0E5FDh - Recursive
                        0E60Bh
                    0EB04h
                  0F14Ah
                    0F045h - Recursive
            0F235h - Recursive
0F5E0h - Entry Point
  0F6ABh
  0F544h
  0F55Ch
  0F80Bh
0F6B6h - Entry Point
  0F544h
  0F774h
  0F78Ah
    0F544h
    0F80Bh
  0F56Bh
  0F55Ch
0F7CCh - Entry Point
  0F56Bh
0FF49h - Entry Point
  0F7CCh
    0F56Bh
0FF4Ch - Entry Point
  0F6B6h
    0F544h
    0F774h
    0F78Ah
      0F544h
      0F80Bh
    0F56Bh
    0F55Ch
0FF4Fh - Entry Point
  0F5E0h
    0F6ABh
    0F544h
    0F55Ch
    0F80Bh
0FF52h - Entry Point
  0F56Bh
0FF55h - Entry Point
  0F55Ch
0FF58h - Entry Point
  0F57Ah
    0F544h
    0F56Bh
    0F55Ch
0FF5Bh - Entry Point
  0F4EBh
    0F544h
    0F55Ch
0FF5Eh - Entry Point
  0F1D9h
    0EC98h
    0E003h
      0EF6Ch
      0ED0Fh
      0E00Dh
        0EC8Ah
        0F1DFh
          0F041h
            0F045h
              0F00Eh
                0F162h
              0F16Ch
                0F1B5h
                  0F1B8h
                    0F1C9h
                      0F1CDh
                0F14Ah
                  0F045h - Recursive
                0EC98h
                0F14Dh
                  0F1CDh
              0F185h
                0F1B8h
                  0F1C9h
                    0F1CDh
                0E2F5h
                  0E30Dh
                0F031h
                  0F00Eh
                    0F162h
                  0F040h
                    0F041h - Recursive
                  0F14Dh
                    0F1CDh
                  0F041h - Recursive
                0F0BFh
                  0F1CDh
                  0F4EBh
                    0F544h
                    0F55Ch
                  0F57Ah
                    0F544h
                    0F56Bh
                    0F55Ch
                  0E4ACh
                    0E477h
                    0E49Ch
                    0E422h
                      0E410h
                        0E400h
                    0E44Fh
                      0E410h
                        0E400h
                    0E42Fh
                      0E410h
                        0E400h
                      0E44Eh
                  0F14Dh
                    0F1CDh
                  0F1C9h
                    0F1CDh
                  0F1BEh
                    0E5F2h
                      0E5FDh
                        0E613h
                          0E608h
                            0E5FBh
                              0E5FDh - Recursive
                            0E60Bh
                        0E5FBh
                          0E5FDh - Recursive
                        0E60Bh
                    0EB04h
                  0F14Ah
                    0F045h - Recursive
                0F059h
                  0F14Dh
                    0F1CDh
                  0EC98h
                  0F031h
                    0F00Eh
                      0F162h
                    0F040h
                      0F041h - Recursive
                    0F14Dh
                      0F1CDh
                    0F041h - Recursive
                  0F1CDh
                  0F4EBh
                    0F544h
                    0F55Ch
                  0F57Ah
                    0F544h
                    0F56Bh
                    0F55Ch
                  0E4ACh
                    0E477h
                    0E49Ch
                    0E422h
                      0E410h
                        0E400h
                    0E44Fh
                      0E410h
                        0E400h
                    0E42Fh
                      0E410h
                        0E400h
                      0E44Eh
                  0F1C9h
                    0F1CDh
                  0F1BEh
                    0E5F2h
                      0E5FDh
                        0E613h
                          0E608h
                            0E5FBh
                              0E5FDh - Recursive
                            0E60Bh
                        0E5FBh
                          0E5FDh - Recursive
                        0E60Bh
                    0EB04h
                  0F14Ah
                    0F045h - Recursive
                0F14Dh
                  0F1CDh
              0F059h
                0F14Dh
                  0F1CDh
                0EC98h
                0F031h
                  0F00Eh
                    0F162h
                  0F040h
                    0F041h - Recursive
                  0F14Dh
                    0F1CDh
                  0F041h - Recursive
                0F1CDh
                0F4EBh
                  0F544h
                  0F55Ch
                0F57Ah
                  0F544h
                  0F56Bh
                  0F55Ch
                0E4ACh
                  0E477h
                  0E49Ch
                  0E422h
                    0E410h
                      0E400h
                  0E44Fh
                    0E410h
                      0E400h
                  0E42Fh
                    0E410h
                      0E400h
                    0E44Eh
                0F1C9h
                  0F1CDh
                0F1BEh
                  0E5F2h
                    0E5FDh
                      0E613h
                        0E608h
                          0E5FBh
                            0E5FDh - Recursive
                          0E60Bh
                      0E5FBh
                        0E5FDh - Recursive
                      0E60Bh
                  0EB04h
                0F14Ah
                  0F045h - Recursive
          0F23Dh
          0E6A3h
            0E477h
            0E641h
              0E63Eh
                0E635h
                  0E5A1h
                    0E5A6h
                      0E4D9h
                        0E400h
                      0E312h
                      0E529h
                      0E328h
                      0E477h
                      0E4CFh
                        0E400h
                      0E4ACh
                        0E477h
                        0E49Ch
                        0E422h
                          0E410h
                            0E400h
                        0E44Fh
                          0E410h
                            0E400h
                        0E42Fh
                          0E410h
                            0E400h
                          0E44Eh
                  0E63Eh - Recursive
            0E6B8h
              0E5A1h
                0E5A6h
                  0E4D9h
                    0E400h
                  0E312h
                  0E529h
                  0E328h
                  0E477h
                  0E4CFh
                    0E400h
                  0E4ACh
                    0E477h
                    0E49Ch
                    0E422h
                      0E410h
                        0E400h
                    0E44Fh
                      0E410h
                        0E400h
                    0E42Fh
                      0E410h
                        0E400h
                      0E44Eh
              0E635h
                0E5A1h
                  0E5A6h
                    0E4D9h
                      0E400h
                    0E312h
                    0E529h
                    0E328h
                    0E477h
                    0E4CFh
                      0E400h
                    0E4ACh
                      0E477h
                      0E49Ch
                      0E422h
                        0E410h
                          0E400h
                      0E44Fh
                        0E410h
                          0E400h
                      0E42Fh
                        0E410h
                          0E400h
                        0E44Eh
                0E63Eh
                  0E635h - Recursive
          0E4ACh
            0E477h
            0E49Ch
            0E422h
              0E410h
                0E400h
            0E44Fh
              0E410h
                0E400h
            0E42Fh
              0E410h
                0E400h
              0E44Eh
          0E5FDh
            0E613h
              0E608h
                0E5FBh
                  0E5FDh - Recursive
                0E60Bh
            0E5FBh
              0E5FDh - Recursive
            0E60Bh
          0EB04h
          0F235h
            0F238h
              0F041h
                0F045h
                  0F00Eh
                    0F162h
                  0F16Ch
                    0F1B5h
                      0F1B8h
                        0F1C9h
                          0F1CDh
                    0F14Ah
                      0F045h - Recursive
                    0EC98h
                    0F14Dh
                      0F1CDh
                  0F185h
                    0F1B8h
                      0F1C9h
                        0F1CDh
                    0E2F5h
                      0E30Dh
                    0F031h
                      0F00Eh
                        0F162h
                      0F040h
                        0F041h - Recursive
                      0F14Dh
                        0F1CDh
                      0F041h - Recursive
                    0F0BFh
                      0F1CDh
                      0F4EBh
                        0F544h
                        0F55Ch
                      0F57Ah
                        0F544h
                        0F56Bh
                        0F55Ch
                      0E4ACh
                        0E477h
                        0E49Ch
                        0E422h
                          0E410h
                            0E400h
                        0E44Fh
                          0E410h
                            0E400h
                        0E42Fh
                          0E410h
                            0E400h
                          0E44Eh
                      0F14Dh
                        0F1CDh
                      0F1C9h
                        0F1CDh
                      0F1BEh
                        0E5F2h
                          0E5FDh
                            0E613h
                              0E608h
                                0E5FBh
                                  0E5FDh - Recursive
                                0E60Bh
                            0E5FBh
                              0E5FDh - Recursive
                            0E60Bh
                        0EB04h
                      0F14Ah
                        0F045h - Recursive
                    0F059h
                      0F14Dh
                        0F1CDh
                      0EC98h
                      0F031h
                        0F00Eh
                          0F162h
                        0F040h
                          0F041h - Recursive
                        0F14Dh
                          0F1CDh
                        0F041h - Recursive
                      0F1CDh
                      0F4EBh
                        0F544h
                        0F55Ch
                      0F57Ah
                        0F544h
                        0F56Bh
                        0F55Ch
                      0E4ACh
                        0E477h
                        0E49Ch
                        0E422h
                          0E410h
                            0E400h
                        0E44Fh
                          0E410h
                            0E400h
                        0E42Fh
                          0E410h
                            0E400h
                          0E44Eh
                      0F1C9h
                        0F1CDh
                      0F1BEh
                        0E5F2h
                          0E5FDh
                            0E613h
                              0E608h
                                0E5FBh
                                  0E5FDh - Recursive
                                0E60Bh
                            0E5FBh
                              0E5FDh - Recursive
                            0E60Bh
                        0EB04h
                      0F14Ah
                        0F045h - Recursive
                    0F14Dh
                      0F1CDh
                  0F059h
                    0F14Dh
                      0F1CDh
                    0EC98h
                    0F031h
                      0F00Eh
                        0F162h
                      0F040h
                        0F041h - Recursive
                      0F14Dh
                        0F1CDh
                      0F041h - Recursive
                    0F1CDh
                    0F4EBh
                      0F544h
                      0F55Ch
                    0F57Ah
                      0F544h
                      0F56Bh
                      0F55Ch
                    0E4ACh
                      0E477h
                      0E49Ch
                      0E422h
                        0E410h
                          0E400h
                      0E44Fh
                        0E410h
                          0E400h
                      0E42Fh
                        0E410h
                          0E400h
                        0E44Eh
                    0F1C9h
                      0F1CDh
                    0F1BEh
                      0E5F2h
                        0E5FDh
                          0E613h
                            0E608h
                              0E5FBh
                                0E5FDh - Recursive
                              0E60Bh
                          0E5FBh
                            0E5FDh - Recursive
                          0E60Bh
                      0EB04h
                    0F14Ah
                      0F045h - Recursive
              0F235h - Recursive
0FF67h - Entry Point
  0EB58h
    0EB76h
      0EA58h
        0EADDh
          0EACFh
            0E2F5h
              0E30Dh
        0EC40h
          0EC4Bh
        0EA8Dh
          0EA8Fh
            0E2F5h
              0E30Dh
    0EC40h
      0EC4Bh
0FF6Ah - Entry Point
  0EB55h
    0EB58h
      0EB76h
        0EA58h
          0EADDh
            0EACFh
              0E2F5h
                0E30Dh
          0EC40h
            0EC4Bh
          0EA8Dh
            0EA8Fh
              0E2F5h
                0E30Dh
      0EC40h
        0EC4Bh
0FF6Dh - Entry Point
  0EB52h
    0EB76h
      0EA58h
        0EADDh
          0EACFh
            0E2F5h
              0E30Dh
        0EC40h
          0EC4Bh
        0EA8Dh
          0EA8Fh
            0E2F5h
              0E30Dh
    0EC40h
      0EC4Bh
0FF70h - Entry Point
  0EB04h
0FF73h - Entry Point
  0EADDh
    0EACFh
      0E2F5h
        0E30Dh
0FF76h - Entry Point
  0EA8Fh
    0E2F5h
      0E30Dh
0FF79h - Entry Point
  0EA8Dh
    0EA8Fh
      0E2F5h
        0E30Dh
0FF7Ch - Entry Point
  0EA58h
    0EADDh
      0EACFh
        0E2F5h
          0E30Dh
    0EC40h
      0EC4Bh
    0EA8Dh
      0EA8Fh
        0E2F5h
          0E30Dh
0FF7Fh - Entry Point
  0EA3Ah
    0EA58h
      0EADDh
        0EACFh
          0E2F5h
            0E30Dh
      0EC40h
        0EC4Bh
      0EA8Dh
        0EA8Fh
          0E2F5h
            0E30Dh
0FF82h - Entry Point
  0EA21h
    0EA58h
      0EADDh
        0EACFh
          0E2F5h
            0E30Dh
      0EC40h
        0EC4Bh
      0EA8Dh
        0EA8Fh
          0E2F5h
            0E30Dh
    0EA3Ah
      0EA58h
        0EADDh
          0EACFh
            0E2F5h
              0E30Dh
        0EC40h
          0EC4Bh
        0EA8Dh
          0EA8Fh
            0E2F5h
              0E30Dh
0FF8Bh - Entry Point
  0E993h
0FF8Eh - Entry Point
  0E8B1h
    0E477h
    0E597h
      0E5A6h
        0E4D9h
          0E400h
        0E312h
        0E529h
        0E328h
        0E477h
        0E4CFh
          0E400h
        0E4ACh
          0E477h
          0E49Ch
          0E422h
            0E410h
              0E400h
          0E44Fh
            0E410h
              0E400h
          0E42Fh
            0E410h
              0E400h
            0E44Eh
    0E5A1h
      0E5A6h
        0E4D9h
          0E400h
        0E312h
        0E529h
        0E328h
        0E477h
        0E4CFh
          0E400h
        0E4ACh
          0E477h
          0E49Ch
          0E422h
            0E410h
              0E400h
          0E44Fh
            0E410h
              0E400h
          0E42Fh
            0E410h
              0E400h
            0E44Eh
0FF91h - Entry Point
  0E807h
    0E4CFh
      0E400h
    0E477h
    0E800h
      0E84Ah
        0E5A1h
          0E5A6h
            0E4D9h
              0E400h
            0E312h
            0E529h
            0E328h
            0E477h
            0E4CFh
              0E400h
            0E4ACh
              0E477h
              0E49Ch
              0E422h
                0E410h
                  0E400h
              0E44Fh
                0E410h
                  0E400h
              0E42Fh
                0E410h
                  0E400h
                0E44Eh
    0E84Ah
      0E5A1h
        0E5A6h
          0E4D9h
            0E400h
          0E312h
          0E529h
          0E328h
          0E477h
          0E4CFh
            0E400h
          0E4ACh
            0E477h
            0E49Ch
            0E422h
              0E410h
                0E400h
            0E44Fh
              0E410h
                0E400h
            0E42Fh
              0E410h
                0E400h
              0E44Eh
0FF94h - Entry Point
  0E6D4h
    0E6E0h
      0E1D1h
        0E1C8h
          0E2F5h
            0E30Dh
        0E23Dh
          0E2F5h
            0E30Dh
      0E25Fh
        0E270h
          0E277h
            0E23Dh
              0E2F5h
                0E30Dh
      0E277h
        0E23Dh
          0E2F5h
            0E30Dh
      0E23Dh
        0E2F5h
          0E30Dh
      0E1BEh
        0E2F5h
          0E30Dh
0FF97h - Entry Point
  0E778h
    0E758h
      0E18Bh
        0E1C8h
          0E2F5h
            0E30Dh
        0E115h
          0E2F5h
            0E30Dh
      0E172h
        0E144h
          0E2F5h
            0E30Dh
      0E144h
        0E2F5h
          0E30Dh
      0E6FFh
        0E1BEh
          0E2F5h
            0E30Dh
0FF9Ah - Entry Point
  0E702h
    0E6E0h
      0E1D1h
        0E1C8h
          0E2F5h
            0E30Dh
        0E23Dh
          0E2F5h
            0E30Dh
      0E25Fh
        0E270h
          0E277h
            0E23Dh
              0E2F5h
                0E30Dh
      0E277h
        0E23Dh
          0E2F5h
            0E30Dh
      0E23Dh
        0E2F5h
          0E30Dh
      0E1BEh
        0E2F5h
          0E30Dh
0FF9Dh - Entry Point
  0E622h
    0E620h
      0E622h - Recursive
    0E60Bh
0FFA0h - Entry Point
  0E617h
    0E60Bh
0FFA3h - Entry Point
  0E5FDh
    0E613h
      0E608h
        0E5FBh
          0E5FDh - Recursive
        0E60Bh
    0E5FBh
      0E5FDh - Recursive
    0E60Bh
0FFA6h - Entry Point
  0E5F2h
    0E5FDh
      0E613h
        0E608h
          0E5FBh
            0E5FDh - Recursive
          0E60Bh
      0E5FBh
        0E5FDh - Recursive
      0E60Bh
0FFA9h - Entry Point
  0E651h
    0E641h
      0E63Eh
        0E635h
          0E5A1h
            0E5A6h
              0E4D9h
                0E400h
              0E312h
              0E529h
              0E328h
              0E477h
              0E4CFh
                0E400h
              0E4ACh
                0E477h
                0E49Ch
                0E422h
                  0E410h
                    0E400h
                0E44Fh
                  0E410h
                    0E400h
                0E42Fh
                  0E410h
                    0E400h
                  0E44Eh
          0E63Eh - Recursive
    0E4E5h
      0E400h
      0E529h
    0E4CFh
      0E400h
    0E67Bh
      0E641h
        0E63Eh
          0E635h
            0E5A1h
              0E5A6h
                0E4D9h
                  0E400h
                0E312h
                0E529h
                0E328h
                0E477h
                0E4CFh
                  0E400h
                0E4ACh
                  0E477h
                  0E49Ch
                  0E422h
                    0E410h
                      0E400h
                  0E44Fh
                    0E410h
                      0E400h
                  0E42Fh
                    0E410h
                      0E400h
                    0E44Eh
            0E63Eh - Recursive
      0E4E5h
        0E400h
        0E529h
      0E597h
        0E5A6h
          0E4D9h
            0E400h
          0E312h
          0E529h
          0E328h
          0E477h
          0E4CFh
            0E400h
          0E4ACh
            0E477h
            0E49Ch
            0E422h
              0E410h
                0E400h
            0E44Fh
              0E410h
                0E400h
            0E42Fh
              0E410h
                0E400h
              0E44Eh
0FFACh - Entry Point
  0E6B8h
    0E5A1h
      0E5A6h
        0E4D9h
          0E400h
        0E312h
        0E529h
        0E328h
        0E477h
        0E4CFh
          0E400h
        0E4ACh
          0E477h
          0E49Ch
          0E422h
            0E410h
              0E400h
          0E44Fh
            0E410h
              0E400h
          0E42Fh
            0E410h
              0E400h
            0E44Eh
    0E635h
      0E5A1h
        0E5A6h
          0E4D9h
            0E400h
          0E312h
          0E529h
          0E328h
          0E477h
          0E4CFh
            0E400h
          0E4ACh
            0E477h
            0E49Ch
            0E422h
              0E410h
                0E400h
            0E44Fh
              0E410h
                0E400h
            0E42Fh
              0E410h
                0E400h
              0E44Eh
      0E63Eh
        0E635h - Recursive
0FFAFh - Entry Point
  0E6A3h
    0E477h
    0E641h
      0E63Eh
        0E635h
          0E5A1h
            0E5A6h
              0E4D9h
                0E400h
              0E312h
              0E529h
              0E328h
              0E477h
              0E4CFh
                0E400h
              0E4ACh
                0E477h
                0E49Ch
                0E422h
                  0E410h
                    0E400h
                0E44Fh
                  0E410h
                    0E400h
                0E42Fh
                  0E410h
                    0E400h
                  0E44Eh
          0E63Eh - Recursive
    0E6B8h
      0E5A1h
        0E5A6h
          0E4D9h
            0E400h
          0E312h
          0E529h
          0E328h
          0E477h
          0E4CFh
            0E400h
          0E4ACh
            0E477h
            0E49Ch
            0E422h
              0E410h
                0E400h
            0E44Fh
              0E410h
                0E400h
            0E42Fh
              0E410h
                0E400h
              0E44Eh
      0E635h
        0E5A1h
          0E5A6h
            0E4D9h
              0E400h
            0E312h
            0E529h
            0E328h
            0E477h
            0E4CFh
              0E400h
            0E4ACh
              0E477h
              0E49Ch
              0E422h
                0E410h
                  0E400h
              0E44Fh
                0E410h
                  0E400h
              0E42Fh
                0E410h
                  0E400h
                0E44Eh
        0E63Eh
          0E635h - Recursive
0FFB2h - Entry Point
  0E597h
    0E5A6h
      0E4D9h
        0E400h
      0E312h
      0E529h
      0E328h
      0E477h
      0E4CFh
        0E400h
      0E4ACh
        0E477h
        0E49Ch
        0E422h
          0E410h
            0E400h
        0E44Fh
          0E410h
            0E400h
        0E42Fh
          0E410h
            0E400h
          0E44Eh
0FFB5h - Entry Point
  0E5A1h
    0E5A6h
      0E4D9h
        0E400h
      0E312h
      0E529h
      0E328h
      0E477h
      0E4CFh
        0E400h
      0E4ACh
        0E477h
        0E49Ch
        0E422h
          0E410h
            0E400h
        0E44Fh
          0E410h
            0E400h
        0E42Fh
          0E410h
            0E400h
          0E44Eh
0FFB8h - Entry Point
  0E529h
0FFBBh - Entry Point
  0E4E5h
    0E400h
    0E529h
0FFBEh - Entry Point
  0E4CFh
    0E400h
0FFC1h - Entry Point
  0E4ACh
    0E477h
    0E49Ch
    0E422h
      0E410h
        0E400h
    0E44Fh
      0E410h
        0E400h
    0E42Fh
      0E410h
        0E400h
      0E44Eh
0FFC4h - Entry Point
  0E477h
0FFC7h - Entry Point
  0E369h
    0EC98h
    0E3D3h
    0E3DBh
      0E374h
        0EC98h
        0E3C4h
          0E3D1h
            0E3D3h
          0E351h
        0E3D3h
        0E369h - Recursive
        0E3DBh - Recursive
        0E3C1h
          0E374h - Recursive
      0E3C1h
        0E374h
          0EC98h
          0E3C4h
            0E3D1h
              0E3D3h
            0E351h
          0E3D3h
          0E369h - Recursive
          0E3DBh - Recursive
          0E3C1h - Recursive
    0E3D1h
      0E3D3h
    0E351h
0FFCAh - Entry Point
  0E35Eh
    0E369h
      0EC98h
      0E3D3h
      0E3DBh
        0E374h
          0EC98h
          0E3C4h
            0E3D1h
              0E3D3h
            0E351h
          0E3D3h
          0E369h - Recursive
          0E3DBh - Recursive
          0E3C1h
            0E374h - Recursive
        0E3C1h
          0E374h
            0EC98h
            0E3C4h
              0E3D1h
                0E3D3h
              0E351h
            0E3D3h
            0E369h - Recursive
            0E3DBh - Recursive
            0E3C1h - Recursive
      0E3D1h
        0E3D3h
      0E351h
0FFD0h - Entry Point
  0E358h
    0E35Bh
      0E35Eh
        0E369h
          0EC98h
          0E3D3h
          0E3DBh
            0E374h
              0EC98h
              0E3C4h
                0E3D1h
                  0E3D3h
                0E351h
              0E3D3h
              0E369h - Recursive
              0E3DBh - Recursive
              0E3C1h
                0E374h - Recursive
            0E3C1h
              0E374h
                0EC98h
                0E3C4h
                  0E3D1h
                    0E3D3h
                  0E351h
                0E3D3h
                0E369h - Recursive
                0E3DBh - Recursive
                0E3C1h - Recursive
          0E3D1h
            0E3D3h
          0E351h
0FFD3h - Entry Point
  0E349h
0FFD6h - Entry Point
  0E33Eh
0FFD9h - Entry Point
  0E328h
0FFDCh - Entry Point
  0E312h
0FFDFh - Entry Point
  0E2F5h
    0E30Dh
0FFE5h - Entry Point
  0E0BDh
0FFE8h - Entry Point
  0EC6Fh
    0EC80h
0FFEBh - Entry Point
  0EC80h
0FFF7h - Entry Point
  0EC98h
0FFFAh - Entry Point
  0EC40h
    0EC4Bh
0FFFDh - Entry Point
  0EC4Bh
